
mario64.elf:     file format elf32-bigmips

Disassembly of section .text:

80400000 <_start>:
80400000:	27bdffb8 	addiu	sp,sp,-72
80400004:	afbf0044 	sw	ra,68(sp)
80400008:	afbe0040 	sw	s8,64(sp)
8040000c:	03a0f021 	move	s8,sp
80400010:	3c1c8040 	lui	gp,0x8040
80400014:	279c2650 	addiu	gp,gp,9808
80400018:	8f830018 	lw	v1,24(gp)
8040001c:	8f820018 	lw	v0,24(gp)
80400020:	8c420000 	lw	v0,0(v0)
80400024:	24420001 	addiu	v0,v0,1
80400028:	ac620000 	sw	v0,0(v1)
8040002c:	3c028038 	lui	v0,0x8038
80400030:	34425c2c 	ori	v0,v0,0x5c2c
80400034:	afc20030 	sw	v0,48(s8)
80400038:	8fc30030 	lw	v1,48(s8)
8040003c:	3c023c05 	lui	v0,0x3c05
80400040:	34428060 	ori	v0,v0,0x8060
80400044:	ac620000 	sw	v0,0(v1)
80400048:	8fc20030 	lw	v0,48(s8)
8040004c:	24420004 	addiu	v0,v0,4
80400050:	afc20030 	sw	v0,48(s8)
80400054:	8fc30030 	lw	v1,48(s8)
80400058:	3c028ca5 	lui	v0,0x8ca5
8040005c:	34420070 	ori	v0,v0,0x70
80400060:	ac620000 	sw	v0,0(v1)
80400064:	3c028036 	lui	v0,0x8036
80400068:	34421158 	ori	v0,v0,0x1158
8040006c:	afc2002c 	sw	v0,44(s8)
80400070:	8f830078 	lw	v1,120(gp)
80400074:	8fc2002c 	lw	v0,44(s8)
80400078:	8c420000 	lw	v0,0(v0)
8040007c:	ac620000 	sw	v0,0(v1)
80400080:	8f830084 	lw	v1,132(gp)
80400084:	3c028006 	lui	v0,0x8006
80400088:	34424040 	ori	v0,v0,0x4040
8040008c:	ac620000 	sw	v0,0(v1)
80400090:	8f830084 	lw	v1,132(gp)
80400094:	3c028050 	lui	v0,0x8050
80400098:	ac620008 	sw	v0,8(v1)
8040009c:	3c021300 	lui	v0,0x1300
804000a0:	0c09dfd4 	jal	80277f50 <SegmentedToVirtual>
804000a4:	344411a8 	ori	a0,v0,0x11a8
804000a8:	afc20028 	sw	v0,40(s8)
804000ac:	3c02802a 	lui	v0,0x802a
804000b0:	3442f4da 	ori	v0,v0,0xf4da
804000b4:	afc20024 	sw	v0,36(s8)
804000b8:	3c02802a 	lui	v0,0x802a
804000bc:	3442f564 	ori	v0,v0,0xf564
804000c0:	afc20020 	sw	v0,32(s8)
804000c4:	8fc30024 	lw	v1,36(s8)
804000c8:	24023f80 	li	v0,16256
804000cc:	a4620000 	sh	v0,0(v1)
804000d0:	8fc20020 	lw	v0,32(s8)
804000d4:	ac400000 	sw	zero,0(v0)
804000d8:	8fc30028 	lw	v1,40(s8)
804000dc:	3c02001e 	lui	v0,0x1e
804000e0:	3442fd30 	ori	v0,v0,0xfd30
804000e4:	ac620000 	sw	v0,0(v1)
804000e8:	8fc20028 	lw	v0,40(s8)
804000ec:	24420004 	addiu	v0,v0,4
804000f0:	afc20028 	sw	v0,40(s8)
804000f4:	8fc30028 	lw	v1,40(s8)
804000f8:	3c02ff9a 	lui	v0,0xff9a
804000fc:	344203e8 	ori	v0,v0,0x3e8
80400100:	ac620000 	sw	v0,0(v1)
80400104:	8fc20028 	lw	v0,40(s8)
80400108:	24420004 	addiu	v0,v0,4
8040010c:	afc20028 	sw	v0,40(s8)
80400110:	8fc30028 	lw	v1,40(s8)
80400114:	3c0203e8 	lui	v0,0x3e8
80400118:	344200c8 	ori	v0,v0,0xc8
8040011c:	ac620000 	sw	v0,0(v1)
80400120:	3c028025 	lui	v0,0x8025
80400124:	34424318 	ori	v0,v0,0x4318
80400128:	afc2001c 	sw	v0,28(s8)
8040012c:	8fc2001c 	lw	v0,28(s8)
80400130:	ac400000 	sw	zero,0(v0)
80400134:	8f820080 	lw	v0,128(gp)
80400138:	8c420000 	lw	v0,0(v0)
8040013c:	1440003d 	bnez	v0,80400234 <_start+0x234>
80400140:	00000000 	nop
80400144:	3c028075 	lui	v0,0x8075
80400148:	afc20014 	sw	v0,20(s8)
8040014c:	8fc30014 	lw	v1,20(s8)
80400150:	24025000 	li	v0,20480
80400154:	ac620000 	sw	v0,0(v1)
80400158:	8fc20014 	lw	v0,20(s8)
8040015c:	24420004 	addiu	v0,v0,4
80400160:	afc20014 	sw	v0,20(s8)
80400164:	8fc20014 	lw	v0,20(s8)
80400168:	24420004 	addiu	v0,v0,4
8040016c:	afc20014 	sw	v0,20(s8)
80400170:	8fc30014 	lw	v1,20(s8)
80400174:	3c028075 	lui	v0,0x8075
80400178:	34420010 	ori	v0,v0,0x10
8040017c:	ac620000 	sw	v0,0(v1)
80400180:	8fc20014 	lw	v0,20(s8)
80400184:	24420004 	addiu	v0,v0,4
80400188:	afc20014 	sw	v0,20(s8)
8040018c:	8fc30014 	lw	v1,20(s8)
80400190:	3c028075 	lui	v0,0x8075
80400194:	34420010 	ori	v0,v0,0x10
80400198:	ac620000 	sw	v0,0(v1)
8040019c:	3c048070 	lui	a0,0x8070
804001a0:	3c050170 	lui	a1,0x170
804001a4:	3c020172 	lui	v0,0x172
804001a8:	0c09e141 	jal	80278504 <DmaCopy>
804001ac:	34464200 	ori	a2,v0,0x4200
804001b0:	3c048073 	lui	a0,0x8073
804001b4:	3c050173 	lui	a1,0x173
804001b8:	3c020173 	lui	v0,0x173
804001bc:	0c09e141 	jal	80278504 <DmaCopy>
804001c0:	34460670 	ori	a2,v0,0x670
804001c4:	8f820008 	lw	v0,8(gp)
804001c8:	8c420000 	lw	v0,0(v0)
804001cc:	00402021 	move	a0,v0
804001d0:	24050001 	li	a1,1
804001d4:	3c021300 	lui	v0,0x1300
804001d8:	0c0a7b73 	jal	8029edcc <SpawnObj>
804001dc:	34462a48 	ori	a2,v0,0x2a48
804001e0:	afc20010 	sw	v0,16(s8)
804001e4:	8fc30010 	lw	v1,16(s8)
804001e8:	3c028072 	lui	v0,0x8072
804001ec:	344241e8 	ori	v0,v0,0x41e8
804001f0:	ac620120 	sw	v0,288(v1)
804001f4:	3c048075 	lui	a0,0x8075
804001f8:	3c028073 	lui	v0,0x8073
804001fc:	0c0df82d 	jal	8037e0b4 <ProcessGeoLayout>
80400200:	34450468 	ori	a1,v0,0x468
80400204:	00401821 	move	v1,v0
80400208:	8fc20010 	lw	v0,16(s8)
8040020c:	ac430014 	sw	v1,20(v0)
80400210:	8fc20010 	lw	v0,16(s8)
80400214:	c44200a0 	lwc1	$f2,160(v0)
80400218:	c780008c 	lwc1	$f0,140(gp)
8040021c:	46001000 	add.s	$f0,$f2,$f0
80400220:	8fc20010 	lw	v0,16(s8)
80400224:	e44000a0 	swc1	$f0,160(v0)
80400228:	8f830080 	lw	v1,128(gp)
8040022c:	24020001 	li	v0,1
80400230:	ac620000 	sw	v0,0(v1)
80400234:	8f820004 	lw	v0,4(gp)
80400238:	8c42009c 	lw	v0,156(v0)
8040023c:	94420010 	lhu	v0,16(v0)
80400240:	30420020 	andi	v0,v0,0x20
80400244:	10400033 	beqz	v0,80400314 <_start+0x314>
80400248:	00000000 	nop
8040024c:	8f820018 	lw	v0,24(gp)
80400250:	8c420000 	lw	v0,0(v0)
80400254:	28420004 	slti	v0,v0,4
80400258:	1440002e 	bnez	v0,80400314 <_start+0x314>
8040025c:	00000000 	nop
80400260:	8f820004 	lw	v0,4(gp)
80400264:	8c42009c 	lw	v0,156(v0)
80400268:	94420010 	lhu	v0,16(v0)
8040026c:	30420200 	andi	v0,v0,0x200
80400270:	10400012 	beqz	v0,804002bc <_start+0x2bc>
80400274:	00000000 	nop
80400278:	8f830020 	lw	v1,32(gp)
8040027c:	8f820020 	lw	v0,32(gp)
80400280:	8c420000 	lw	v0,0(v0)
80400284:	2442ffff 	addiu	v0,v0,-1
80400288:	ac620000 	sw	v0,0(v1)
8040028c:	8f820020 	lw	v0,32(gp)
80400290:	8c420000 	lw	v0,0(v0)
80400294:	04410004 	bgez	v0,804002a8 <_start+0x2a8>
80400298:	00000000 	nop
8040029c:	8f830020 	lw	v1,32(gp)
804002a0:	24020001 	li	v0,1
804002a4:	ac620000 	sw	v0,0(v1)
804002a8:	8f820018 	lw	v0,24(gp)
804002ac:	ac400000 	sw	zero,0(v0)
804002b0:	8f820010 	lw	v0,16(gp)
804002b4:	081000c5 	j	80400314 <_start+0x314>
804002b8:	ac400000 	sw	zero,0(v0)
804002bc:	8f820004 	lw	v0,4(gp)
804002c0:	8c42009c 	lw	v0,156(v0)
804002c4:	94420010 	lhu	v0,16(v0)
804002c8:	30420100 	andi	v0,v0,0x100
804002cc:	10400011 	beqz	v0,80400314 <_start+0x314>
804002d0:	00000000 	nop
804002d4:	8f830020 	lw	v1,32(gp)
804002d8:	8f820020 	lw	v0,32(gp)
804002dc:	8c420000 	lw	v0,0(v0)
804002e0:	24420001 	addiu	v0,v0,1
804002e4:	ac620000 	sw	v0,0(v1)
804002e8:	8f820020 	lw	v0,32(gp)
804002ec:	8c420000 	lw	v0,0(v0)
804002f0:	28420002 	slti	v0,v0,2
804002f4:	14400003 	bnez	v0,80400304 <_start+0x304>
804002f8:	00000000 	nop
804002fc:	8f820020 	lw	v0,32(gp)
80400300:	ac400000 	sw	zero,0(v0)
80400304:	8f820018 	lw	v0,24(gp)
80400308:	ac400000 	sw	zero,0(v0)
8040030c:	8f820010 	lw	v0,16(gp)
80400310:	ac400000 	sw	zero,0(v0)
80400314:	8f83005c 	lw	v1,92(gp)
80400318:	8f82005c 	lw	v0,92(gp)
8040031c:	c4420000 	lwc1	$f2,0(v0)
80400320:	8f820058 	lw	v0,88(gp)
80400324:	c4400000 	lwc1	$f0,0(v0)
80400328:	46001000 	add.s	$f0,$f2,$f0
8040032c:	e4600000 	swc1	$f0,0(v1)
80400330:	8f820004 	lw	v0,4(gp)
80400334:	8c420094 	lw	v0,148(v0)
80400338:	afc20018 	sw	v0,24(s8)
8040033c:	8f820004 	lw	v0,4(gp)
80400340:	c440003c 	lwc1	$f0,60(v0)
80400344:	8fc20018 	lw	v0,24(s8)
80400348:	e4400004 	swc1	$f0,4(v0)
8040034c:	8f820004 	lw	v0,4(gp)
80400350:	c4400040 	lwc1	$f0,64(v0)
80400354:	8fc20018 	lw	v0,24(s8)
80400358:	e4400008 	swc1	$f0,8(v0)
8040035c:	8f820004 	lw	v0,4(gp)
80400360:	c4400044 	lwc1	$f0,68(v0)
80400364:	8fc20018 	lw	v0,24(s8)
80400368:	e440000c 	swc1	$f0,12(v0)
8040036c:	8f820020 	lw	v0,32(gp)
80400370:	8c420000 	lw	v0,0(v0)
80400374:	afc20038 	sw	v0,56(s8)
80400378:	8fc20038 	lw	v0,56(s8)
8040037c:	10400007 	beqz	v0,8040039c <_start+0x39c>
80400380:	00000000 	nop
80400384:	24020001 	li	v0,1
80400388:	8fc30038 	lw	v1,56(s8)
8040038c:	10620011 	beq	v1,v0,804003d4 <_start+0x3d4>
80400390:	00000000 	nop
80400394:	081000f9 	j	804003e4 <_start+0x3e4>
80400398:	00000000 	nop
8040039c:	2404000a 	li	a0,10
804003a0:	2405001e 	li	a1,30
804003a4:	3c028040 	lui	v0,0x8040
804003a8:	244623bc 	addiu	a2,v0,9148
804003ac:	0c0b58b6 	jal	802d62d8 <PrintInt>
804003b0:	00003821 	move	a3,zero
804003b4:	2404000a 	li	a0,10
804003b8:	2405000a 	li	a1,10
804003bc:	3c028040 	lui	v0,0x8040
804003c0:	244623d0 	addiu	a2,v0,9168
804003c4:	0c0b58b6 	jal	802d62d8 <PrintInt>
804003c8:	00003821 	move	a3,zero
804003cc:	08100105 	j	80400414 <_start+0x414>
804003d0:	00000000 	nop
804003d4:	0c10010a 	jal	80400428 <MenuPage05>
804003d8:	00000000 	nop
804003dc:	08100105 	j	80400414 <_start+0x414>
804003e0:	00000000 	nop
804003e4:	2404000a 	li	a0,10
804003e8:	2405001e 	li	a1,30
804003ec:	3c028040 	lui	v0,0x8040
804003f0:	244623e8 	addiu	a2,v0,9192
804003f4:	0c0b58b6 	jal	802d62d8 <PrintInt>
804003f8:	00003821 	move	a3,zero
804003fc:	2404000a 	li	a0,10
80400400:	2405000a 	li	a1,10
80400404:	3c028040 	lui	v0,0x8040
80400408:	244623d0 	addiu	a2,v0,9168
8040040c:	0c0b58b6 	jal	802d62d8 <PrintInt>
80400410:	00003821 	move	a3,zero
80400414:	03c0e821 	move	sp,s8
80400418:	8fbf0044 	lw	ra,68(sp)
8040041c:	8fbe0040 	lw	s8,64(sp)
80400420:	03e00008 	jr	ra
80400424:	27bd0048 	addiu	sp,sp,72

80400428 <MenuPage05>:
80400428:	27bdff18 	addiu	sp,sp,-232
8040042c:	afbf00d4 	sw	ra,212(sp)
80400430:	afbe00d0 	sw	s8,208(sp)
80400434:	afb000cc 	sw	s0,204(sp)
80400438:	f7b600e0 	sdc1	$f22,224(sp)
8040043c:	f7b400d8 	sdc1	$f20,216(sp)
80400440:	03a0f021 	move	s8,sp
80400444:	afc00048 	sw	zero,72(s8)
80400448:	3c028060 	lui	v0,0x8060
8040044c:	34428000 	ori	v0,v0,0x8000
80400450:	afc20044 	sw	v0,68(s8)
80400454:	8f820068 	lw	v0,104(gp)
80400458:	8c420000 	lw	v0,0(v0)
8040045c:	3c038040 	lui	v1,0x8040
80400460:	00022080 	sll	a0,v0,0x2
80400464:	24622608 	addiu	v0,v1,9736
80400468:	00821021 	addu	v0,a0,v0
8040046c:	8c420000 	lw	v0,0(v0)
80400470:	afc20040 	sw	v0,64(s8)
80400474:	8f820010 	lw	v0,16(gp)
80400478:	8c420000 	lw	v0,0(v0)
8040047c:	14400027 	bnez	v0,8040051c <MenuPage05+0xf4>
80400480:	00000000 	nop
80400484:	8f830040 	lw	v1,64(gp)
80400488:	240200c0 	li	v0,192
8040048c:	ac620000 	sw	v0,0(v1)
80400490:	8f820040 	lw	v0,64(gp)
80400494:	8c420000 	lw	v0,0(v0)
80400498:	00401821 	move	v1,v0
8040049c:	3c02200c 	lui	v0,0x200c
804004a0:	3442ed34 	ori	v0,v0,0xed34
804004a4:	00621021 	addu	v0,v1,v0
804004a8:	00021080 	sll	v0,v0,0x2
804004ac:	afc2003c 	sw	v0,60(s8)
804004b0:	8fc2003c 	lw	v0,60(s8)
804004b4:	8c420000 	lw	v0,0(v0)
804004b8:	1440000f 	bnez	v0,804004f8 <MenuPage05+0xd0>
804004bc:	00000000 	nop
804004c0:	0810013a 	j	804004e8 <MenuPage05+0xc0>
804004c4:	00000000 	nop
804004c8:	8f830040 	lw	v1,64(gp)
804004cc:	8f820040 	lw	v0,64(gp)
804004d0:	8c420000 	lw	v0,0(v0)
804004d4:	2442ffff 	addiu	v0,v0,-1
804004d8:	ac620000 	sw	v0,0(v1)
804004dc:	8fc2003c 	lw	v0,60(s8)
804004e0:	2442fffc 	addiu	v0,v0,-4
804004e4:	afc2003c 	sw	v0,60(s8)
804004e8:	8fc2003c 	lw	v0,60(s8)
804004ec:	8c420000 	lw	v0,0(v0)
804004f0:	1440fff5 	bnez	v0,804004c8 <MenuPage05+0xa0>
804004f4:	00000000 	nop
804004f8:	8f83001c 	lw	v1,28(gp)
804004fc:	24020001 	li	v0,1
80400500:	ac620000 	sw	v0,0(v1)
80400504:	8f830010 	lw	v1,16(gp)
80400508:	24020001 	li	v0,1
8040050c:	ac620000 	sw	v0,0(v1)
80400510:	8f830028 	lw	v1,40(gp)
80400514:	2402000f 	li	v0,15
80400518:	ac620000 	sw	v0,0(v1)
8040051c:	8f820004 	lw	v0,4(gp)
80400520:	8c42009c 	lw	v0,156(v0)
80400524:	94420010 	lhu	v0,16(v0)
80400528:	30420020 	andi	v0,v0,0x20
8040052c:	10400106 	beqz	v0,80400948 <MenuPage05+0x520>
80400530:	00000000 	nop
80400534:	8f820004 	lw	v0,4(gp)
80400538:	8c42009c 	lw	v0,156(v0)
8040053c:	94420010 	lhu	v0,16(v0)
80400540:	30420800 	andi	v0,v0,0x800
80400544:	10400100 	beqz	v0,80400948 <MenuPage05+0x520>
80400548:	00000000 	nop
8040054c:	03a01021 	move	v0,sp
80400550:	afc2009c 	sw	v0,156(s8)
80400554:	8f82001c 	lw	v0,28(gp)
80400558:	8c430000 	lw	v1,0(v0)
8040055c:	2402000e 	li	v0,14
80400560:	14620004 	bne	v1,v0,80400574 <MenuPage05+0x14c>
80400564:	00000000 	nop
80400568:	8f83001c 	lw	v1,28(gp)
8040056c:	2402000d 	li	v0,13
80400570:	ac620000 	sw	v0,0(v1)
80400574:	8f82000c 	lw	v0,12(gp)
80400578:	8c420000 	lw	v0,0(v0)
8040057c:	afc2005c 	sw	v0,92(s8)
80400580:	8f83000c 	lw	v1,12(gp)
80400584:	3c028033 	lui	v0,0x8033
80400588:	3442d488 	ori	v0,v0,0xd488
8040058c:	ac620000 	sw	v0,0(v1)
80400590:	3c028060 	lui	v0,0x8060
80400594:	34428010 	ori	v0,v0,0x8010
80400598:	afc20044 	sw	v0,68(s8)
8040059c:	afc00054 	sw	zero,84(s8)
804005a0:	081001ab 	j	804006ac <MenuPage05+0x284>
804005a4:	00000000 	nop
804005a8:	8f820008 	lw	v0,8(gp)
804005ac:	8c420000 	lw	v0,0(v0)
804005b0:	8c42003c 	lw	v0,60(v0)
804005b4:	14400006 	bnez	v0,804005d0 <MenuPage05+0x1a8>
804005b8:	00000000 	nop
804005bc:	8f820008 	lw	v0,8(gp)
804005c0:	8c420000 	lw	v0,0(v0)
804005c4:	8c420218 	lw	v0,536(v0)
804005c8:	10400030 	beqz	v0,8040068c <MenuPage05+0x264>
804005cc:	00000000 	nop
804005d0:	8f820004 	lw	v0,4(gp)
804005d4:	8c430088 	lw	v1,136(v0)
804005d8:	8f820008 	lw	v0,8(gp)
804005dc:	1062002b 	beq	v1,v0,8040068c <MenuPage05+0x264>
804005e0:	00000000 	nop
804005e4:	8f82000c 	lw	v0,12(gp)
804005e8:	8c430000 	lw	v1,0(v0)
804005ec:	8fc20044 	lw	v0,68(s8)
804005f0:	ac430000 	sw	v1,0(v0)
804005f4:	8fc20044 	lw	v0,68(s8)
804005f8:	24420004 	addiu	v0,v0,4
804005fc:	afc20044 	sw	v0,68(s8)
80400600:	8f820008 	lw	v0,8(gp)
80400604:	8c420000 	lw	v0,0(v0)
80400608:	c440015c 	lwc1	$f0,348(v0)
8040060c:	e7c000bc 	swc1	$f0,188(s8)
80400610:	c7820090 	lwc1	$f2,144(gp)
80400614:	e7c200c0 	swc1	$f2,192(s8)
80400618:	c7c400bc 	lwc1	$f4,188(s8)
8040061c:	c7c000c0 	lwc1	$f0,192(s8)
80400620:	4604003e 	c.le.s	$f0,$f4
80400624:	00000000 	nop
80400628:	45010006 	bc1t	80400644 <MenuPage05+0x21c>
8040062c:	00000000 	nop
80400630:	c7c200bc 	lwc1	$f2,188(s8)
80400634:	4600108d 	trunc.w.s	$f2,$f2
80400638:	e7c200b8 	swc1	$f2,184(s8)
8040063c:	0810019a 	j	80400668 <MenuPage05+0x240>
80400640:	00000000 	nop
80400644:	c7c400bc 	lwc1	$f4,188(s8)
80400648:	c7c200c0 	lwc1	$f2,192(s8)
8040064c:	46022001 	sub.s	$f0,$f4,$f2
80400650:	3c028000 	lui	v0,0x8000
80400654:	4600000d 	trunc.w.s	$f0,$f0
80400658:	e7c000b8 	swc1	$f0,184(s8)
8040065c:	8fc300b8 	lw	v1,184(s8)
80400660:	00621825 	or	v1,v1,v0
80400664:	afc300b8 	sw	v1,184(s8)
80400668:	8fc20044 	lw	v0,68(s8)
8040066c:	8fc500b8 	lw	a1,184(s8)
80400670:	ac450000 	sw	a1,0(v0)
80400674:	8fc20044 	lw	v0,68(s8)
80400678:	24420004 	addiu	v0,v0,4
8040067c:	afc20044 	sw	v0,68(s8)
80400680:	8fc20048 	lw	v0,72(s8)
80400684:	24420001 	addiu	v0,v0,1
80400688:	afc20048 	sw	v0,72(s8)
8040068c:	8f83000c 	lw	v1,12(gp)
80400690:	8f820008 	lw	v0,8(gp)
80400694:	8c420000 	lw	v0,0(v0)
80400698:	8c420008 	lw	v0,8(v0)
8040069c:	ac620000 	sw	v0,0(v1)
804006a0:	8fc20054 	lw	v0,84(s8)
804006a4:	24420001 	addiu	v0,v0,1
804006a8:	afc20054 	sw	v0,84(s8)
804006ac:	8fc20054 	lw	v0,84(s8)
804006b0:	284200f0 	slti	v0,v0,240
804006b4:	1440ffbc 	bnez	v0,804005a8 <MenuPage05+0x180>
804006b8:	00000000 	nop
804006bc:	3c028060 	lui	v0,0x8060
804006c0:	34428000 	ori	v0,v0,0x8000
804006c4:	afc20044 	sw	v0,68(s8)
804006c8:	8fc30048 	lw	v1,72(s8)
804006cc:	8fc20044 	lw	v0,68(s8)
804006d0:	ac430000 	sw	v1,0(v0)
804006d4:	8fc70048 	lw	a3,72(s8)
804006d8:	00e01021 	move	v0,a3
804006dc:	afc200b4 	sw	v0,180(s8)
804006e0:	00001021 	move	v0,zero
804006e4:	afc200b0 	sw	v0,176(s8)
804006e8:	8fc300b4 	lw	v1,180(s8)
804006ec:	8fc200b0 	lw	v0,176(s8)
804006f0:	afc300b4 	sw	v1,180(s8)
804006f4:	afc200b0 	sw	v0,176(s8)
804006f8:	2404ffff 	li	a0,-1
804006fc:	8fc500b0 	lw	a1,176(s8)
80400700:	30a2000f 	andi	v0,a1,0xf
80400704:	8fc500b4 	lw	a1,180(s8)
80400708:	00a41824 	and	v1,a1,a0
8040070c:	afc300b4 	sw	v1,180(s8)
80400710:	afc200b0 	sw	v0,176(s8)
80400714:	8fc300b4 	lw	v1,180(s8)
80400718:	000316c2 	srl	v0,v1,0x1b
8040071c:	8fc300b0 	lw	v1,176(s8)
80400720:	00032140 	sll	a0,v1,0x5
80400724:	00442025 	or	a0,v0,a0
80400728:	8fc200b4 	lw	v0,180(s8)
8040072c:	00022940 	sll	a1,v0,0x5
80400730:	2406ffff 	li	a2,-1
80400734:	3082000f 	andi	v0,a0,0xf
80400738:	00a61824 	and	v1,a1,a2
8040073c:	00602821 	move	a1,v1
80400740:	00402021 	move	a0,v0
80400744:	00e01021 	move	v0,a3
80400748:	afc200ac 	sw	v0,172(s8)
8040074c:	00001821 	move	v1,zero
80400750:	afc300a8 	sw	v1,168(s8)
80400754:	8fc300ac 	lw	v1,172(s8)
80400758:	8fc200a8 	lw	v0,168(s8)
8040075c:	afc300ac 	sw	v1,172(s8)
80400760:	afc200a8 	sw	v0,168(s8)
80400764:	2404ffff 	li	a0,-1
80400768:	8fc500a8 	lw	a1,168(s8)
8040076c:	30a2000f 	andi	v0,a1,0xf
80400770:	8fc500ac 	lw	a1,172(s8)
80400774:	00a41824 	and	v1,a1,a0
80400778:	afc300ac 	sw	v1,172(s8)
8040077c:	afc200a8 	sw	v0,168(s8)
80400780:	8fc300ac 	lw	v1,172(s8)
80400784:	000316c2 	srl	v0,v1,0x1b
80400788:	8fc300a8 	lw	v1,168(s8)
8040078c:	00032140 	sll	a0,v1,0x5
80400790:	00442025 	or	a0,v0,a0
80400794:	8fc200ac 	lw	v0,172(s8)
80400798:	00022940 	sll	a1,v0,0x5
8040079c:	2406ffff 	li	a2,-1
804007a0:	3082000f 	andi	v0,a0,0xf
804007a4:	00a61824 	and	v1,a1,a2
804007a8:	00602821 	move	a1,v1
804007ac:	00402021 	move	a0,v0
804007b0:	00e01021 	move	v0,a3
804007b4:	00021080 	sll	v0,v0,0x2
804007b8:	24420007 	addiu	v0,v0,7
804007bc:	24420007 	addiu	v0,v0,7
804007c0:	000210c2 	srl	v0,v0,0x3
804007c4:	000210c0 	sll	v0,v0,0x3
804007c8:	03a2e823 	subu	sp,sp,v0
804007cc:	27a30010 	addiu	v1,sp,16
804007d0:	afc300a0 	sw	v1,160(s8)
804007d4:	8fc500a0 	lw	a1,160(s8)
804007d8:	24a20007 	addiu	v0,a1,7
804007dc:	000210c2 	srl	v0,v0,0x3
804007e0:	000210c0 	sll	v0,v0,0x3
804007e4:	afc200a0 	sw	v0,160(s8)
804007e8:	8fc200a0 	lw	v0,160(s8)
804007ec:	afc20060 	sw	v0,96(s8)
804007f0:	afc00054 	sw	zero,84(s8)
804007f4:	08100211 	j	80400844 <MenuPage05+0x41c>
804007f8:	00000000 	nop
804007fc:	8fc20054 	lw	v0,84(s8)
80400800:	000210c0 	sll	v0,v0,0x3
80400804:	00401821 	move	v1,v0
80400808:	3c028060 	lui	v0,0x8060
8040080c:	34428014 	ori	v0,v0,0x8014
80400810:	00621021 	addu	v0,v1,v0
80400814:	afc20028 	sw	v0,40(s8)
80400818:	8fc40054 	lw	a0,84(s8)
8040081c:	8fc20028 	lw	v0,40(s8)
80400820:	8c420000 	lw	v0,0(v0)
80400824:	00402821 	move	a1,v0
80400828:	8fc30060 	lw	v1,96(s8)
8040082c:	00041080 	sll	v0,a0,0x2
80400830:	00621021 	addu	v0,v1,v0
80400834:	ac450000 	sw	a1,0(v0)
80400838:	8fc20054 	lw	v0,84(s8)
8040083c:	24420001 	addiu	v0,v0,1
80400840:	afc20054 	sw	v0,84(s8)
80400844:	8fc20054 	lw	v0,84(s8)
80400848:	8fc30048 	lw	v1,72(s8)
8040084c:	0043102a 	slt	v0,v0,v1
80400850:	1440ffea 	bnez	v0,804007fc <MenuPage05+0x3d4>
80400854:	00000000 	nop
80400858:	8fc20060 	lw	v0,96(s8)
8040085c:	00402021 	move	a0,v0
80400860:	8fc50048 	lw	a1,72(s8)
80400864:	0c100837 	jal	804020dc <bubble_srt>
80400868:	00000000 	nop
8040086c:	08100220 	j	80400880 <MenuPage05+0x458>
80400870:	00000000 	nop
80400874:	8fc20044 	lw	v0,68(s8)
80400878:	24420004 	addiu	v0,v0,4
8040087c:	afc20044 	sw	v0,68(s8)
80400880:	8fc20060 	lw	v0,96(s8)
80400884:	8c420000 	lw	v0,0(v0)
80400888:	00401821 	move	v1,v0
8040088c:	8fc20044 	lw	v0,68(s8)
80400890:	8c420000 	lw	v0,0(v0)
80400894:	1462fff7 	bne	v1,v0,80400874 <MenuPage05+0x44c>
80400898:	00000000 	nop
8040089c:	8fc20044 	lw	v0,68(s8)
804008a0:	2442fffc 	addiu	v0,v0,-4
804008a4:	afc20044 	sw	v0,68(s8)
804008a8:	8fc20044 	lw	v0,68(s8)
804008ac:	8c420000 	lw	v0,0(v0)
804008b0:	afc20038 	sw	v0,56(s8)
804008b4:	3c028060 	lui	v0,0x8060
804008b8:	34428008 	ori	v0,v0,0x8008
804008bc:	afc20044 	sw	v0,68(s8)
804008c0:	8fc30038 	lw	v1,56(s8)
804008c4:	8fc20044 	lw	v0,68(s8)
804008c8:	ac430000 	sw	v1,0(v0)
804008cc:	8fc20038 	lw	v0,56(s8)
804008d0:	afc20034 	sw	v0,52(s8)
804008d4:	3c028033 	lui	v0,0x8033
804008d8:	3442b4d0 	ori	v0,v0,0xb4d0
804008dc:	afc2002c 	sw	v0,44(s8)
804008e0:	8f820040 	lw	v0,64(gp)
804008e4:	ac400000 	sw	zero,0(v0)
804008e8:	08100244 	j	80400910 <MenuPage05+0x4e8>
804008ec:	00000000 	nop
804008f0:	8f830040 	lw	v1,64(gp)
804008f4:	8f820040 	lw	v0,64(gp)
804008f8:	8c420000 	lw	v0,0(v0)
804008fc:	24420001 	addiu	v0,v0,1
80400900:	ac620000 	sw	v0,0(v1)
80400904:	8fc2002c 	lw	v0,44(s8)
80400908:	24420004 	addiu	v0,v0,4
8040090c:	afc2002c 	sw	v0,44(s8)
80400910:	8fc20034 	lw	v0,52(s8)
80400914:	8c430014 	lw	v1,20(v0)
80400918:	8fc2002c 	lw	v0,44(s8)
8040091c:	8c420000 	lw	v0,0(v0)
80400920:	1462fff3 	bne	v1,v0,804008f0 <MenuPage05+0x4c8>
80400924:	00000000 	nop
80400928:	8f83000c 	lw	v1,12(gp)
8040092c:	8fc2005c 	lw	v0,92(s8)
80400930:	ac620000 	sw	v0,0(v1)
80400934:	8f830044 	lw	v1,68(gp)
80400938:	8fc20034 	lw	v0,52(s8)
8040093c:	8c42020c 	lw	v0,524(v0)
80400940:	ac620000 	sw	v0,0(v1)
80400944:	8fdd009c 	lw	sp,156(s8)
80400948:	3c028060 	lui	v0,0x8060
8040094c:	34428008 	ori	v0,v0,0x8008
80400950:	afc20044 	sw	v0,68(s8)
80400954:	8fc20044 	lw	v0,68(s8)
80400958:	8c420000 	lw	v0,0(v0)
8040095c:	10400510 	beqz	v0,80401da0 <MenuPage05+0x1978>
80400960:	00000000 	nop
80400964:	00002021 	move	a0,zero
80400968:	2405000e 	li	a1,14
8040096c:	00003021 	move	a2,zero
80400970:	0c100886 	jal	80402218 <ProcessSelection>
80400974:	00000000 	nop
80400978:	8fc20044 	lw	v0,68(s8)
8040097c:	8c420000 	lw	v0,0(v0)
80400980:	afc20024 	sw	v0,36(s8)
80400984:	8fc20024 	lw	v0,36(s8)
80400988:	8c420120 	lw	v0,288(v0)
8040098c:	afc20098 	sw	v0,152(s8)
80400990:	3c020501 	lui	v0,0x501
80400994:	3442c504 	ori	v0,v0,0xc504
80400998:	8fc30098 	lw	v1,152(s8)
8040099c:	10620156 	beq	v1,v0,80400ef8 <MenuPage05+0xad0>
804009a0:	00000000 	nop
804009a4:	3c020501 	lui	v0,0x501
804009a8:	3442c505 	ori	v0,v0,0xc505
804009ac:	8fc50098 	lw	a1,152(s8)
804009b0:	00a2102b 	sltu	v0,a1,v0
804009b4:	10400080 	beqz	v0,80400bb8 <MenuPage05+0x790>
804009b8:	00000000 	nop
804009bc:	3c020500 	lui	v0,0x500
804009c0:	34425784 	ori	v0,v0,0x5784
804009c4:	8fc30098 	lw	v1,152(s8)
804009c8:	106201f6 	beq	v1,v0,804011a4 <MenuPage05+0xd7c>
804009cc:	00000000 	nop
804009d0:	3c020500 	lui	v0,0x500
804009d4:	34425785 	ori	v0,v0,0x5785
804009d8:	8fc50098 	lw	a1,152(s8)
804009dc:	00a2102b 	sltu	v0,a1,v0
804009e0:	1040003b 	beqz	v0,80400ad0 <MenuPage05+0x6a8>
804009e4:	00000000 	nop
804009e8:	3c020500 	lui	v0,0x500
804009ec:	34421744 	ori	v0,v0,0x1744
804009f0:	8fc30098 	lw	v1,152(s8)
804009f4:	10620218 	beq	v1,v0,80401258 <MenuPage05+0xe30>
804009f8:	00000000 	nop
804009fc:	3c020500 	lui	v0,0x500
80400a00:	34421745 	ori	v0,v0,0x1745
80400a04:	8fc50098 	lw	a1,152(s8)
80400a08:	00a2102b 	sltu	v0,a1,v0
80400a0c:	10400012 	beqz	v0,80400a58 <MenuPage05+0x630>
80400a10:	00000000 	nop
80400a14:	3c020301 	lui	v0,0x301
80400a18:	344256c0 	ori	v0,v0,0x56c0
80400a1c:	8fc30098 	lw	v1,152(s8)
80400a20:	10620108 	beq	v1,v0,80400e44 <MenuPage05+0xa1c>
80400a24:	00000000 	nop
80400a28:	3c020500 	lui	v0,0x500
80400a2c:	344209e8 	ori	v0,v0,0x9e8
80400a30:	8fc50098 	lw	a1,152(s8)
80400a34:	10a201ff 	beq	a1,v0,80401234 <MenuPage05+0xe0c>
80400a38:	00000000 	nop
80400a3c:	3c020300 	lui	v0,0x300
80400a40:	344256b0 	ori	v0,v0,0x56b0
80400a44:	8fc30098 	lw	v1,152(s8)
80400a48:	10620173 	beq	v1,v0,80401018 <MenuPage05+0xbf0>
80400a4c:	00000000 	nop
80400a50:	081004a8 	j	804012a0 <MenuPage05+0xe78>
80400a54:	00000000 	nop
80400a58:	3c020500 	lui	v0,0x500
80400a5c:	34422d68 	ori	v0,v0,0x2d68
80400a60:	8fc50098 	lw	a1,152(s8)
80400a64:	10a2012d 	beq	a1,v0,80400f1c <MenuPage05+0xaf4>
80400a68:	00000000 	nop
80400a6c:	3c020500 	lui	v0,0x500
80400a70:	34422d69 	ori	v0,v0,0x2d69
80400a74:	8fc30098 	lw	v1,152(s8)
80400a78:	0062102b 	sltu	v0,v1,v0
80400a7c:	10400008 	beqz	v0,80400aa0 <MenuPage05+0x678>
80400a80:	00000000 	nop
80400a84:	3c020500 	lui	v0,0x500
80400a88:	34422540 	ori	v0,v0,0x2540
80400a8c:	8fc50098 	lw	a1,152(s8)
80400a90:	10a201d6 	beq	a1,v0,804011ec <MenuPage05+0xdc4>
80400a94:	00000000 	nop
80400a98:	081004a8 	j	804012a0 <MenuPage05+0xe78>
80400a9c:	00000000 	nop
80400aa0:	3c020500 	lui	v0,0x500
80400aa4:	3442470c 	ori	v0,v0,0x470c
80400aa8:	8fc30098 	lw	v1,152(s8)
80400aac:	1062016c 	beq	v1,v0,80401060 <MenuPage05+0xc38>
80400ab0:	00000000 	nop
80400ab4:	3c020500 	lui	v0,0x500
80400ab8:	34425768 	ori	v0,v0,0x5768
80400abc:	8fc50098 	lw	a1,152(s8)
80400ac0:	10a2015e 	beq	a1,v0,8040103c <MenuPage05+0xc14>
80400ac4:	00000000 	nop
80400ac8:	081004a8 	j	804012a0 <MenuPage05+0xe78>
80400acc:	00000000 	nop
80400ad0:	3c020500 	lui	v0,0x500
80400ad4:	34429b14 	ori	v0,v0,0x9b14
80400ad8:	8fc30098 	lw	v1,152(s8)
80400adc:	106201ba 	beq	v1,v0,804011c8 <MenuPage05+0xda0>
80400ae0:	00000000 	nop
80400ae4:	3c020500 	lui	v0,0x500
80400ae8:	34429b15 	ori	v0,v0,0x9b15
80400aec:	8fc50098 	lw	a1,152(s8)
80400af0:	00a2102b 	sltu	v0,a1,v0
80400af4:	10400012 	beqz	v0,80400b40 <MenuPage05+0x718>
80400af8:	00000000 	nop
80400afc:	3c020500 	lui	v0,0x500
80400b00:	34428b74 	ori	v0,v0,0x8b74
80400b04:	8fc30098 	lw	v1,152(s8)
80400b08:	106200f2 	beq	v1,v0,80400ed4 <MenuPage05+0xaac>
80400b0c:	00000000 	nop
80400b10:	3c020500 	lui	v0,0x500
80400b14:	34428cfc 	ori	v0,v0,0x8cfc
80400b18:	8fc50098 	lw	a1,152(s8)
80400b1c:	10a201bc 	beq	a1,v0,80401210 <MenuPage05+0xde8>
80400b20:	00000000 	nop
80400b24:	3c020500 	lui	v0,0x500
80400b28:	34427248 	ori	v0,v0,0x7248
80400b2c:	8fc30098 	lw	v1,152(s8)
80400b30:	10620181 	beq	v1,v0,80401138 <MenuPage05+0xd10>
80400b34:	00000000 	nop
80400b38:	081004a8 	j	804012a0 <MenuPage05+0xe78>
80400b3c:	00000000 	nop
80400b40:	3c020500 	lui	v0,0x500
80400b44:	3442ec8c 	ori	v0,v0,0xec8c
80400b48:	8fc50098 	lw	a1,152(s8)
80400b4c:	10a20171 	beq	a1,v0,80401114 <MenuPage05+0xcec>
80400b50:	00000000 	nop
80400b54:	3c020500 	lui	v0,0x500
80400b58:	3442ec8d 	ori	v0,v0,0xec8d
80400b5c:	8fc30098 	lw	v1,152(s8)
80400b60:	0062102b 	sltu	v0,v1,v0
80400b64:	10400008 	beqz	v0,80400b88 <MenuPage05+0x760>
80400b68:	00000000 	nop
80400b6c:	3c020500 	lui	v0,0x500
80400b70:	3442d118 	ori	v0,v0,0xd118
80400b74:	8fc50098 	lw	a1,152(s8)
80400b78:	10a20178 	beq	a1,v0,8040115c <MenuPage05+0xd34>
80400b7c:	00000000 	nop
80400b80:	081004a8 	j	804012a0 <MenuPage05+0xe78>
80400b84:	00000000 	nop
80400b88:	3c020501 	lui	v0,0x501
80400b8c:	344244d4 	ori	v0,v0,0x44d4
80400b90:	8fc30098 	lw	v1,152(s8)
80400b94:	106200f3 	beq	v1,v0,80400f64 <MenuPage05+0xb3c>
80400b98:	00000000 	nop
80400b9c:	3c020501 	lui	v0,0x501
80400ba0:	3442534c 	ori	v0,v0,0x534c
80400ba4:	8fc50098 	lw	a1,152(s8)
80400ba8:	10a200c1 	beq	a1,v0,80400eb0 <MenuPage05+0xa88>
80400bac:	00000000 	nop
80400bb0:	081004a8 	j	804012a0 <MenuPage05+0xe78>
80400bb4:	00000000 	nop
80400bb8:	3c020601 	lui	v0,0x601
80400bbc:	3442c31c 	ori	v0,v0,0xc31c
80400bc0:	8fc30098 	lw	v1,152(s8)
80400bc4:	106200f9 	beq	v1,v0,80400fac <MenuPage05+0xb84>
80400bc8:	00000000 	nop
80400bcc:	3c020601 	lui	v0,0x601
80400bd0:	3442c31d 	ori	v0,v0,0xc31d
80400bd4:	8fc50098 	lw	a1,152(s8)
80400bd8:	00a2102b 	sltu	v0,a1,v0
80400bdc:	1040003b 	beqz	v0,80400ccc <MenuPage05+0x8a4>
80400be0:	00000000 	nop
80400be4:	3c020600 	lui	v0,0x600
80400be8:	34427de0 	ori	v0,v0,0x7de0
80400bec:	8fc30098 	lw	v1,152(s8)
80400bf0:	106201a2 	beq	v1,v0,8040127c <MenuPage05+0xe54>
80400bf4:	00000000 	nop
80400bf8:	3c020600 	lui	v0,0x600
80400bfc:	34427de1 	ori	v0,v0,0x7de1
80400c00:	8fc50098 	lw	a1,152(s8)
80400c04:	00a2102b 	sltu	v0,a1,v0
80400c08:	10400012 	beqz	v0,80400c54 <MenuPage05+0x82c>
80400c0c:	00000000 	nop
80400c10:	3c020600 	lui	v0,0x600
80400c14:	344258f8 	ori	v0,v0,0x58f8
80400c18:	8fc30098 	lw	v1,152(s8)
80400c1c:	106200c8 	beq	v1,v0,80400f40 <MenuPage05+0xb18>
80400c20:	00000000 	nop
80400c24:	3c020600 	lui	v0,0x600
80400c28:	344270d0 	ori	v0,v0,0x70d0
80400c2c:	8fc50098 	lw	a1,152(s8)
80400c30:	10a20126 	beq	a1,v0,804010cc <MenuPage05+0xca4>
80400c34:	00000000 	nop
80400c38:	3c020502 	lui	v0,0x502
80400c3c:	344241e8 	ori	v0,v0,0x41e8
80400c40:	8fc30098 	lw	v1,152(s8)
80400c44:	10620118 	beq	v1,v0,804010a8 <MenuPage05+0xc80>
80400c48:	00000000 	nop
80400c4c:	081004a8 	j	804012a0 <MenuPage05+0xe78>
80400c50:	00000000 	nop
80400c54:	3c020600 	lui	v0,0x600
80400c58:	3442fc48 	ori	v0,v0,0xfc48
80400c5c:	8fc50098 	lw	a1,152(s8)
80400c60:	10a200c9 	beq	a1,v0,80400f88 <MenuPage05+0xb60>
80400c64:	00000000 	nop
80400c68:	3c020600 	lui	v0,0x600
80400c6c:	3442fc49 	ori	v0,v0,0xfc49
80400c70:	8fc30098 	lw	v1,152(s8)
80400c74:	0062102b 	sltu	v0,v1,v0
80400c78:	10400008 	beqz	v0,80400c9c <MenuPage05+0x874>
80400c7c:	00000000 	nop
80400c80:	3c020600 	lui	v0,0x600
80400c84:	3442f638 	ori	v0,v0,0xf638
80400c88:	8fc50098 	lw	a1,152(s8)
80400c8c:	10a2013c 	beq	a1,v0,80401180 <MenuPage05+0xd58>
80400c90:	00000000 	nop
80400c94:	081004a8 	j	804012a0 <MenuPage05+0xe78>
80400c98:	00000000 	nop
80400c9c:	3c020601 	lui	v0,0x601
80400ca0:	34421364 	ori	v0,v0,0x1364
80400ca4:	8fc30098 	lw	v1,152(s8)
80400ca8:	1062004b 	beq	v1,v0,80400dd8 <MenuPage05+0x9b0>
80400cac:	00000000 	nop
80400cb0:	3c020601 	lui	v0,0x601
80400cb4:	34425724 	ori	v0,v0,0x5724
80400cb8:	8fc50098 	lw	a1,152(s8)
80400cbc:	10a200f1 	beq	a1,v0,80401084 <MenuPage05+0xc5c>
80400cc0:	00000000 	nop
80400cc4:	081004a8 	j	804012a0 <MenuPage05+0xe78>
80400cc8:	00000000 	nop
80400ccc:	3c020800 	lui	v0,0x800
80400cd0:	34424034 	ori	v0,v0,0x4034
80400cd4:	8fc30098 	lw	v1,152(s8)
80400cd8:	106200c6 	beq	v1,v0,80400ff4 <MenuPage05+0xbcc>
80400cdc:	00000000 	nop
80400ce0:	3c020800 	lui	v0,0x800
80400ce4:	34424035 	ori	v0,v0,0x4035
80400ce8:	8fc50098 	lw	a1,152(s8)
80400cec:	00a2102b 	sltu	v0,a1,v0
80400cf0:	10400012 	beqz	v0,80400d3c <MenuPage05+0x914>
80400cf4:	00000000 	nop
80400cf8:	3c020602 	lui	v0,0x602
80400cfc:	34425178 	ori	v0,v0,0x5178
80400d00:	8fc30098 	lw	v1,152(s8)
80400d04:	1062003d 	beq	v1,v0,80400dfc <MenuPage05+0x9d4>
80400d08:	00000000 	nop
80400d0c:	3c020605 	lui	v0,0x605
80400d10:	344277e0 	ori	v0,v0,0x77e0
80400d14:	8fc50098 	lw	a1,152(s8)
80400d18:	10a20041 	beq	a1,v0,80400e20 <MenuPage05+0x9f8>
80400d1c:	00000000 	nop
80400d20:	3c020602 	lui	v0,0x602
80400d24:	34420a04 	ori	v0,v0,0xa04
80400d28:	8fc30098 	lw	v1,152(s8)
80400d2c:	106200a8 	beq	v1,v0,80400fd0 <MenuPage05+0xba8>
80400d30:	00000000 	nop
80400d34:	081004a8 	j	804012a0 <MenuPage05+0xe78>
80400d38:	00000000 	nop
80400d3c:	3c020801 	lui	v0,0x801
80400d40:	3442da4c 	ori	v0,v0,0xda4c
80400d44:	8fc50098 	lw	a1,152(s8)
80400d48:	10a20047 	beq	a1,v0,80400e68 <MenuPage05+0xa40>
80400d4c:	00000000 	nop
80400d50:	3c020801 	lui	v0,0x801
80400d54:	3442da4d 	ori	v0,v0,0xda4d
80400d58:	8fc30098 	lw	v1,152(s8)
80400d5c:	0062102b 	sltu	v0,v1,v0
80400d60:	10400008 	beqz	v0,80400d84 <MenuPage05+0x95c>
80400d64:	00000000 	nop
80400d68:	3c020801 	lui	v0,0x801
80400d6c:	34421a64 	ori	v0,v0,0x1a64
80400d70:	8fc50098 	lw	a1,152(s8)
80400d74:	10a200de 	beq	a1,v0,804010f0 <MenuPage05+0xcc8>
80400d78:	00000000 	nop
80400d7c:	081004a8 	j	804012a0 <MenuPage05+0xe78>
80400d80:	00000000 	nop
80400d84:	3c020802 	lui	v0,0x802
80400d88:	3442396c 	ori	v0,v0,0x396c
80400d8c:	8fc30098 	lw	v1,152(s8)
80400d90:	10620008 	beq	v1,v0,80400db4 <MenuPage05+0x98c>
80400d94:	00000000 	nop
80400d98:	3c020c00 	lui	v0,0xc00
80400d9c:	3442c070 	ori	v0,v0,0xc070
80400da0:	8fc50098 	lw	a1,152(s8)
80400da4:	10a20039 	beq	a1,v0,80400e8c <MenuPage05+0xa64>
80400da8:	00000000 	nop
80400dac:	081004a8 	j	804012a0 <MenuPage05+0xe78>
80400db0:	00000000 	nop
80400db4:	24040019 	li	a0,25
80400db8:	240500b4 	li	a1,180
80400dbc:	3c028040 	lui	v0,0x8040
80400dc0:	244623fc 	addiu	a2,v0,9212
80400dc4:	00003821 	move	a3,zero
80400dc8:	0c0b58b6 	jal	802d62d8 <PrintInt>
80400dcc:	00000000 	nop
80400dd0:	081004c4 	j	80401310 <MenuPage05+0xee8>
80400dd4:	00000000 	nop
80400dd8:	24040019 	li	a0,25
80400ddc:	240500b4 	li	a1,180
80400de0:	3c028040 	lui	v0,0x8040
80400de4:	24462404 	addiu	a2,v0,9220
80400de8:	00003821 	move	a3,zero
80400dec:	0c0b58b6 	jal	802d62d8 <PrintInt>
80400df0:	00000000 	nop
80400df4:	081004c4 	j	80401310 <MenuPage05+0xee8>
80400df8:	00000000 	nop
80400dfc:	24040019 	li	a0,25
80400e00:	240500b4 	li	a1,180
80400e04:	3c028040 	lui	v0,0x8040
80400e08:	2446240c 	addiu	a2,v0,9228
80400e0c:	00003821 	move	a3,zero
80400e10:	0c0b58b6 	jal	802d62d8 <PrintInt>
80400e14:	00000000 	nop
80400e18:	081004c4 	j	80401310 <MenuPage05+0xee8>
80400e1c:	00000000 	nop
80400e20:	24040019 	li	a0,25
80400e24:	240500b4 	li	a1,180
80400e28:	3c028040 	lui	v0,0x8040
80400e2c:	24462418 	addiu	a2,v0,9240
80400e30:	00003821 	move	a3,zero
80400e34:	0c0b58b6 	jal	802d62d8 <PrintInt>
80400e38:	00000000 	nop
80400e3c:	081004c4 	j	80401310 <MenuPage05+0xee8>
80400e40:	00000000 	nop
80400e44:	24040019 	li	a0,25
80400e48:	240500b4 	li	a1,180
80400e4c:	3c028040 	lui	v0,0x8040
80400e50:	24462420 	addiu	a2,v0,9248
80400e54:	00003821 	move	a3,zero
80400e58:	0c0b58b6 	jal	802d62d8 <PrintInt>
80400e5c:	00000000 	nop
80400e60:	081004c4 	j	80401310 <MenuPage05+0xee8>
80400e64:	00000000 	nop
80400e68:	24040019 	li	a0,25
80400e6c:	240500b4 	li	a1,180
80400e70:	3c028040 	lui	v0,0x8040
80400e74:	24462428 	addiu	a2,v0,9256
80400e78:	00003821 	move	a3,zero
80400e7c:	0c0b58b6 	jal	802d62d8 <PrintInt>
80400e80:	00000000 	nop
80400e84:	081004c4 	j	80401310 <MenuPage05+0xee8>
80400e88:	00000000 	nop
80400e8c:	24040019 	li	a0,25
80400e90:	240500b4 	li	a1,180
80400e94:	3c028040 	lui	v0,0x8040
80400e98:	24462430 	addiu	a2,v0,9264
80400e9c:	00003821 	move	a3,zero
80400ea0:	0c0b58b6 	jal	802d62d8 <PrintInt>
80400ea4:	00000000 	nop
80400ea8:	081004c4 	j	80401310 <MenuPage05+0xee8>
80400eac:	00000000 	nop
80400eb0:	24040019 	li	a0,25
80400eb4:	240500b4 	li	a1,180
80400eb8:	3c028040 	lui	v0,0x8040
80400ebc:	24462438 	addiu	a2,v0,9272
80400ec0:	00003821 	move	a3,zero
80400ec4:	0c0b58b6 	jal	802d62d8 <PrintInt>
80400ec8:	00000000 	nop
80400ecc:	081004c4 	j	80401310 <MenuPage05+0xee8>
80400ed0:	00000000 	nop
80400ed4:	24040019 	li	a0,25
80400ed8:	240500b4 	li	a1,180
80400edc:	3c028040 	lui	v0,0x8040
80400ee0:	24462444 	addiu	a2,v0,9284
80400ee4:	00003821 	move	a3,zero
80400ee8:	0c0b58b6 	jal	802d62d8 <PrintInt>
80400eec:	00000000 	nop
80400ef0:	081004c4 	j	80401310 <MenuPage05+0xee8>
80400ef4:	00000000 	nop
80400ef8:	24040019 	li	a0,25
80400efc:	240500b4 	li	a1,180
80400f00:	3c028040 	lui	v0,0x8040
80400f04:	2446244c 	addiu	a2,v0,9292
80400f08:	00003821 	move	a3,zero
80400f0c:	0c0b58b6 	jal	802d62d8 <PrintInt>
80400f10:	00000000 	nop
80400f14:	081004c4 	j	80401310 <MenuPage05+0xee8>
80400f18:	00000000 	nop
80400f1c:	24040019 	li	a0,25
80400f20:	240500b4 	li	a1,180
80400f24:	3c028040 	lui	v0,0x8040
80400f28:	24462454 	addiu	a2,v0,9300
80400f2c:	00003821 	move	a3,zero
80400f30:	0c0b58b6 	jal	802d62d8 <PrintInt>
80400f34:	00000000 	nop
80400f38:	081004c4 	j	80401310 <MenuPage05+0xee8>
80400f3c:	00000000 	nop
80400f40:	24040019 	li	a0,25
80400f44:	240500b4 	li	a1,180
80400f48:	3c028040 	lui	v0,0x8040
80400f4c:	24462460 	addiu	a2,v0,9312
80400f50:	00003821 	move	a3,zero
80400f54:	0c0b58b6 	jal	802d62d8 <PrintInt>
80400f58:	00000000 	nop
80400f5c:	081004c4 	j	80401310 <MenuPage05+0xee8>
80400f60:	00000000 	nop
80400f64:	24040019 	li	a0,25
80400f68:	240500b4 	li	a1,180
80400f6c:	3c028040 	lui	v0,0x8040
80400f70:	24462468 	addiu	a2,v0,9320
80400f74:	00003821 	move	a3,zero
80400f78:	0c0b58b6 	jal	802d62d8 <PrintInt>
80400f7c:	00000000 	nop
80400f80:	081004c4 	j	80401310 <MenuPage05+0xee8>
80400f84:	00000000 	nop
80400f88:	24040019 	li	a0,25
80400f8c:	240500b4 	li	a1,180
80400f90:	3c028040 	lui	v0,0x8040
80400f94:	24462474 	addiu	a2,v0,9332
80400f98:	00003821 	move	a3,zero
80400f9c:	0c0b58b6 	jal	802d62d8 <PrintInt>
80400fa0:	00000000 	nop
80400fa4:	081004c4 	j	80401310 <MenuPage05+0xee8>
80400fa8:	00000000 	nop
80400fac:	24040019 	li	a0,25
80400fb0:	240500b4 	li	a1,180
80400fb4:	3c028040 	lui	v0,0x8040
80400fb8:	2446247c 	addiu	a2,v0,9340
80400fbc:	00003821 	move	a3,zero
80400fc0:	0c0b58b6 	jal	802d62d8 <PrintInt>
80400fc4:	00000000 	nop
80400fc8:	081004c4 	j	80401310 <MenuPage05+0xee8>
80400fcc:	00000000 	nop
80400fd0:	24040019 	li	a0,25
80400fd4:	240500b4 	li	a1,180
80400fd8:	3c028040 	lui	v0,0x8040
80400fdc:	24462484 	addiu	a2,v0,9348
80400fe0:	00003821 	move	a3,zero
80400fe4:	0c0b58b6 	jal	802d62d8 <PrintInt>
80400fe8:	00000000 	nop
80400fec:	081004c4 	j	80401310 <MenuPage05+0xee8>
80400ff0:	00000000 	nop
80400ff4:	24040019 	li	a0,25
80400ff8:	240500b4 	li	a1,180
80400ffc:	3c028040 	lui	v0,0x8040
80401000:	2446248c 	addiu	a2,v0,9356
80401004:	00003821 	move	a3,zero
80401008:	0c0b58b6 	jal	802d62d8 <PrintInt>
8040100c:	00000000 	nop
80401010:	081004c4 	j	80401310 <MenuPage05+0xee8>
80401014:	00000000 	nop
80401018:	24040019 	li	a0,25
8040101c:	240500b4 	li	a1,180
80401020:	3c028040 	lui	v0,0x8040
80401024:	24462490 	addiu	a2,v0,9360
80401028:	00003821 	move	a3,zero
8040102c:	0c0b58b6 	jal	802d62d8 <PrintInt>
80401030:	00000000 	nop
80401034:	081004c4 	j	80401310 <MenuPage05+0xee8>
80401038:	00000000 	nop
8040103c:	24040019 	li	a0,25
80401040:	240500b4 	li	a1,180
80401044:	3c028040 	lui	v0,0x8040
80401048:	2446249c 	addiu	a2,v0,9372
8040104c:	00003821 	move	a3,zero
80401050:	0c0b58b6 	jal	802d62d8 <PrintInt>
80401054:	00000000 	nop
80401058:	081004c4 	j	80401310 <MenuPage05+0xee8>
8040105c:	00000000 	nop
80401060:	24040019 	li	a0,25
80401064:	240500b4 	li	a1,180
80401068:	3c028040 	lui	v0,0x8040
8040106c:	244624a0 	addiu	a2,v0,9376
80401070:	00003821 	move	a3,zero
80401074:	0c0b58b6 	jal	802d62d8 <PrintInt>
80401078:	00000000 	nop
8040107c:	081004c4 	j	80401310 <MenuPage05+0xee8>
80401080:	00000000 	nop
80401084:	24040019 	li	a0,25
80401088:	240500b4 	li	a1,180
8040108c:	3c028040 	lui	v0,0x8040
80401090:	244624a8 	addiu	a2,v0,9384
80401094:	00003821 	move	a3,zero
80401098:	0c0b58b6 	jal	802d62d8 <PrintInt>
8040109c:	00000000 	nop
804010a0:	081004c4 	j	80401310 <MenuPage05+0xee8>
804010a4:	00000000 	nop
804010a8:	24040019 	li	a0,25
804010ac:	240500b4 	li	a1,180
804010b0:	3c028040 	lui	v0,0x8040
804010b4:	244624b0 	addiu	a2,v0,9392
804010b8:	00003821 	move	a3,zero
804010bc:	0c0b58b6 	jal	802d62d8 <PrintInt>
804010c0:	00000000 	nop
804010c4:	081004c4 	j	80401310 <MenuPage05+0xee8>
804010c8:	00000000 	nop
804010cc:	24040019 	li	a0,25
804010d0:	240500b4 	li	a1,180
804010d4:	3c028040 	lui	v0,0x8040
804010d8:	244624b8 	addiu	a2,v0,9400
804010dc:	00003821 	move	a3,zero
804010e0:	0c0b58b6 	jal	802d62d8 <PrintInt>
804010e4:	00000000 	nop
804010e8:	081004c4 	j	80401310 <MenuPage05+0xee8>
804010ec:	00000000 	nop
804010f0:	24040019 	li	a0,25
804010f4:	240500b4 	li	a1,180
804010f8:	3c028040 	lui	v0,0x8040
804010fc:	244624bc 	addiu	a2,v0,9404
80401100:	00003821 	move	a3,zero
80401104:	0c0b58b6 	jal	802d62d8 <PrintInt>
80401108:	00000000 	nop
8040110c:	081004c4 	j	80401310 <MenuPage05+0xee8>
80401110:	00000000 	nop
80401114:	24040019 	li	a0,25
80401118:	240500b4 	li	a1,180
8040111c:	3c028040 	lui	v0,0x8040
80401120:	244624c4 	addiu	a2,v0,9412
80401124:	00003821 	move	a3,zero
80401128:	0c0b58b6 	jal	802d62d8 <PrintInt>
8040112c:	00000000 	nop
80401130:	081004c4 	j	80401310 <MenuPage05+0xee8>
80401134:	00000000 	nop
80401138:	24040019 	li	a0,25
8040113c:	240500b4 	li	a1,180
80401140:	3c028040 	lui	v0,0x8040
80401144:	244624cc 	addiu	a2,v0,9420
80401148:	00003821 	move	a3,zero
8040114c:	0c0b58b6 	jal	802d62d8 <PrintInt>
80401150:	00000000 	nop
80401154:	081004c4 	j	80401310 <MenuPage05+0xee8>
80401158:	00000000 	nop
8040115c:	24040019 	li	a0,25
80401160:	240500b4 	li	a1,180
80401164:	3c028040 	lui	v0,0x8040
80401168:	244624d8 	addiu	a2,v0,9432
8040116c:	00003821 	move	a3,zero
80401170:	0c0b58b6 	jal	802d62d8 <PrintInt>
80401174:	00000000 	nop
80401178:	081004c4 	j	80401310 <MenuPage05+0xee8>
8040117c:	00000000 	nop
80401180:	24040019 	li	a0,25
80401184:	240500b4 	li	a1,180
80401188:	3c028040 	lui	v0,0x8040
8040118c:	244624e4 	addiu	a2,v0,9444
80401190:	00003821 	move	a3,zero
80401194:	0c0b58b6 	jal	802d62d8 <PrintInt>
80401198:	00000000 	nop
8040119c:	081004c4 	j	80401310 <MenuPage05+0xee8>
804011a0:	00000000 	nop
804011a4:	24040019 	li	a0,25
804011a8:	240500b4 	li	a1,180
804011ac:	3c028040 	lui	v0,0x8040
804011b0:	244624ec 	addiu	a2,v0,9452
804011b4:	00003821 	move	a3,zero
804011b8:	0c0b58b6 	jal	802d62d8 <PrintInt>
804011bc:	00000000 	nop
804011c0:	081004c4 	j	80401310 <MenuPage05+0xee8>
804011c4:	00000000 	nop
804011c8:	24040019 	li	a0,25
804011cc:	240500b4 	li	a1,180
804011d0:	3c028040 	lui	v0,0x8040
804011d4:	244624fc 	addiu	a2,v0,9468
804011d8:	00003821 	move	a3,zero
804011dc:	0c0b58b6 	jal	802d62d8 <PrintInt>
804011e0:	00000000 	nop
804011e4:	081004c4 	j	80401310 <MenuPage05+0xee8>
804011e8:	00000000 	nop
804011ec:	24040019 	li	a0,25
804011f0:	240500b4 	li	a1,180
804011f4:	3c028040 	lui	v0,0x8040
804011f8:	24462508 	addiu	a2,v0,9480
804011fc:	00003821 	move	a3,zero
80401200:	0c0b58b6 	jal	802d62d8 <PrintInt>
80401204:	00000000 	nop
80401208:	081004c4 	j	80401310 <MenuPage05+0xee8>
8040120c:	00000000 	nop
80401210:	24040019 	li	a0,25
80401214:	240500b4 	li	a1,180
80401218:	3c028040 	lui	v0,0x8040
8040121c:	24462518 	addiu	a2,v0,9496
80401220:	00003821 	move	a3,zero
80401224:	0c0b58b6 	jal	802d62d8 <PrintInt>
80401228:	00000000 	nop
8040122c:	081004c4 	j	80401310 <MenuPage05+0xee8>
80401230:	00000000 	nop
80401234:	24040019 	li	a0,25
80401238:	240500b4 	li	a1,180
8040123c:	3c028040 	lui	v0,0x8040
80401240:	24462520 	addiu	a2,v0,9504
80401244:	00003821 	move	a3,zero
80401248:	0c0b58b6 	jal	802d62d8 <PrintInt>
8040124c:	00000000 	nop
80401250:	081004c4 	j	80401310 <MenuPage05+0xee8>
80401254:	00000000 	nop
80401258:	24040019 	li	a0,25
8040125c:	240500b4 	li	a1,180
80401260:	3c028040 	lui	v0,0x8040
80401264:	24462528 	addiu	a2,v0,9512
80401268:	00003821 	move	a3,zero
8040126c:	0c0b58b6 	jal	802d62d8 <PrintInt>
80401270:	00000000 	nop
80401274:	081004c4 	j	80401310 <MenuPage05+0xee8>
80401278:	00000000 	nop
8040127c:	24040019 	li	a0,25
80401280:	240500b4 	li	a1,180
80401284:	3c028040 	lui	v0,0x8040
80401288:	24462534 	addiu	a2,v0,9524
8040128c:	00003821 	move	a3,zero
80401290:	0c0b58b6 	jal	802d62d8 <PrintInt>
80401294:	00000000 	nop
80401298:	081004c4 	j	80401310 <MenuPage05+0xee8>
8040129c:	00000000 	nop
804012a0:	8fc20024 	lw	v0,36(s8)
804012a4:	8c420120 	lw	v0,288(v0)
804012a8:	1040000a 	beqz	v0,804012d4 <MenuPage05+0xeac>
804012ac:	00000000 	nop
804012b0:	24040019 	li	a0,25
804012b4:	240500b4 	li	a1,180
804012b8:	3c028040 	lui	v0,0x8040
804012bc:	2446253c 	addiu	a2,v0,9532
804012c0:	00003821 	move	a3,zero
804012c4:	0c0b58b6 	jal	802d62d8 <PrintInt>
804012c8:	00000000 	nop
804012cc:	081004c4 	j	80401310 <MenuPage05+0xee8>
804012d0:	00000000 	nop
804012d4:	8fc20024 	lw	v0,36(s8)
804012d8:	8c420218 	lw	v0,536(v0)
804012dc:	14400005 	bnez	v0,804012f4 <MenuPage05+0xecc>
804012e0:	00000000 	nop
804012e4:	8fc20024 	lw	v0,36(s8)
804012e8:	8c42009c 	lw	v0,156(v0)
804012ec:	14400008 	bnez	v0,80401310 <MenuPage05+0xee8>
804012f0:	00000000 	nop
804012f4:	24040019 	li	a0,25
804012f8:	240500b4 	li	a1,180
804012fc:	3c028040 	lui	v0,0x8040
80401300:	24462548 	addiu	a2,v0,9544
80401304:	00003821 	move	a3,zero
80401308:	0c0b58b6 	jal	802d62d8 <PrintInt>
8040130c:	00000000 	nop
80401310:	8fc20024 	lw	v0,36(s8)
80401314:	8c43003c 	lw	v1,60(v0)
80401318:	3c0200ff 	lui	v0,0xff
8040131c:	3442ffff 	ori	v0,v0,0xffff
80401320:	00621824 	and	v1,v1,v0
80401324:	24040019 	li	a0,25
80401328:	24050064 	li	a1,100
8040132c:	3c028040 	lui	v0,0x8040
80401330:	24462554 	addiu	a2,v0,9556
80401334:	00603821 	move	a3,v1
80401338:	0c0b58b6 	jal	802d62d8 <PrintInt>
8040133c:	00000000 	nop
80401340:	8fc20024 	lw	v0,36(s8)
80401344:	8c50020c 	lw	s0,524(v0)
80401348:	24040013 	li	a0,19
8040134c:	0c09dfc8 	jal	80277f20 <GetSegmentBase>
80401350:	00000000 	nop
80401354:	02021023 	subu	v0,s0,v0
80401358:	3043ffff 	andi	v1,v0,0xffff
8040135c:	240400d2 	li	a0,210
80401360:	240500b4 	li	a1,180
80401364:	3c028040 	lui	v0,0x8040
80401368:	24462560 	addiu	a2,v0,9568
8040136c:	00603821 	move	a3,v1
80401370:	0c0b58b6 	jal	802d62d8 <PrintInt>
80401374:	00000000 	nop
80401378:	8fc20024 	lw	v0,36(s8)
8040137c:	8c420120 	lw	v0,288(v0)
80401380:	00402021 	move	a0,v0
80401384:	0c09dfd4 	jal	80277f50 <SegmentedToVirtual>
80401388:	00000000 	nop
8040138c:	00401821 	move	v1,v0
80401390:	3c0200ff 	lui	v0,0xff
80401394:	3442ffff 	ori	v0,v0,0xffff
80401398:	00621824 	and	v1,v1,v0
8040139c:	24040091 	li	a0,145
804013a0:	240500a0 	li	a1,160
804013a4:	3c028040 	lui	v0,0x8040
804013a8:	24462568 	addiu	a2,v0,9576
804013ac:	00603821 	move	a3,v1
804013b0:	0c0b58b6 	jal	802d62d8 <PrintInt>
804013b4:	00000000 	nop
804013b8:	8fc30024 	lw	v1,36(s8)
804013bc:	8f820004 	lw	v0,4(gp)
804013c0:	8c420088 	lw	v0,136(v0)
804013c4:	00602021 	move	a0,v1
804013c8:	00402821 	move	a1,v0
804013cc:	0c0a789f 	jal	8029e27c <DistanceFromObject>
804013d0:	00000000 	nop
804013d4:	4600000d 	trunc.w.s	$f0,$f0
804013d8:	44030000 	mfc1	v1,$f0
804013dc:	24040019 	li	a0,25
804013e0:	240500a0 	li	a1,160
804013e4:	3c028040 	lui	v0,0x8040
804013e8:	24462574 	addiu	a2,v0,9588
804013ec:	00603821 	move	a3,v1
804013f0:	0c0b58b6 	jal	802d62d8 <PrintInt>
804013f4:	00000000 	nop
804013f8:	8fc20024 	lw	v0,36(s8)
804013fc:	8c43014c 	lw	v1,332(v0)
80401400:	24040019 	li	a0,25
80401404:	2405008c 	li	a1,140
80401408:	3c028040 	lui	v0,0x8040
8040140c:	2446257c 	addiu	a2,v0,9596
80401410:	00603821 	move	a3,v1
80401414:	0c0b58b6 	jal	802d62d8 <PrintInt>
80401418:	00000000 	nop
8040141c:	8fc20024 	lw	v0,36(s8)
80401420:	94420040 	lhu	v0,64(v0)
80401424:	00401821 	move	v1,v0
80401428:	24040091 	li	a0,145
8040142c:	2405008c 	li	a1,140
80401430:	3c028040 	lui	v0,0x8040
80401434:	24462584 	addiu	a2,v0,9604
80401438:	00603821 	move	a3,v1
8040143c:	0c0b58b6 	jal	802d62d8 <PrintInt>
80401440:	00000000 	nop
80401444:	3c028033 	lui	v0,0x8033
80401448:	3442afac 	ori	v0,v0,0xafac
8040144c:	afc20020 	sw	v0,32(s8)
80401450:	8fc20024 	lw	v0,36(s8)
80401454:	8c4200c8 	lw	v0,200(v0)
80401458:	00401821 	move	v1,v0
8040145c:	3c02b60b 	lui	v0,0xb60b
80401460:	344260b7 	ori	v0,v0,0x60b7
80401464:	00620018 	mult	v1,v0
80401468:	00001010 	mfhi	v0
8040146c:	00431021 	addu	v0,v0,v1
80401470:	000221c3 	sra	a0,v0,0x7
80401474:	000317c3 	sra	v0,v1,0x1f
80401478:	00821023 	subu	v0,a0,v0
8040147c:	244200b4 	addiu	v0,v0,180
80401480:	afc2001c 	sw	v0,28(s8)
80401484:	afc00018 	sw	zero,24(s8)
80401488:	8fc2001c 	lw	v0,28(s8)
8040148c:	04410002 	bgez	v0,80401498 <MenuPage05+0x1070>
80401490:	00000000 	nop
80401494:	afc0001c 	sw	zero,28(s8)
80401498:	8fc2001c 	lw	v0,28(s8)
8040149c:	28420169 	slti	v0,v0,361
804014a0:	14400003 	bnez	v0,804014b0 <MenuPage05+0x1088>
804014a4:	00000000 	nop
804014a8:	24020168 	li	v0,360
804014ac:	afc2001c 	sw	v0,28(s8)
804014b0:	8fc30024 	lw	v1,36(s8)
804014b4:	3c0200ff 	lui	v0,0xff
804014b8:	3442ffff 	ori	v0,v0,0xffff
804014bc:	00621824 	and	v1,v1,v0
804014c0:	24040014 	li	a0,20
804014c4:	24050078 	li	a1,120
804014c8:	3c028040 	lui	v0,0x8040
804014cc:	24462590 	addiu	a2,v0,9616
804014d0:	00603821 	move	a3,v1
804014d4:	0c0b58b6 	jal	802d62d8 <PrintInt>
804014d8:	00000000 	nop
804014dc:	8fc3001c 	lw	v1,28(s8)
804014e0:	2404009b 	li	a0,155
804014e4:	24050078 	li	a1,120
804014e8:	3c028040 	lui	v0,0x8040
804014ec:	24462598 	addiu	a2,v0,9624
804014f0:	00603821 	move	a3,v1
804014f4:	0c0b58b6 	jal	802d62d8 <PrintInt>
804014f8:	00000000 	nop
804014fc:	8fc2001c 	lw	v0,28(s8)
80401500:	04400011 	bltz	v0,80401548 <MenuPage05+0x1120>
80401504:	00000000 	nop
80401508:	8fc2001c 	lw	v0,28(s8)
8040150c:	2842005a 	slti	v0,v0,90
80401510:	1040000d 	beqz	v0,80401548 <MenuPage05+0x1120>
80401514:	00000000 	nop
80401518:	8fc2001c 	lw	v0,28(s8)
8040151c:	2404010e 	li	a0,270
80401520:	24050078 	li	a1,120
80401524:	3c038040 	lui	v1,0x8040
80401528:	246625a0 	addiu	a2,v1,9632
8040152c:	00403821 	move	a3,v0
80401530:	0c0b58b6 	jal	802d62d8 <PrintInt>
80401534:	00000000 	nop
80401538:	24020001 	li	v0,1
8040153c:	afc20018 	sw	v0,24(s8)
80401540:	0810058c 	j	80401630 <MenuPage05+0x1208>
80401544:	00000000 	nop
80401548:	8fc2001c 	lw	v0,28(s8)
8040154c:	2842005a 	slti	v0,v0,90
80401550:	14400011 	bnez	v0,80401598 <MenuPage05+0x1170>
80401554:	00000000 	nop
80401558:	8fc2001c 	lw	v0,28(s8)
8040155c:	284200b4 	slti	v0,v0,180
80401560:	1040000d 	beqz	v0,80401598 <MenuPage05+0x1170>
80401564:	00000000 	nop
80401568:	8fc2001c 	lw	v0,28(s8)
8040156c:	2404010e 	li	a0,270
80401570:	24050078 	li	a1,120
80401574:	3c038040 	lui	v1,0x8040
80401578:	246625a4 	addiu	a2,v1,9636
8040157c:	00403821 	move	a3,v0
80401580:	0c0b58b6 	jal	802d62d8 <PrintInt>
80401584:	00000000 	nop
80401588:	24020002 	li	v0,2
8040158c:	afc20018 	sw	v0,24(s8)
80401590:	0810058c 	j	80401630 <MenuPage05+0x1208>
80401594:	00000000 	nop
80401598:	8fc2001c 	lw	v0,28(s8)
8040159c:	284200b4 	slti	v0,v0,180
804015a0:	14400011 	bnez	v0,804015e8 <MenuPage05+0x11c0>
804015a4:	00000000 	nop
804015a8:	8fc2001c 	lw	v0,28(s8)
804015ac:	2842010e 	slti	v0,v0,270
804015b0:	1040000d 	beqz	v0,804015e8 <MenuPage05+0x11c0>
804015b4:	00000000 	nop
804015b8:	8fc2001c 	lw	v0,28(s8)
804015bc:	2404010e 	li	a0,270
804015c0:	24050078 	li	a1,120
804015c4:	3c038040 	lui	v1,0x8040
804015c8:	246625a8 	addiu	a2,v1,9640
804015cc:	00403821 	move	a3,v0
804015d0:	0c0b58b6 	jal	802d62d8 <PrintInt>
804015d4:	00000000 	nop
804015d8:	24020003 	li	v0,3
804015dc:	afc20018 	sw	v0,24(s8)
804015e0:	0810058c 	j	80401630 <MenuPage05+0x1208>
804015e4:	00000000 	nop
804015e8:	8fc2001c 	lw	v0,28(s8)
804015ec:	2842010e 	slti	v0,v0,270
804015f0:	1440000f 	bnez	v0,80401630 <MenuPage05+0x1208>
804015f4:	00000000 	nop
804015f8:	8fc2001c 	lw	v0,28(s8)
804015fc:	28420169 	slti	v0,v0,361
80401600:	1040000b 	beqz	v0,80401630 <MenuPage05+0x1208>
80401604:	00000000 	nop
80401608:	8fc2001c 	lw	v0,28(s8)
8040160c:	2404010e 	li	a0,270
80401610:	24050078 	li	a1,120
80401614:	3c038040 	lui	v1,0x8040
80401618:	246625ac 	addiu	a2,v1,9644
8040161c:	00403821 	move	a3,v0
80401620:	0c0b58b6 	jal	802d62d8 <PrintInt>
80401624:	00000000 	nop
80401628:	24020004 	li	v0,4
8040162c:	afc20018 	sw	v0,24(s8)
80401630:	8fc20020 	lw	v0,32(s8)
80401634:	c4420004 	lwc1	$f2,4(v0)
80401638:	44800000 	mtc1	zero,$f0
8040163c:	00000000 	nop
80401640:	46001032 	c.eq.s	$f2,$f0
80401644:	00000000 	nop
80401648:	45000009 	bc1f	80401670 <MenuPage05+0x1248>
8040164c:	00000000 	nop
80401650:	8fc20020 	lw	v0,32(s8)
80401654:	c4420008 	lwc1	$f2,8(v0)
80401658:	44800000 	mtc1	zero,$f0
8040165c:	00000000 	nop
80401660:	46001032 	c.eq.s	$f2,$f0
80401664:	00000000 	nop
80401668:	4501001b 	bc1t	804016d8 <MenuPage05+0x12b0>
8040166c:	00000000 	nop
80401670:	8fc20020 	lw	v0,32(s8)
80401674:	8c430008 	lw	v1,8(v0)
80401678:	3c028000 	lui	v0,0x8000
8040167c:	00621826 	xor	v1,v1,v0
80401680:	8fc20020 	lw	v0,32(s8)
80401684:	c4400004 	lwc1	$f0,4(v0)
80401688:	44836000 	mtc1	v1,$f12
8040168c:	46000386 	mov.s	$f14,$f0
80401690:	0c0dea6a 	jal	8037a9a8 <_8037a9a8>
80401694:	00000000 	nop
80401698:	00401821 	move	v1,v0
8040169c:	8fc20024 	lw	v0,36(s8)
804016a0:	ac4300c8 	sw	v1,200(v0)
804016a4:	8fc20020 	lw	v0,32(s8)
804016a8:	8c430008 	lw	v1,8(v0)
804016ac:	3c028000 	lui	v0,0x8000
804016b0:	00621826 	xor	v1,v1,v0
804016b4:	8fc20020 	lw	v0,32(s8)
804016b8:	c4400004 	lwc1	$f0,4(v0)
804016bc:	44836000 	mtc1	v1,$f12
804016c0:	46000386 	mov.s	$f14,$f0
804016c4:	0c0dea6a 	jal	8037a9a8 <_8037a9a8>
804016c8:	00000000 	nop
804016cc:	00401821 	move	v1,v0
804016d0:	8fc20024 	lw	v0,36(s8)
804016d4:	ac4300d4 	sw	v1,212(v0)
804016d8:	8fc20018 	lw	v0,24(s8)
804016dc:	afc200c4 	sw	v0,196(s8)
804016e0:	24020002 	li	v0,2
804016e4:	8fc300c4 	lw	v1,196(s8)
804016e8:	10620043 	beq	v1,v0,804017f8 <MenuPage05+0x13d0>
804016ec:	00000000 	nop
804016f0:	8fc500c4 	lw	a1,196(s8)
804016f4:	28a20003 	slti	v0,a1,3
804016f8:	10400007 	beqz	v0,80401718 <MenuPage05+0x12f0>
804016fc:	00000000 	nop
80401700:	24020001 	li	v0,1
80401704:	8fc300c4 	lw	v1,196(s8)
80401708:	1062000d 	beq	v1,v0,80401740 <MenuPage05+0x1318>
8040170c:	00000000 	nop
80401710:	08100686 	j	80401a18 <MenuPage05+0x15f0>
80401714:	00000000 	nop
80401718:	24020003 	li	v0,3
8040171c:	8fc500c4 	lw	a1,196(s8)
80401720:	10a20063 	beq	a1,v0,804018b0 <MenuPage05+0x1488>
80401724:	00000000 	nop
80401728:	24020004 	li	v0,4
8040172c:	8fc300c4 	lw	v1,196(s8)
80401730:	1062008d 	beq	v1,v0,80401968 <MenuPage05+0x1540>
80401734:	00000000 	nop
80401738:	08100686 	j	80401a18 <MenuPage05+0x15f0>
8040173c:	00000000 	nop
80401740:	8fc20024 	lw	v0,36(s8)
80401744:	c45400a8 	lwc1	$f20,168(v0)
80401748:	8fc20020 	lw	v0,32(s8)
8040174c:	c4400008 	lwc1	$f0,8(v0)
80401750:	4600000d 	trunc.w.s	$f0,$f0
80401754:	468000a0 	cvt.s.w	$f2,$f0
80401758:	c7800094 	lwc1	$f0,148(gp)
8040175c:	46001582 	mul.s	$f22,$f2,$f0
80401760:	c7c0001c 	lwc1	$f0,28(s8)
80401764:	468000a1 	cvt.d.w	$f2,$f0
80401768:	d7800098 	ldc1	$f0,152(gp)
8040176c:	46201082 	mul.d	$f2,$f2,$f0
80401770:	d78000a0 	ldc1	$f0,160(gp)
80401774:	46201003 	div.d	$f0,$f2,$f0
80401778:	46200020 	cvt.s.d	$f0,$f0
8040177c:	46000306 	mov.s	$f12,$f0
80401780:	0c0c94c4 	jal	80325310 <cosf>
80401784:	00000000 	nop
80401788:	4600b002 	mul.s	$f0,$f22,$f0
8040178c:	4600a000 	add.s	$f0,$f20,$f0
80401790:	8fc20024 	lw	v0,36(s8)
80401794:	e44000a8 	swc1	$f0,168(v0)
80401798:	8fc20024 	lw	v0,36(s8)
8040179c:	c45400a0 	lwc1	$f20,160(v0)
804017a0:	8fc20020 	lw	v0,32(s8)
804017a4:	c4400008 	lwc1	$f0,8(v0)
804017a8:	4600000d 	trunc.w.s	$f0,$f0
804017ac:	468000a0 	cvt.s.w	$f2,$f0
804017b0:	c7800094 	lwc1	$f0,148(gp)
804017b4:	46001582 	mul.s	$f22,$f2,$f0
804017b8:	c7c0001c 	lwc1	$f0,28(s8)
804017bc:	468000a1 	cvt.d.w	$f2,$f0
804017c0:	d7800098 	ldc1	$f0,152(gp)
804017c4:	46201082 	mul.d	$f2,$f2,$f0
804017c8:	d78000a0 	ldc1	$f0,160(gp)
804017cc:	46201003 	div.d	$f0,$f2,$f0
804017d0:	46200020 	cvt.s.d	$f0,$f0
804017d4:	46000306 	mov.s	$f12,$f0
804017d8:	0c0c9520 	jal	80325480 <sinf>
804017dc:	00000000 	nop
804017e0:	4600b002 	mul.s	$f0,$f22,$f0
804017e4:	4600a000 	add.s	$f0,$f20,$f0
804017e8:	8fc20024 	lw	v0,36(s8)
804017ec:	e44000a0 	swc1	$f0,160(v0)
804017f0:	08100686 	j	80401a18 <MenuPage05+0x15f0>
804017f4:	00000000 	nop
804017f8:	8fc20024 	lw	v0,36(s8)
804017fc:	c45400a8 	lwc1	$f20,168(v0)
80401800:	8fc20020 	lw	v0,32(s8)
80401804:	c4400004 	lwc1	$f0,4(v0)
80401808:	4600000d 	trunc.w.s	$f0,$f0
8040180c:	468000a0 	cvt.s.w	$f2,$f0
80401810:	c78000a8 	lwc1	$f0,168(gp)
80401814:	46001582 	mul.s	$f22,$f2,$f0
80401818:	c7c0001c 	lwc1	$f0,28(s8)
8040181c:	468000a1 	cvt.d.w	$f2,$f0
80401820:	d7800098 	ldc1	$f0,152(gp)
80401824:	46201082 	mul.d	$f2,$f2,$f0
80401828:	d78000a0 	ldc1	$f0,160(gp)
8040182c:	46201003 	div.d	$f0,$f2,$f0
80401830:	46200020 	cvt.s.d	$f0,$f0
80401834:	46000306 	mov.s	$f12,$f0
80401838:	0c0c94c4 	jal	80325310 <cosf>
8040183c:	00000000 	nop
80401840:	4600b002 	mul.s	$f0,$f22,$f0
80401844:	4600a000 	add.s	$f0,$f20,$f0
80401848:	8fc20024 	lw	v0,36(s8)
8040184c:	e44000a8 	swc1	$f0,168(v0)
80401850:	8fc20024 	lw	v0,36(s8)
80401854:	c45400a0 	lwc1	$f20,160(v0)
80401858:	8fc20020 	lw	v0,32(s8)
8040185c:	c4400004 	lwc1	$f0,4(v0)
80401860:	4600000d 	trunc.w.s	$f0,$f0
80401864:	468000a0 	cvt.s.w	$f2,$f0
80401868:	c78000a8 	lwc1	$f0,168(gp)
8040186c:	46001582 	mul.s	$f22,$f2,$f0
80401870:	c7c0001c 	lwc1	$f0,28(s8)
80401874:	468000a1 	cvt.d.w	$f2,$f0
80401878:	d7800098 	ldc1	$f0,152(gp)
8040187c:	46201082 	mul.d	$f2,$f2,$f0
80401880:	d78000a0 	ldc1	$f0,160(gp)
80401884:	46201003 	div.d	$f0,$f2,$f0
80401888:	46200020 	cvt.s.d	$f0,$f0
8040188c:	46000306 	mov.s	$f12,$f0
80401890:	0c0c9520 	jal	80325480 <sinf>
80401894:	00000000 	nop
80401898:	4600b002 	mul.s	$f0,$f22,$f0
8040189c:	4600a000 	add.s	$f0,$f20,$f0
804018a0:	8fc20024 	lw	v0,36(s8)
804018a4:	e44000a0 	swc1	$f0,160(v0)
804018a8:	08100686 	j	80401a18 <MenuPage05+0x15f0>
804018ac:	00000000 	nop
804018b0:	8fc20024 	lw	v0,36(s8)
804018b4:	c45400a8 	lwc1	$f20,168(v0)
804018b8:	8fc20020 	lw	v0,32(s8)
804018bc:	c4400008 	lwc1	$f0,8(v0)
804018c0:	4600000d 	trunc.w.s	$f0,$f0
804018c4:	468000a0 	cvt.s.w	$f2,$f0
804018c8:	c78000a8 	lwc1	$f0,168(gp)
804018cc:	46001582 	mul.s	$f22,$f2,$f0
804018d0:	c7c0001c 	lwc1	$f0,28(s8)
804018d4:	468000a1 	cvt.d.w	$f2,$f0
804018d8:	d7800098 	ldc1	$f0,152(gp)
804018dc:	46201082 	mul.d	$f2,$f2,$f0
804018e0:	d78000a0 	ldc1	$f0,160(gp)
804018e4:	46201003 	div.d	$f0,$f2,$f0
804018e8:	46200020 	cvt.s.d	$f0,$f0
804018ec:	46000306 	mov.s	$f12,$f0
804018f0:	0c0c94c4 	jal	80325310 <cosf>
804018f4:	00000000 	nop
804018f8:	4600b002 	mul.s	$f0,$f22,$f0
804018fc:	4600a000 	add.s	$f0,$f20,$f0
80401900:	8fc20024 	lw	v0,36(s8)
80401904:	e44000a8 	swc1	$f0,168(v0)
80401908:	8fc20024 	lw	v0,36(s8)
8040190c:	c45400a0 	lwc1	$f20,160(v0)
80401910:	8fc20020 	lw	v0,32(s8)
80401914:	c4400008 	lwc1	$f0,8(v0)
80401918:	4600000d 	trunc.w.s	$f0,$f0
8040191c:	468000a0 	cvt.s.w	$f2,$f0
80401920:	c78000a8 	lwc1	$f0,168(gp)
80401924:	46001582 	mul.s	$f22,$f2,$f0
80401928:	c7c0001c 	lwc1	$f0,28(s8)
8040192c:	468000a1 	cvt.d.w	$f2,$f0
80401930:	d7800098 	ldc1	$f0,152(gp)
80401934:	46201082 	mul.d	$f2,$f2,$f0
80401938:	d78000a0 	ldc1	$f0,160(gp)
8040193c:	46201003 	div.d	$f0,$f2,$f0
80401940:	46200020 	cvt.s.d	$f0,$f0
80401944:	46000306 	mov.s	$f12,$f0
80401948:	0c0c9520 	jal	80325480 <sinf>
8040194c:	00000000 	nop
80401950:	4600b002 	mul.s	$f0,$f22,$f0
80401954:	4600a000 	add.s	$f0,$f20,$f0
80401958:	8fc20024 	lw	v0,36(s8)
8040195c:	e44000a0 	swc1	$f0,160(v0)
80401960:	08100686 	j	80401a18 <MenuPage05+0x15f0>
80401964:	00000000 	nop
80401968:	8fc20024 	lw	v0,36(s8)
8040196c:	c45400a8 	lwc1	$f20,168(v0)
80401970:	8fc20020 	lw	v0,32(s8)
80401974:	c4400004 	lwc1	$f0,4(v0)
80401978:	4600000d 	trunc.w.s	$f0,$f0
8040197c:	468000a0 	cvt.s.w	$f2,$f0
80401980:	c7800094 	lwc1	$f0,148(gp)
80401984:	46001582 	mul.s	$f22,$f2,$f0
80401988:	c7c0001c 	lwc1	$f0,28(s8)
8040198c:	468000a1 	cvt.d.w	$f2,$f0
80401990:	d7800098 	ldc1	$f0,152(gp)
80401994:	46201082 	mul.d	$f2,$f2,$f0
80401998:	d78000a0 	ldc1	$f0,160(gp)
8040199c:	46201003 	div.d	$f0,$f2,$f0
804019a0:	46200020 	cvt.s.d	$f0,$f0
804019a4:	46000306 	mov.s	$f12,$f0
804019a8:	0c0c94c4 	jal	80325310 <cosf>
804019ac:	00000000 	nop
804019b0:	4600b002 	mul.s	$f0,$f22,$f0
804019b4:	4600a000 	add.s	$f0,$f20,$f0
804019b8:	8fc20024 	lw	v0,36(s8)
804019bc:	e44000a8 	swc1	$f0,168(v0)
804019c0:	8fc20024 	lw	v0,36(s8)
804019c4:	c45400a0 	lwc1	$f20,160(v0)
804019c8:	8fc20020 	lw	v0,32(s8)
804019cc:	c4400004 	lwc1	$f0,4(v0)
804019d0:	4600000d 	trunc.w.s	$f0,$f0
804019d4:	468000a0 	cvt.s.w	$f2,$f0
804019d8:	c7800094 	lwc1	$f0,148(gp)
804019dc:	46001582 	mul.s	$f22,$f2,$f0
804019e0:	c7c0001c 	lwc1	$f0,28(s8)
804019e4:	468000a1 	cvt.d.w	$f2,$f0
804019e8:	d7800098 	ldc1	$f0,152(gp)
804019ec:	46201082 	mul.d	$f2,$f2,$f0
804019f0:	d78000a0 	ldc1	$f0,160(gp)
804019f4:	46201003 	div.d	$f0,$f2,$f0
804019f8:	46200020 	cvt.s.d	$f0,$f0
804019fc:	46000306 	mov.s	$f12,$f0
80401a00:	0c0c9520 	jal	80325480 <sinf>
80401a04:	00000000 	nop
80401a08:	4600b002 	mul.s	$f0,$f22,$f0
80401a0c:	4600a000 	add.s	$f0,$f20,$f0
80401a10:	8fc20024 	lw	v0,36(s8)
80401a14:	e44000a0 	swc1	$f0,160(v0)
80401a18:	8fc20020 	lw	v0,32(s8)
80401a1c:	94420010 	lhu	v0,16(v0)
80401a20:	00021400 	sll	v0,v0,0x10
80401a24:	00021403 	sra	v0,v0,0x10
80401a28:	04410007 	bgez	v0,80401a48 <MenuPage05+0x1620>
80401a2c:	00000000 	nop
80401a30:	8fc20024 	lw	v0,36(s8)
80401a34:	c44200a4 	lwc1	$f2,164(v0)
80401a38:	c78000ac 	lwc1	$f0,172(gp)
80401a3c:	46001000 	add.s	$f0,$f2,$f0
80401a40:	8fc20024 	lw	v0,36(s8)
80401a44:	e44000a4 	swc1	$f0,164(v0)
80401a48:	8f830070 	lw	v1,112(gp)
80401a4c:	8f820070 	lw	v0,112(gp)
80401a50:	8c420000 	lw	v0,0(v0)
80401a54:	24420001 	addiu	v0,v0,1
80401a58:	ac620000 	sw	v0,0(v1)
80401a5c:	8fc20020 	lw	v0,32(s8)
80401a60:	94420010 	lhu	v0,16(v0)
80401a64:	30424000 	andi	v0,v0,0x4000
80401a68:	1040002a 	beqz	v0,80401b14 <MenuPage05+0x16ec>
80401a6c:	00000000 	nop
80401a70:	8f820070 	lw	v0,112(gp)
80401a74:	8c420000 	lw	v0,0(v0)
80401a78:	28420029 	slti	v0,v0,41
80401a7c:	14400025 	bnez	v0,80401b14 <MenuPage05+0x16ec>
80401a80:	00000000 	nop
80401a84:	8f82000c 	lw	v0,12(gp)
80401a88:	8c420000 	lw	v0,0(v0)
80401a8c:	afc2005c 	sw	v0,92(s8)
80401a90:	8f83000c 	lw	v1,12(gp)
80401a94:	8fc20024 	lw	v0,36(s8)
80401a98:	ac620000 	sw	v0,0(v1)
80401a9c:	8f820008 	lw	v0,8(gp)
80401aa0:	8c420000 	lw	v0,0(v0)
80401aa4:	00402021 	move	a0,v0
80401aa8:	24050090 	li	a1,144
80401aac:	3c021300 	lui	v0,0x1300
80401ab0:	34461184 	ori	a2,v0,0x1184
80401ab4:	0c0a7b73 	jal	8029edcc <SpawnObj>
80401ab8:	00000000 	nop
80401abc:	afc20014 	sw	v0,20(s8)
80401ac0:	8fc20014 	lw	v0,20(s8)
80401ac4:	c78000b0 	lwc1	$f0,176(gp)
80401ac8:	e440002c 	swc1	$f0,44(v0)
80401acc:	8fc20014 	lw	v0,20(s8)
80401ad0:	c78000b0 	lwc1	$f0,176(gp)
80401ad4:	e4400030 	swc1	$f0,48(v0)
80401ad8:	8fc20014 	lw	v0,20(s8)
80401adc:	c78000b0 	lwc1	$f0,176(gp)
80401ae0:	e4400034 	swc1	$f0,52(v0)
80401ae4:	8fc20014 	lw	v0,20(s8)
80401ae8:	c78000ac 	lwc1	$f0,172(gp)
80401aec:	e44000b8 	swc1	$f0,184(v0)
80401af0:	3c026008 	lui	v0,0x6008
80401af4:	34446001 	ori	a0,v0,0x6001
80401af8:	0c0b2864 	jal	802ca190 <PlaySound>
80401afc:	00000000 	nop
80401b00:	8f83000c 	lw	v1,12(gp)
80401b04:	8fc2005c 	lw	v0,92(s8)
80401b08:	ac620000 	sw	v0,0(v1)
80401b0c:	8f820070 	lw	v0,112(gp)
80401b10:	ac400000 	sw	zero,0(v0)
80401b14:	8fc20024 	lw	v0,36(s8)
80401b18:	94420074 	lhu	v0,116(v0)
80401b1c:	10400008 	beqz	v0,80401b40 <MenuPage05+0x1718>
80401b20:	00000000 	nop
80401b24:	8f820044 	lw	v0,68(gp)
80401b28:	8c420000 	lw	v0,0(v0)
80401b2c:	00401821 	move	v1,v0
80401b30:	8fc20024 	lw	v0,36(s8)
80401b34:	8c42020c 	lw	v0,524(v0)
80401b38:	10620003 	beq	v1,v0,80401b48 <MenuPage05+0x1720>
80401b3c:	00000000 	nop
80401b40:	8fc20044 	lw	v0,68(s8)
80401b44:	ac400000 	sw	zero,0(v0)
80401b48:	8fc40024 	lw	a0,36(s8)
80401b4c:	0c100778 	jal	80401de0 <CheckFireCollision>
80401b50:	00000000 	nop
80401b54:	8fc20020 	lw	v0,32(s8)
80401b58:	94420010 	lhu	v0,16(v0)
80401b5c:	30422000 	andi	v0,v0,0x2000
80401b60:	10400030 	beqz	v0,80401c24 <MenuPage05+0x17fc>
80401b64:	00000000 	nop
80401b68:	8f820018 	lw	v0,24(gp)
80401b6c:	8c420000 	lw	v0,0(v0)
80401b70:	28420010 	slti	v0,v0,16
80401b74:	1440002b 	bnez	v0,80401c24 <MenuPage05+0x17fc>
80401b78:	00000000 	nop
80401b7c:	8f820074 	lw	v0,116(gp)
80401b80:	8c420000 	lw	v0,0(v0)
80401b84:	14400006 	bnez	v0,80401ba0 <MenuPage05+0x1778>
80401b88:	00000000 	nop
80401b8c:	8f830074 	lw	v1,116(gp)
80401b90:	24020001 	li	v0,1
80401b94:	ac620000 	sw	v0,0(v1)
80401b98:	081006ef 	j	80401bbc <MenuPage05+0x1794>
80401b9c:	00000000 	nop
80401ba0:	8f820074 	lw	v0,116(gp)
80401ba4:	8c430000 	lw	v1,0(v0)
80401ba8:	24020001 	li	v0,1
80401bac:	14620003 	bne	v1,v0,80401bbc <MenuPage05+0x1794>
80401bb0:	00000000 	nop
80401bb4:	8f820074 	lw	v0,116(gp)
80401bb8:	ac400000 	sw	zero,0(v0)
80401bbc:	8f820084 	lw	v0,132(gp)
80401bc0:	8c430008 	lw	v1,8(v0)
80401bc4:	8fc20024 	lw	v0,36(s8)
80401bc8:	ac43003c 	sw	v1,60(v0)
80401bcc:	8f82000c 	lw	v0,12(gp)
80401bd0:	8c420000 	lw	v0,0(v0)
80401bd4:	afc2005c 	sw	v0,92(s8)
80401bd8:	8f83000c 	lw	v1,12(gp)
80401bdc:	8fc20024 	lw	v0,36(s8)
80401be0:	ac620000 	sw	v0,0(v1)
80401be4:	24040001 	li	a0,1
80401be8:	0c0a8130 	jal	802a04c0 <SetModel>
80401bec:	00000000 	nop
80401bf0:	8f830084 	lw	v1,132(gp)
80401bf4:	8f82007c 	lw	v0,124(gp)
80401bf8:	8c420000 	lw	v0,0(v0)
80401bfc:	3042ffff 	andi	v0,v0,0xffff
80401c00:	00602021 	move	a0,v1
80401c04:	00402821 	move	a1,v0
80401c08:	0c09e421 	jal	80279084 <SetMarioAnimation>
80401c0c:	00000000 	nop
80401c10:	8f83000c 	lw	v1,12(gp)
80401c14:	8fc2005c 	lw	v0,92(s8)
80401c18:	ac620000 	sw	v0,0(v1)
80401c1c:	8f820018 	lw	v0,24(gp)
80401c20:	ac400000 	sw	zero,0(v0)
80401c24:	24040014 	li	a0,20
80401c28:	24050014 	li	a1,20
80401c2c:	3c028040 	lui	v0,0x8040
80401c30:	244625b0 	addiu	a2,v0,9648
80401c34:	00003821 	move	a3,zero
80401c38:	0c0b58b6 	jal	802d62d8 <PrintInt>
80401c3c:	00000000 	nop
80401c40:	8f820074 	lw	v0,116(gp)
80401c44:	8c430000 	lw	v1,0(v0)
80401c48:	24020001 	li	v0,1
80401c4c:	1462001c 	bne	v1,v0,80401cc0 <MenuPage05+0x1898>
80401c50:	00000000 	nop
80401c54:	8f830078 	lw	v1,120(gp)
80401c58:	8fc20024 	lw	v0,36(s8)
80401c5c:	ac620000 	sw	v0,0(v1)
80401c60:	8f820004 	lw	v0,4(gp)
80401c64:	8c420094 	lw	v0,148(v0)
80401c68:	afc20010 	sw	v0,16(s8)
80401c6c:	8fc20024 	lw	v0,36(s8)
80401c70:	c44000a0 	lwc1	$f0,160(v0)
80401c74:	8fc20010 	lw	v0,16(s8)
80401c78:	e4400004 	swc1	$f0,4(v0)
80401c7c:	8fc20024 	lw	v0,36(s8)
80401c80:	c44000a4 	lwc1	$f0,164(v0)
80401c84:	8fc20010 	lw	v0,16(s8)
80401c88:	e4400008 	swc1	$f0,8(v0)
80401c8c:	8fc20024 	lw	v0,36(s8)
80401c90:	c44000a8 	lwc1	$f0,168(v0)
80401c94:	8fc20010 	lw	v0,16(s8)
80401c98:	e440000c 	swc1	$f0,12(v0)
80401c9c:	2404006e 	li	a0,110
80401ca0:	24050014 	li	a1,20
80401ca4:	3c028040 	lui	v0,0x8040
80401ca8:	244625b8 	addiu	a2,v0,9656
80401cac:	00003821 	move	a3,zero
80401cb0:	0c0b58b6 	jal	802d62d8 <PrintInt>
80401cb4:	00000000 	nop
80401cb8:	08100737 	j	80401cdc <MenuPage05+0x18b4>
80401cbc:	00000000 	nop
80401cc0:	2404006e 	li	a0,110
80401cc4:	24050014 	li	a1,20
80401cc8:	3c028040 	lui	v0,0x8040
80401ccc:	244625bc 	addiu	a2,v0,9660
80401cd0:	00003821 	move	a3,zero
80401cd4:	0c0b58b6 	jal	802d62d8 <PrintInt>
80401cd8:	00000000 	nop
80401cdc:	8fc20024 	lw	v0,36(s8)
80401ce0:	ac40015c 	sw	zero,348(v0)
80401ce4:	8fc20024 	lw	v0,36(s8)
80401ce8:	c78000b4 	lwc1	$f0,180(gp)
80401cec:	e4400194 	swc1	$f0,404(v0)
80401cf0:	8fc20024 	lw	v0,36(s8)
80401cf4:	c78000b4 	lwc1	$f0,180(gp)
80401cf8:	e440019c 	swc1	$f0,412(v0)
80401cfc:	8f820004 	lw	v0,4(gp)
80401d00:	8c420088 	lw	v0,136(v0)
80401d04:	8c430014 	lw	v1,20(v0)
80401d08:	3c020fff 	lui	v0,0xfff
80401d0c:	3442ffff 	ori	v0,v0,0xffff
80401d10:	00621824 	and	v1,v1,v0
80401d14:	24040014 	li	a0,20
80401d18:	24050050 	li	a1,80
80401d1c:	3c028040 	lui	v0,0x8040
80401d20:	244625c4 	addiu	a2,v0,9668
80401d24:	00603821 	move	a3,v1
80401d28:	0c0b58b6 	jal	802d62d8 <PrintInt>
80401d2c:	00000000 	nop
80401d30:	8f820004 	lw	v0,4(gp)
80401d34:	8c4200a0 	lw	v0,160(v0)
80401d38:	00401821 	move	v1,v0
80401d3c:	3c0200ff 	lui	v0,0xff
80401d40:	3442ffff 	ori	v0,v0,0xffff
80401d44:	00621824 	and	v1,v1,v0
80401d48:	24040014 	li	a0,20
80401d4c:	2405003c 	li	a1,60
80401d50:	3c028040 	lui	v0,0x8040
80401d54:	244625d0 	addiu	a2,v0,9680
80401d58:	00603821 	move	a3,v1
80401d5c:	0c0b58b6 	jal	802d62d8 <PrintInt>
80401d60:	00000000 	nop
80401d64:	8f820004 	lw	v0,4(gp)
80401d68:	8c420088 	lw	v0,136(v0)
80401d6c:	8c43003c 	lw	v1,60(v0)
80401d70:	3c020fff 	lui	v0,0xfff
80401d74:	3442ffff 	ori	v0,v0,0xffff
80401d78:	00621824 	and	v1,v1,v0
80401d7c:	24040014 	li	a0,20
80401d80:	24050028 	li	a1,40
80401d84:	3c028040 	lui	v0,0x8040
80401d88:	244625e4 	addiu	a2,v0,9700
80401d8c:	00603821 	move	a3,v1
80401d90:	0c0b58b6 	jal	802d62d8 <PrintInt>
80401d94:	00000000 	nop
80401d98:	0810076f 	j	80401dbc <MenuPage05+0x1994>
80401d9c:	00000000 	nop
80401da0:	2404000a 	li	a0,10
80401da4:	2405001e 	li	a1,30
80401da8:	3c028040 	lui	v0,0x8040
80401dac:	244625f0 	addiu	a2,v0,9712
80401db0:	00003821 	move	a3,zero
80401db4:	0c0b58b6 	jal	802d62d8 <PrintInt>
80401db8:	00000000 	nop
80401dbc:	03c0e821 	move	sp,s8
80401dc0:	8fbf00d4 	lw	ra,212(sp)
80401dc4:	8fbe00d0 	lw	s8,208(sp)
80401dc8:	8fb000cc 	lw	s0,204(sp)
80401dcc:	d7b600e0 	ldc1	$f22,224(sp)
80401dd0:	d7b400d8 	ldc1	$f20,216(sp)
80401dd4:	27bd00e8 	addiu	sp,sp,232
80401dd8:	03e00008 	jr	ra
80401ddc:	00000000 	nop

80401de0 <CheckFireCollision>:
80401de0:	27bdffc8 	addiu	sp,sp,-56
80401de4:	afbf0034 	sw	ra,52(sp)
80401de8:	afbe0030 	sw	s8,48(sp)
80401dec:	03a0f021 	move	s8,sp
80401df0:	afc40038 	sw	a0,56(s8)
80401df4:	8fc20038 	lw	v0,56(s8)
80401df8:	afc20028 	sw	v0,40(s8)
80401dfc:	8f82000c 	lw	v0,12(gp)
80401e00:	8c420000 	lw	v0,0(v0)
80401e04:	afc20024 	sw	v0,36(s8)
80401e08:	8f83000c 	lw	v1,12(gp)
80401e0c:	3c028033 	lui	v0,0x8033
80401e10:	3442d488 	ori	v0,v0,0xd488
80401e14:	ac620000 	sw	v0,0(v1)
80401e18:	3c021300 	lui	v0,0x1300
80401e1c:	34441184 	ori	a0,v0,0x1184
80401e20:	0c09dfd4 	jal	80277f50 <SegmentedToVirtual>
80401e24:	00000000 	nop
80401e28:	afc20010 	sw	v0,16(s8)
80401e2c:	afc0001c 	sw	zero,28(s8)
80401e30:	0810082a 	j	804020a8 <CheckFireCollision+0x2c8>
80401e34:	00000000 	nop
80401e38:	8f820008 	lw	v0,8(gp)
80401e3c:	8c420000 	lw	v0,0(v0)
80401e40:	8c43020c 	lw	v1,524(v0)
80401e44:	8fc20010 	lw	v0,16(s8)
80401e48:	1462008f 	bne	v1,v0,80402088 <CheckFireCollision+0x2a8>
80401e4c:	00000000 	nop
80401e50:	8f82000c 	lw	v0,12(gp)
80401e54:	8c420000 	lw	v0,0(v0)
80401e58:	afc20020 	sw	v0,32(s8)
80401e5c:	8f82000c 	lw	v0,12(gp)
80401e60:	8c420000 	lw	v0,0(v0)
80401e64:	af8200c0 	sw	v0,192(gp)
80401e68:	8f83000c 	lw	v1,12(gp)
80401e6c:	3c028033 	lui	v0,0x8033
80401e70:	3442d488 	ori	v0,v0,0xd488
80401e74:	ac620000 	sw	v0,0(v1)
80401e78:	afc00014 	sw	zero,20(s8)
80401e7c:	0810081b 	j	8040206c <CheckFireCollision+0x28c>
80401e80:	00000000 	nop
80401e84:	8f820008 	lw	v0,8(gp)
80401e88:	8c420000 	lw	v0,0(v0)
80401e8c:	8c42003c 	lw	v0,60(v0)
80401e90:	14400006 	bnez	v0,80401eac <CheckFireCollision+0xcc>
80401e94:	00000000 	nop
80401e98:	8f820008 	lw	v0,8(gp)
80401e9c:	8c420000 	lw	v0,0(v0)
80401ea0:	8c420218 	lw	v0,536(v0)
80401ea4:	10400069 	beqz	v0,8040204c <CheckFireCollision+0x26c>
80401ea8:	00000000 	nop
80401eac:	8f820008 	lw	v0,8(gp)
80401eb0:	8c420000 	lw	v0,0(v0)
80401eb4:	8c43003c 	lw	v1,60(v0)
80401eb8:	3c028006 	lui	v0,0x8006
80401ebc:	34420030 	ori	v0,v0,0x30
80401ec0:	10620062 	beq	v1,v0,8040204c <CheckFireCollision+0x26c>
80401ec4:	00000000 	nop
80401ec8:	8f820008 	lw	v0,8(gp)
80401ecc:	8c420000 	lw	v0,0(v0)
80401ed0:	c44200a0 	lwc1	$f2,160(v0)
80401ed4:	8fc20038 	lw	v0,56(s8)
80401ed8:	c44000a0 	lwc1	$f0,160(v0)
80401edc:	46001032 	c.eq.s	$f2,$f0
80401ee0:	00000000 	nop
80401ee4:	45010059 	bc1t	8040204c <CheckFireCollision+0x26c>
80401ee8:	00000000 	nop
80401eec:	8f820008 	lw	v0,8(gp)
80401ef0:	8c420000 	lw	v0,0(v0)
80401ef4:	c44400a0 	lwc1	$f4,160(v0)
80401ef8:	8f8200c0 	lw	v0,192(gp)
80401efc:	c44200a0 	lwc1	$f2,160(v0)
80401f00:	c78000b8 	lwc1	$f0,184(gp)
80401f04:	46001001 	sub.s	$f0,$f2,$f0
80401f08:	4604003c 	c.lt.s	$f0,$f4
80401f0c:	00000000 	nop
80401f10:	4500004e 	bc1f	8040204c <CheckFireCollision+0x26c>
80401f14:	00000000 	nop
80401f18:	8f820008 	lw	v0,8(gp)
80401f1c:	8c420000 	lw	v0,0(v0)
80401f20:	c44400a0 	lwc1	$f4,160(v0)
80401f24:	8f8200c0 	lw	v0,192(gp)
80401f28:	c44200a0 	lwc1	$f2,160(v0)
80401f2c:	c78000b8 	lwc1	$f0,184(gp)
80401f30:	46001000 	add.s	$f0,$f2,$f0
80401f34:	4600203c 	c.lt.s	$f4,$f0
80401f38:	00000000 	nop
80401f3c:	45000043 	bc1f	8040204c <CheckFireCollision+0x26c>
80401f40:	00000000 	nop
80401f44:	8f820008 	lw	v0,8(gp)
80401f48:	8c420000 	lw	v0,0(v0)
80401f4c:	c44400a4 	lwc1	$f4,164(v0)
80401f50:	8f8200c0 	lw	v0,192(gp)
80401f54:	c44200a4 	lwc1	$f2,164(v0)
80401f58:	c78000b8 	lwc1	$f0,184(gp)
80401f5c:	46001001 	sub.s	$f0,$f2,$f0
80401f60:	4604003c 	c.lt.s	$f0,$f4
80401f64:	00000000 	nop
80401f68:	45000038 	bc1f	8040204c <CheckFireCollision+0x26c>
80401f6c:	00000000 	nop
80401f70:	8f820008 	lw	v0,8(gp)
80401f74:	8c420000 	lw	v0,0(v0)
80401f78:	c44400a4 	lwc1	$f4,164(v0)
80401f7c:	8f8200c0 	lw	v0,192(gp)
80401f80:	c44200a4 	lwc1	$f2,164(v0)
80401f84:	c78000b8 	lwc1	$f0,184(gp)
80401f88:	46001000 	add.s	$f0,$f2,$f0
80401f8c:	4600203c 	c.lt.s	$f4,$f0
80401f90:	00000000 	nop
80401f94:	4500002d 	bc1f	8040204c <CheckFireCollision+0x26c>
80401f98:	00000000 	nop
80401f9c:	8f820008 	lw	v0,8(gp)
80401fa0:	8c420000 	lw	v0,0(v0)
80401fa4:	c44400a8 	lwc1	$f4,168(v0)
80401fa8:	8f8200c0 	lw	v0,192(gp)
80401fac:	c44200a8 	lwc1	$f2,168(v0)
80401fb0:	c78000b8 	lwc1	$f0,184(gp)
80401fb4:	46001001 	sub.s	$f0,$f2,$f0
80401fb8:	4604003c 	c.lt.s	$f0,$f4
80401fbc:	00000000 	nop
80401fc0:	45000022 	bc1f	8040204c <CheckFireCollision+0x26c>
80401fc4:	00000000 	nop
80401fc8:	8f820008 	lw	v0,8(gp)
80401fcc:	8c420000 	lw	v0,0(v0)
80401fd0:	c44400a8 	lwc1	$f4,168(v0)
80401fd4:	8f8200c0 	lw	v0,192(gp)
80401fd8:	c44200a8 	lwc1	$f2,168(v0)
80401fdc:	c78000b8 	lwc1	$f0,184(gp)
80401fe0:	46001000 	add.s	$f0,$f2,$f0
80401fe4:	4600203c 	c.lt.s	$f4,$f0
80401fe8:	00000000 	nop
80401fec:	45000017 	bc1f	8040204c <CheckFireCollision+0x26c>
80401ff0:	00000000 	nop
80401ff4:	8f820008 	lw	v0,8(gp)
80401ff8:	8c420000 	lw	v0,0(v0)
80401ffc:	8c430014 	lw	v1,20(v0)
80402000:	3c02800f 	lui	v0,0x800f
80402004:	34420860 	ori	v0,v0,0x860
80402008:	10620010 	beq	v1,v0,8040204c <CheckFireCollision+0x26c>
8040200c:	00000000 	nop
80402010:	8f820008 	lw	v0,8(gp)
80402014:	8c420000 	lw	v0,0(v0)
80402018:	00402021 	move	a0,v0
8040201c:	240500cd 	li	a1,205
80402020:	3c021300 	lui	v0,0x1300
80402024:	34463510 	ori	a2,v0,0x3510
80402028:	0c0a7b73 	jal	8029edcc <SpawnObj>
8040202c:	00000000 	nop
80402030:	8f820008 	lw	v0,8(gp)
80402034:	8c420000 	lw	v0,0(v0)
80402038:	a4400074 	sh	zero,116(v0)
8040203c:	8f8200c0 	lw	v0,192(gp)
80402040:	a4400074 	sh	zero,116(v0)
80402044:	0810081f 	j	8040207c <CheckFireCollision+0x29c>
80402048:	00000000 	nop
8040204c:	8f83000c 	lw	v1,12(gp)
80402050:	8f820008 	lw	v0,8(gp)
80402054:	8c420000 	lw	v0,0(v0)
80402058:	8c420008 	lw	v0,8(v0)
8040205c:	ac620000 	sw	v0,0(v1)
80402060:	8fc20014 	lw	v0,20(s8)
80402064:	24420001 	addiu	v0,v0,1
80402068:	afc20014 	sw	v0,20(s8)
8040206c:	8fc20014 	lw	v0,20(s8)
80402070:	284200f0 	slti	v0,v0,240
80402074:	1440ff83 	bnez	v0,80401e84 <CheckFireCollision+0xa4>
80402078:	00000000 	nop
8040207c:	8f83000c 	lw	v1,12(gp)
80402080:	8fc20020 	lw	v0,32(s8)
80402084:	ac620000 	sw	v0,0(v1)
80402088:	8f83000c 	lw	v1,12(gp)
8040208c:	8f820008 	lw	v0,8(gp)
80402090:	8c420000 	lw	v0,0(v0)
80402094:	8c420008 	lw	v0,8(v0)
80402098:	ac620000 	sw	v0,0(v1)
8040209c:	8fc2001c 	lw	v0,28(s8)
804020a0:	24420001 	addiu	v0,v0,1
804020a4:	afc2001c 	sw	v0,28(s8)
804020a8:	8fc2001c 	lw	v0,28(s8)
804020ac:	284200f0 	slti	v0,v0,240
804020b0:	1440ff61 	bnez	v0,80401e38 <CheckFireCollision+0x58>
804020b4:	00000000 	nop
804020b8:	8f83000c 	lw	v1,12(gp)
804020bc:	8fc20024 	lw	v0,36(s8)
804020c0:	ac620000 	sw	v0,0(v1)
804020c4:	03c0e821 	move	sp,s8
804020c8:	8fbf0034 	lw	ra,52(sp)
804020cc:	8fbe0030 	lw	s8,48(sp)
804020d0:	27bd0038 	addiu	sp,sp,56
804020d4:	03e00008 	jr	ra
804020d8:	00000000 	nop

804020dc <bubble_srt>:
804020dc:	27bdffe8 	addiu	sp,sp,-24
804020e0:	afbe0014 	sw	s8,20(sp)
804020e4:	03a0f021 	move	s8,sp
804020e8:	afc40018 	sw	a0,24(s8)
804020ec:	afc5001c 	sw	a1,28(s8)
804020f0:	afc00008 	sw	zero,8(s8)
804020f4:	0810087c 	j	804021f0 <bubble_srt+0x114>
804020f8:	00000000 	nop
804020fc:	24020001 	li	v0,1
80402100:	afc20004 	sw	v0,4(s8)
80402104:	08100872 	j	804021c8 <bubble_srt+0xec>
80402108:	00000000 	nop
8040210c:	8fc30004 	lw	v1,4(s8)
80402110:	24020001 	li	v0,1
80402114:	00431023 	subu	v0,v0,v1
80402118:	00021080 	sll	v0,v0,0x2
8040211c:	00021823 	negu	v1,v0
80402120:	8fc20018 	lw	v0,24(s8)
80402124:	00431021 	addu	v0,v0,v1
80402128:	8c440000 	lw	a0,0(v0)
8040212c:	8fc20004 	lw	v0,4(s8)
80402130:	00021880 	sll	v1,v0,0x2
80402134:	8fc20018 	lw	v0,24(s8)
80402138:	00431021 	addu	v0,v0,v1
8040213c:	8c420000 	lw	v0,0(v0)
80402140:	0044102a 	slt	v0,v0,a0
80402144:	1040001d 	beqz	v0,804021bc <bubble_srt+0xe0>
80402148:	00000000 	nop
8040214c:	8fc30004 	lw	v1,4(s8)
80402150:	24020001 	li	v0,1
80402154:	00431023 	subu	v0,v0,v1
80402158:	00021080 	sll	v0,v0,0x2
8040215c:	00021823 	negu	v1,v0
80402160:	8fc20018 	lw	v0,24(s8)
80402164:	00431021 	addu	v0,v0,v1
80402168:	8c420000 	lw	v0,0(v0)
8040216c:	afc20000 	sw	v0,0(s8)
80402170:	8fc30004 	lw	v1,4(s8)
80402174:	24020001 	li	v0,1
80402178:	00431023 	subu	v0,v0,v1
8040217c:	00021080 	sll	v0,v0,0x2
80402180:	00021823 	negu	v1,v0
80402184:	8fc20018 	lw	v0,24(s8)
80402188:	00432021 	addu	a0,v0,v1
8040218c:	8fc20004 	lw	v0,4(s8)
80402190:	00021880 	sll	v1,v0,0x2
80402194:	8fc20018 	lw	v0,24(s8)
80402198:	00431021 	addu	v0,v0,v1
8040219c:	8c420000 	lw	v0,0(v0)
804021a0:	ac820000 	sw	v0,0(a0)
804021a4:	8fc20004 	lw	v0,4(s8)
804021a8:	00021880 	sll	v1,v0,0x2
804021ac:	8fc20018 	lw	v0,24(s8)
804021b0:	00431821 	addu	v1,v0,v1
804021b4:	8fc20000 	lw	v0,0(s8)
804021b8:	ac620000 	sw	v0,0(v1)
804021bc:	8fc20004 	lw	v0,4(s8)
804021c0:	24420001 	addiu	v0,v0,1
804021c4:	afc20004 	sw	v0,4(s8)
804021c8:	8fc3001c 	lw	v1,28(s8)
804021cc:	8fc20008 	lw	v0,8(s8)
804021d0:	00621823 	subu	v1,v1,v0
804021d4:	8fc20004 	lw	v0,4(s8)
804021d8:	0043102a 	slt	v0,v0,v1
804021dc:	1440ffcb 	bnez	v0,8040210c <bubble_srt+0x30>
804021e0:	00000000 	nop
804021e4:	8fc20008 	lw	v0,8(s8)
804021e8:	24420001 	addiu	v0,v0,1
804021ec:	afc20008 	sw	v0,8(s8)
804021f0:	8fc20008 	lw	v0,8(s8)
804021f4:	8fc3001c 	lw	v1,28(s8)
804021f8:	0043102a 	slt	v0,v0,v1
804021fc:	1440ffbf 	bnez	v0,804020fc <bubble_srt+0x20>
80402200:	00000000 	nop
80402204:	03c0e821 	move	sp,s8
80402208:	8fbe0014 	lw	s8,20(sp)
8040220c:	27bd0018 	addiu	sp,sp,24
80402210:	03e00008 	jr	ra
80402214:	00000000 	nop

80402218 <ProcessSelection>:
80402218:	27bdfff8 	addiu	sp,sp,-8
8040221c:	afbe0004 	sw	s8,4(sp)
80402220:	03a0f021 	move	s8,sp
80402224:	afc40008 	sw	a0,8(s8)
80402228:	afc5000c 	sw	a1,12(s8)
8040222c:	afc60010 	sw	a2,16(s8)
80402230:	8f820004 	lw	v0,4(gp)
80402234:	8c42009c 	lw	v0,156(v0)
80402238:	94420010 	lhu	v0,16(v0)
8040223c:	30420800 	andi	v0,v0,0x800
80402240:	1040002b 	beqz	v0,804022f0 <ProcessSelection+0xd8>
80402244:	00000000 	nop
80402248:	8f820018 	lw	v0,24(gp)
8040224c:	8c420000 	lw	v0,0(v0)
80402250:	28420004 	slti	v0,v0,4
80402254:	14400026 	bnez	v0,804022f0 <ProcessSelection+0xd8>
80402258:	00000000 	nop
8040225c:	8fc20010 	lw	v0,16(s8)
80402260:	10400011 	beqz	v0,804022a8 <ProcessSelection+0x90>
80402264:	00000000 	nop
80402268:	8f83001c 	lw	v1,28(gp)
8040226c:	8f82001c 	lw	v0,28(gp)
80402270:	8c420000 	lw	v0,0(v0)
80402274:	2442ffff 	addiu	v0,v0,-1
80402278:	ac620000 	sw	v0,0(v1)
8040227c:	8f82001c 	lw	v0,28(gp)
80402280:	8c430000 	lw	v1,0(v0)
80402284:	8fc20008 	lw	v0,8(s8)
80402288:	0062102a 	slt	v0,v1,v0
8040228c:	10400014 	beqz	v0,804022e0 <ProcessSelection+0xc8>
80402290:	00000000 	nop
80402294:	8f83001c 	lw	v1,28(gp)
80402298:	8fc20008 	lw	v0,8(s8)
8040229c:	ac620000 	sw	v0,0(v1)
804022a0:	081008b8 	j	804022e0 <ProcessSelection+0xc8>
804022a4:	00000000 	nop
804022a8:	8f83001c 	lw	v1,28(gp)
804022ac:	8f82001c 	lw	v0,28(gp)
804022b0:	8c420000 	lw	v0,0(v0)
804022b4:	24420001 	addiu	v0,v0,1
804022b8:	ac620000 	sw	v0,0(v1)
804022bc:	8f82001c 	lw	v0,28(gp)
804022c0:	8c430000 	lw	v1,0(v0)
804022c4:	8fc2000c 	lw	v0,12(s8)
804022c8:	0043102a 	slt	v0,v0,v1
804022cc:	10400004 	beqz	v0,804022e0 <ProcessSelection+0xc8>
804022d0:	00000000 	nop
804022d4:	8f83001c 	lw	v1,28(gp)
804022d8:	8fc2000c 	lw	v0,12(s8)
804022dc:	ac620000 	sw	v0,0(v1)
804022e0:	8f820018 	lw	v0,24(gp)
804022e4:	ac400000 	sw	zero,0(v0)
804022e8:	081008ea 	j	804023a8 <ProcessSelection+0x190>
804022ec:	00000000 	nop
804022f0:	8f820004 	lw	v0,4(gp)
804022f4:	8c42009c 	lw	v0,156(v0)
804022f8:	94420010 	lhu	v0,16(v0)
804022fc:	30420400 	andi	v0,v0,0x400
80402300:	10400029 	beqz	v0,804023a8 <ProcessSelection+0x190>
80402304:	00000000 	nop
80402308:	8f820018 	lw	v0,24(gp)
8040230c:	8c420000 	lw	v0,0(v0)
80402310:	28420004 	slti	v0,v0,4
80402314:	14400024 	bnez	v0,804023a8 <ProcessSelection+0x190>
80402318:	00000000 	nop
8040231c:	8fc20010 	lw	v0,16(s8)
80402320:	10400011 	beqz	v0,80402368 <ProcessSelection+0x150>
80402324:	00000000 	nop
80402328:	8f83001c 	lw	v1,28(gp)
8040232c:	8f82001c 	lw	v0,28(gp)
80402330:	8c420000 	lw	v0,0(v0)
80402334:	24420001 	addiu	v0,v0,1
80402338:	ac620000 	sw	v0,0(v1)
8040233c:	8f82001c 	lw	v0,28(gp)
80402340:	8c430000 	lw	v1,0(v0)
80402344:	8fc2000c 	lw	v0,12(s8)
80402348:	0043102a 	slt	v0,v0,v1
8040234c:	10400014 	beqz	v0,804023a0 <ProcessSelection+0x188>
80402350:	00000000 	nop
80402354:	8f83001c 	lw	v1,28(gp)
80402358:	8fc2000c 	lw	v0,12(s8)
8040235c:	ac620000 	sw	v0,0(v1)
80402360:	081008e8 	j	804023a0 <ProcessSelection+0x188>
80402364:	00000000 	nop
80402368:	8f83001c 	lw	v1,28(gp)
8040236c:	8f82001c 	lw	v0,28(gp)
80402370:	8c420000 	lw	v0,0(v0)
80402374:	2442ffff 	addiu	v0,v0,-1
80402378:	ac620000 	sw	v0,0(v1)
8040237c:	8f82001c 	lw	v0,28(gp)
80402380:	8c430000 	lw	v1,0(v0)
80402384:	8fc20008 	lw	v0,8(s8)
80402388:	0062102a 	slt	v0,v1,v0
8040238c:	10400004 	beqz	v0,804023a0 <ProcessSelection+0x188>
80402390:	00000000 	nop
80402394:	8f83001c 	lw	v1,28(gp)
80402398:	8fc20008 	lw	v0,8(s8)
8040239c:	ac620000 	sw	v0,0(v1)
804023a0:	8f820018 	lw	v0,24(gp)
804023a4:	ac400000 	sw	zero,0(v0)
804023a8:	03c0e821 	move	sp,s8
804023ac:	8fbe0004 	lw	s8,4(sp)
804023b0:	27bd0008 	addiu	sp,sp,8
804023b4:	03e00008 	jr	ra
804023b8:	00000000 	nop
804023bc:	736d3634 	0x736d3634
804023c0:	20737570 	addi	s3,v1,30064
804023c4:	65722064 	daddiu	s2,t3,8292
804023c8:	65627567 	daddiu	v0,t3,30055
804023cc:	20000000 	addi	zero,zero,0
804023d0:	62792066 	daddi	t9,s3,8294
804023d4:	72617562 	0x72617562
804023d8:	65722061 	daddiu	s2,t3,8289
804023dc:	6b61206d 	ldl	at,8301(k1)
804023e0:	65737369 	daddiu	s3,t3,29545
804023e4:	61656e00 	daddi	a1,t3,28160
804023e8:	736d3634 	0x736d3634
804023ec:	20737570 	addi	s3,v1,30064
804023f0:	65722064 	daddiu	s2,t3,8292
804023f4:	65627567 	daddiu	v0,t3,30055
804023f8:	00000000 	nop
804023fc:	426f624f 	c0	0x6f624f
80402400:	6d620000 	ldr	v0,0(t3)
80402404:	4b6f6f70 	c2	0x16f6f70
80402408:	61000000 	daddi	zero,t0,0
8040240c:	43686169 	c0	0x1686169
80402410:	6e43686f 	ldr	v1,26735(s2)
80402414:	6d700000 	ldr	s0,0(t3)
80402418:	426f7773 	c0	0x6f7773
8040241c:	65720000 	daddiu	s2,t3,0
80402420:	446f6f72 	0x446f6f72
80402424:	00000000 	nop
80402428:	476f6f6d 	c1	0x16f6f6d
8040242c:	62610000 	daddi	at,s3,0
80402430:	43687563 	c0	0x1687563
80402434:	6b796100 	ldl	t9,24832(k1)
80402438:	48656176 	0x48656176
8040243c:	652d686f 	daddiu	t5,t1,26735
80402440:	00000000 	nop
80402444:	50656e67 	beql	v1,a1,8041dde4 <__bss_end+0x1b634>
80402448:	75696e00 	jalx	85a5b800 <__bss_end+0x5659050>
8040244c:	50656163 	beql	v1,a1,8041a9dc <__bss_end+0x1822c>
80402450:	68000000 	ldl	zero,0(zero)
80402454:	5370696e 	beql	k1,s0,8041ca10 <__bss_end+0x1a260>
80402458:	44726966 	0x44726966
8040245c:	74000000 	jalx	80000000 <SetMarioAction-0x252cf4>
80402460:	4c616b69 	0x4c616b69
80402464:	74750000 	jalx	81d40000 <__bss_end+0x193d850>
80402468:	4576696c 	0x4576696c
8040246c:	204c616b 	addi	t4,v0,24939
80402470:	69747500 	ldl	s4,29952(t3)
80402474:	546f6164 	bnel	v1,t7,8041aa08 <__bss_end+0x18258>
80402478:	00000000 	nop
8040247c:	50697261 	beql	v1,t1,8041ee04 <__bss_end+0x1c654>
80402480:	6e686100 	ldr	t0,24832(s3)
80402484:	57686f6d 	bnel	k1,t0,8041e23c <__bss_end+0x1ba8c>
80402488:	70000000 	0x70000000
8040248c:	416d7000 	0x416d7000
80402490:	42757474 	c0	0x757474
80402494:	6572666c 	daddiu	s2,t3,26220
80402498:	79000000 	0x79000000
8040249c:	4f776c00 	c3	0x1776c00
804024a0:	42756c6c 	c0	0x756c6c
804024a4:	79000000 	0x79000000
804024a8:	4d495053 	0x4d495053
804024ac:	00000000 	nop
804024b0:	596f7368 	0x596f7368
804024b4:	69000000 	ldl	zero,0(t0)
804024b8:	42617400 	c0	0x617400
804024bc:	466c7920 	c1	0x6c7920
804024c0:	67757900 	daddiu	s5,k1,30976
804024c4:	57696767 	bnel	k1,t1,8041c264 <__bss_end+0x19ab4>
804024c8:	6c657200 	ldr	a1,29184(v1)
804024cc:	4d6f6e74 	0x4d6f6e74
804024d0:	79204d6f 	0x79204d6f
804024d4:	6c650000 	ldr	a1,0(v1)
804024d8:	6d722062 	ldr	s2,8290(t3)
804024dc:	6c697a7a 	ldr	t1,31354(v1)
804024e0:	61726400 	daddi	s2,t3,25600
804024e4:	446f7272 	0x446f7272
804024e8:	69650000 	ldl	a1,0(t3)
804024ec:	4861756e 	0x4861756e
804024f0:	74656420 	jalx	81959080 <__bss_end+0x15568d0>
804024f4:	43686169 	c0	0x1686169
804024f8:	72000000 	0x72000000
804024fc:	4d616420 	0x4d616420
80402500:	5069616e 	beql	v1,t1,8041aabc <__bss_end+0x1830c>
80402504:	6f000000 	ldr	zero,0(t8)
80402508:	466c7969 	c1	0x6c7969
8040250c:	6e672042 	ldr	a3,8258(s3)
80402510:	6f6f6b45 	ldr	t7,27461(k1)
80402514:	6e640000 	ldr	a0,0(s3)
80402518:	4b6c6570 	c2	0x16c6570
8040251c:	746f0000 	jalx	81bc0000 <__bss_end+0x17bd850>
80402520:	42697264 	c0	0x697264
80402524:	00000000 	nop
80402528:	436c616d 	c0	0x16c616d
8040252c:	20736865 	addi	s3,v1,26725
80402530:	6c6c0000 	ldr	t4,0(v1)
80402534:	536b6565 	beql	k1,t3,8041bacc <__bss_end+0x1931c>
80402538:	74657200 	jalx	8195c800 <__bss_end+0x155a050>
8040253c:	414e494d 	0x414e494d
80402540:	204f424a 	addi	t7,v0,16970
80402544:	00000000 	nop
80402548:	534f4c49 	beql	k0,t7,80415670 <__bss_end+0x12ec0>
8040254c:	44204f42 	0x44204f42
80402550:	4a000000 	c2	0x0
80402554:	43555220 	c0	0x1555220
80402558:	38302578 	xori	s0,at,0x2578
8040255c:	00000000 	nop
80402560:	62687620 	daddi	t0,s3,30240
80402564:	25780000 	addiu	t8,t3,0
80402568:	414e4d20 	0x414e4d20
8040256c:	38302578 	xori	s0,at,0x2578
80402570:	00000000 	nop
80402574:	44495354 	0x44495354
80402578:	20256400 	addi	a1,at,25600
8040257c:	41435420 	0x41435420
80402580:	25640000 	addiu	a0,t3,0
80402584:	4652414d 	c1	0x52414d
80402588:	45202564 	0x45202564
8040258c:	00000000 	nop
80402590:	38302578 	xori	s0,at,0x2578
80402594:	00000000 	nop
80402598:	414e4720 	0x414e4720
8040259c:	25640000 	addiu	a0,t3,0
804025a0:	44310000 	dmfc1	s1,$f0
804025a4:	44320000 	dmfc1	s2,$f0
804025a8:	44330000 	dmfc1	s3,$f0
804025ac:	44340000 	dmfc1	s4,$f0
804025b0:	43616d65 	c0	0x1616d65
804025b4:	72610000 	0x72610000
804025b8:	32500000 	andi	s0,s2,0x0
804025bc:	4d617269 	0x4d617269
804025c0:	6f000000 	ldr	zero,0(t8)
804025c4:	4d204d49 	0x4d204d49
804025c8:	44203830 	0x44203830
804025cc:	25780000 	addiu	t8,t3,0
804025d0:	4d20414e 	0x4d20414e
804025d4:	20535452 	addi	s3,v0,21586
804025d8:	55435420 	bnel	t2,v1,8041765c <__bss_end+0x14eac>
804025dc:	38302578 	xori	s0,at,0x2578
804025e0:	00000000 	nop
804025e4:	4d20414e 	0x4d20414e
804025e8:	494d2038 	0x494d2038
804025ec:	30257800 	andi	a1,at,0x7800
804025f0:	4c20616e 	0x4c20616e
804025f4:	64204420 	daddiu	zero,at,17440
804025f8:	55502074 	bnel	t2,s0,8040a7cc <__bss_end+0x801c>
804025fc:	6f206174 	ldr	zero,24948(t9)
80402600:	74616368 	jalx	81858da0 <__bss_end+0x14565f0>
80402604:	00000000 	nop
