
mario64.elf:     file format elf32-bigmips

Disassembly of section .text:

80400000 <_start>:
80400000:	27bdffc0 	addiu	sp,sp,-64
80400004:	afbf003c 	sw	ra,60(sp)
80400008:	afbe0038 	sw	s8,56(sp)
8040000c:	03a0f021 	move	s8,sp
80400010:	3c1c8041 	lui	gp,0x8041
80400014:	279c8210 	addiu	gp,gp,-32240
80400018:	8f830018 	lw	v1,24(gp)
8040001c:	8f820018 	lw	v0,24(gp)
80400020:	8c420000 	lw	v0,0(v0)
80400024:	24420001 	addiu	v0,v0,1
80400028:	ac620000 	sw	v0,0(v1)
8040002c:	3c028038 	lui	v0,0x8038
80400030:	34425c2c 	ori	v0,v0,0x5c2c
80400034:	afc20028 	sw	v0,40(s8)
80400038:	8fc30028 	lw	v1,40(s8)
8040003c:	3c023c05 	lui	v0,0x3c05
80400040:	34428060 	ori	v0,v0,0x8060
80400044:	ac620000 	sw	v0,0(v1)
80400048:	8fc20028 	lw	v0,40(s8)
8040004c:	24420004 	addiu	v0,v0,4
80400050:	afc20028 	sw	v0,40(s8)
80400054:	8fc30028 	lw	v1,40(s8)
80400058:	3c028ca5 	lui	v0,0x8ca5
8040005c:	34420070 	ori	v0,v0,0x70
80400060:	ac620000 	sw	v0,0(v1)
80400064:	3c028036 	lui	v0,0x8036
80400068:	34421158 	ori	v0,v0,0x1158
8040006c:	afc20024 	sw	v0,36(s8)
80400070:	8f830078 	lw	v1,120(gp)
80400074:	8fc20024 	lw	v0,36(s8)
80400078:	8c420000 	lw	v0,0(v0)
8040007c:	ac620000 	sw	v0,0(v1)
80400080:	3c021300 	lui	v0,0x1300
80400084:	0c09dfd4 	jal	80277f50 <SegmentedToVirtual>
80400088:	344411a8 	ori	a0,v0,0x11a8
8040008c:	afc20020 	sw	v0,32(s8)
80400090:	3c02802a 	lui	v0,0x802a
80400094:	3442f4da 	ori	v0,v0,0xf4da
80400098:	afc2001c 	sw	v0,28(s8)
8040009c:	3c02802a 	lui	v0,0x802a
804000a0:	3442f564 	ori	v0,v0,0xf564
804000a4:	afc20018 	sw	v0,24(s8)
804000a8:	8fc3001c 	lw	v1,28(s8)
804000ac:	24023f80 	li	v0,16256
804000b0:	a4620000 	sh	v0,0(v1)
804000b4:	8fc20018 	lw	v0,24(s8)
804000b8:	ac400000 	sw	zero,0(v0)
804000bc:	8fc30020 	lw	v1,32(s8)
804000c0:	3c02001e 	lui	v0,0x1e
804000c4:	3442fd30 	ori	v0,v0,0xfd30
804000c8:	ac620000 	sw	v0,0(v1)
804000cc:	8fc20020 	lw	v0,32(s8)
804000d0:	24420004 	addiu	v0,v0,4
804000d4:	afc20020 	sw	v0,32(s8)
804000d8:	8fc30020 	lw	v1,32(s8)
804000dc:	3c02ff9a 	lui	v0,0xff9a
804000e0:	344203e8 	ori	v0,v0,0x3e8
804000e4:	ac620000 	sw	v0,0(v1)
804000e8:	8fc20020 	lw	v0,32(s8)
804000ec:	24420004 	addiu	v0,v0,4
804000f0:	afc20020 	sw	v0,32(s8)
804000f4:	8fc30020 	lw	v1,32(s8)
804000f8:	3c0203e8 	lui	v0,0x3e8
804000fc:	344200c8 	ori	v0,v0,0xc8
80400100:	ac620000 	sw	v0,0(v1)
80400104:	3c028025 	lui	v0,0x8025
80400108:	34424318 	ori	v0,v0,0x4318
8040010c:	afc20014 	sw	v0,20(s8)
80400110:	8fc20014 	lw	v0,20(s8)
80400114:	ac400000 	sw	zero,0(v0)
80400118:	8f820004 	lw	v0,4(gp)
8040011c:	8c42009c 	lw	v0,156(v0)
80400120:	94420010 	lhu	v0,16(v0)
80400124:	30420020 	andi	v0,v0,0x20
80400128:	10400041 	beqz	v0,80400230 <_start+0x230>
8040012c:	00000000 	nop
80400130:	8f820018 	lw	v0,24(gp)
80400134:	8c420000 	lw	v0,0(v0)
80400138:	28420004 	slti	v0,v0,4
8040013c:	1440003c 	bnez	v0,80400230 <_start+0x230>
80400140:	00000000 	nop
80400144:	8f820004 	lw	v0,4(gp)
80400148:	8c42009c 	lw	v0,156(v0)
8040014c:	94420010 	lhu	v0,16(v0)
80400150:	30420200 	andi	v0,v0,0x200
80400154:	10400012 	beqz	v0,804001a0 <_start+0x1a0>
80400158:	00000000 	nop
8040015c:	8f830020 	lw	v1,32(gp)
80400160:	8f820020 	lw	v0,32(gp)
80400164:	8c420000 	lw	v0,0(v0)
80400168:	2442ffff 	addiu	v0,v0,-1
8040016c:	ac620000 	sw	v0,0(v1)
80400170:	8f820020 	lw	v0,32(gp)
80400174:	8c420000 	lw	v0,0(v0)
80400178:	04410004 	bgez	v0,8040018c <_start+0x18c>
8040017c:	00000000 	nop
80400180:	8f830020 	lw	v1,32(gp)
80400184:	24020009 	li	v0,9
80400188:	ac620000 	sw	v0,0(v1)
8040018c:	8f820018 	lw	v0,24(gp)
80400190:	ac400000 	sw	zero,0(v0)
80400194:	8f820010 	lw	v0,16(gp)
80400198:	0810008c 	j	80400230 <_start+0x230>
8040019c:	ac400000 	sw	zero,0(v0)
804001a0:	8f820004 	lw	v0,4(gp)
804001a4:	8c42009c 	lw	v0,156(v0)
804001a8:	94420010 	lhu	v0,16(v0)
804001ac:	30420100 	andi	v0,v0,0x100
804001b0:	10400012 	beqz	v0,804001fc <_start+0x1fc>
804001b4:	00000000 	nop
804001b8:	8f830020 	lw	v1,32(gp)
804001bc:	8f820020 	lw	v0,32(gp)
804001c0:	8c420000 	lw	v0,0(v0)
804001c4:	24420001 	addiu	v0,v0,1
804001c8:	ac620000 	sw	v0,0(v1)
804001cc:	8f820020 	lw	v0,32(gp)
804001d0:	8c420000 	lw	v0,0(v0)
804001d4:	2842000a 	slti	v0,v0,10
804001d8:	14400003 	bnez	v0,804001e8 <_start+0x1e8>
804001dc:	00000000 	nop
804001e0:	8f820020 	lw	v0,32(gp)
804001e4:	ac400000 	sw	zero,0(v0)
804001e8:	8f820018 	lw	v0,24(gp)
804001ec:	ac400000 	sw	zero,0(v0)
804001f0:	8f820010 	lw	v0,16(gp)
804001f4:	0810008c 	j	80400230 <_start+0x230>
804001f8:	ac400000 	sw	zero,0(v0)
804001fc:	8f820004 	lw	v0,4(gp)
80400200:	8c42009c 	lw	v0,156(v0)
80400204:	94420010 	lhu	v0,16(v0)
80400208:	30420010 	andi	v0,v0,0x10
8040020c:	10400008 	beqz	v0,80400230 <_start+0x230>
80400210:	00000000 	nop
80400214:	8f830020 	lw	v1,32(gp)
80400218:	2402029a 	li	v0,666
8040021c:	ac620000 	sw	v0,0(v1)
80400220:	8f820018 	lw	v0,24(gp)
80400224:	ac400000 	sw	zero,0(v0)
80400228:	8f820010 	lw	v0,16(gp)
8040022c:	ac400000 	sw	zero,0(v0)
80400230:	8f83005c 	lw	v1,92(gp)
80400234:	8f82005c 	lw	v0,92(gp)
80400238:	c4420000 	lwc1	$f2,0(v0)
8040023c:	8f820058 	lw	v0,88(gp)
80400240:	c4400000 	lwc1	$f0,0(v0)
80400244:	46001000 	add.s	$f0,$f2,$f0
80400248:	e4600000 	swc1	$f0,0(v1)
8040024c:	8f820004 	lw	v0,4(gp)
80400250:	8c420094 	lw	v0,148(v0)
80400254:	afc20010 	sw	v0,16(s8)
80400258:	8f820004 	lw	v0,4(gp)
8040025c:	c440003c 	lwc1	$f0,60(v0)
80400260:	8fc20010 	lw	v0,16(s8)
80400264:	e4400004 	swc1	$f0,4(v0)
80400268:	8f820004 	lw	v0,4(gp)
8040026c:	c4400040 	lwc1	$f0,64(v0)
80400270:	8fc20010 	lw	v0,16(s8)
80400274:	e4400008 	swc1	$f0,8(v0)
80400278:	8f820004 	lw	v0,4(gp)
8040027c:	c4400044 	lwc1	$f0,68(v0)
80400280:	8fc20010 	lw	v0,16(s8)
80400284:	e440000c 	swc1	$f0,12(v0)
80400288:	8f820020 	lw	v0,32(gp)
8040028c:	8c420000 	lw	v0,0(v0)
80400290:	afc20030 	sw	v0,48(s8)
80400294:	24020005 	li	v0,5
80400298:	8fc30030 	lw	v1,48(s8)
8040029c:	1062005a 	beq	v1,v0,80400408 <_start+0x408>
804002a0:	00000000 	nop
804002a4:	8fc30030 	lw	v1,48(s8)
804002a8:	28620006 	slti	v0,v1,6
804002ac:	1040001c 	beqz	v0,80400320 <_start+0x320>
804002b0:	00000000 	nop
804002b4:	24020002 	li	v0,2
804002b8:	8fc30030 	lw	v1,48(s8)
804002bc:	10620046 	beq	v1,v0,804003d8 <_start+0x3d8>
804002c0:	00000000 	nop
804002c4:	8fc30030 	lw	v1,48(s8)
804002c8:	28620003 	slti	v0,v1,3
804002cc:	1040000a 	beqz	v0,804002f8 <_start+0x2f8>
804002d0:	00000000 	nop
804002d4:	8fc20030 	lw	v0,48(s8)
804002d8:	1040002d 	beqz	v0,80400390 <_start+0x390>
804002dc:	00000000 	nop
804002e0:	24020001 	li	v0,1
804002e4:	8fc30030 	lw	v1,48(s8)
804002e8:	10620037 	beq	v1,v0,804003c8 <_start+0x3c8>
804002ec:	00000000 	nop
804002f0:	0810011a 	j	80400468 <_start+0x468>
804002f4:	00000000 	nop
804002f8:	24020003 	li	v0,3
804002fc:	8fc30030 	lw	v1,48(s8)
80400300:	10620039 	beq	v1,v0,804003e8 <_start+0x3e8>
80400304:	00000000 	nop
80400308:	24020004 	li	v0,4
8040030c:	8fc30030 	lw	v1,48(s8)
80400310:	10620039 	beq	v1,v0,804003f8 <_start+0x3f8>
80400314:	00000000 	nop
80400318:	0810011a 	j	80400468 <_start+0x468>
8040031c:	00000000 	nop
80400320:	24020008 	li	v0,8
80400324:	8fc30030 	lw	v1,48(s8)
80400328:	10620043 	beq	v1,v0,80400438 <_start+0x438>
8040032c:	00000000 	nop
80400330:	8fc30030 	lw	v1,48(s8)
80400334:	28620009 	slti	v0,v1,9
80400338:	1040000b 	beqz	v0,80400368 <_start+0x368>
8040033c:	00000000 	nop
80400340:	24020006 	li	v0,6
80400344:	8fc30030 	lw	v1,48(s8)
80400348:	10620033 	beq	v1,v0,80400418 <_start+0x418>
8040034c:	00000000 	nop
80400350:	24020007 	li	v0,7
80400354:	8fc30030 	lw	v1,48(s8)
80400358:	10620033 	beq	v1,v0,80400428 <_start+0x428>
8040035c:	00000000 	nop
80400360:	0810011a 	j	80400468 <_start+0x468>
80400364:	00000000 	nop
80400368:	24020009 	li	v0,9
8040036c:	8fc30030 	lw	v1,48(s8)
80400370:	10620035 	beq	v1,v0,80400448 <_start+0x448>
80400374:	00000000 	nop
80400378:	2402029a 	li	v0,666
8040037c:	8fc30030 	lw	v1,48(s8)
80400380:	10620035 	beq	v1,v0,80400458 <_start+0x458>
80400384:	00000000 	nop
80400388:	0810011a 	j	80400468 <_start+0x468>
8040038c:	00000000 	nop
80400390:	2404000a 	li	a0,10
80400394:	2405001e 	li	a1,30
80400398:	3c028040 	lui	v0,0x8040
8040039c:	24467290 	addiu	a2,v0,29328
804003a0:	0c0b58b6 	jal	802d62d8 <PrintInt>
804003a4:	00003821 	move	a3,zero
804003a8:	2404000a 	li	a0,10
804003ac:	2405000a 	li	a1,10
804003b0:	3c028040 	lui	v0,0x8040
804003b4:	244672a4 	addiu	a2,v0,29348
804003b8:	0c0b58b6 	jal	802d62d8 <PrintInt>
804003bc:	00003821 	move	a3,zero
804003c0:	08100126 	j	80400498 <_start+0x498>
804003c4:	00000000 	nop
804003c8:	0c10012b 	jal	804004ac <MenuPage01>
804003cc:	00000000 	nop
804003d0:	08100126 	j	80400498 <_start+0x498>
804003d4:	00000000 	nop
804003d8:	0c100291 	jal	80400a44 <MenuPage02>
804003dc:	00000000 	nop
804003e0:	08100126 	j	80400498 <_start+0x498>
804003e4:	00000000 	nop
804003e8:	0c1003aa 	jal	80400ea8 <MenuPage03>
804003ec:	00000000 	nop
804003f0:	08100126 	j	80400498 <_start+0x498>
804003f4:	00000000 	nop
804003f8:	0c100595 	jal	80401654 <MenuPage04>
804003fc:	00000000 	nop
80400400:	08100126 	j	80400498 <_start+0x498>
80400404:	00000000 	nop
80400408:	0c1006c3 	jal	80401b0c <MenuPage05>
8040040c:	00000000 	nop
80400410:	08100126 	j	80400498 <_start+0x498>
80400414:	00000000 	nop
80400418:	0c101098 	jal	80404260 <MenuPage06>
8040041c:	00000000 	nop
80400420:	08100126 	j	80400498 <_start+0x498>
80400424:	00000000 	nop
80400428:	0c10128f 	jal	80404a3c <MenuPage07>
8040042c:	00000000 	nop
80400430:	08100126 	j	80400498 <_start+0x498>
80400434:	00000000 	nop
80400438:	0c101501 	jal	80405404 <MenuPage08>
8040043c:	00000000 	nop
80400440:	08100126 	j	80400498 <_start+0x498>
80400444:	00000000 	nop
80400448:	0c101487 	jal	8040521c <MenuPage09>
8040044c:	00000000 	nop
80400450:	08100126 	j	80400498 <_start+0x498>
80400454:	00000000 	nop
80400458:	0c101664 	jal	80405990 <PongOfDeath>
8040045c:	00000000 	nop
80400460:	08100126 	j	80400498 <_start+0x498>
80400464:	00000000 	nop
80400468:	2404000a 	li	a0,10
8040046c:	2405001e 	li	a1,30
80400470:	3c028040 	lui	v0,0x8040
80400474:	244672bc 	addiu	a2,v0,29372
80400478:	0c0b58b6 	jal	802d62d8 <PrintInt>
8040047c:	00003821 	move	a3,zero
80400480:	2404000a 	li	a0,10
80400484:	2405000a 	li	a1,10
80400488:	3c028040 	lui	v0,0x8040
8040048c:	244672a4 	addiu	a2,v0,29348
80400490:	0c0b58b6 	jal	802d62d8 <PrintInt>
80400494:	00003821 	move	a3,zero
80400498:	03c0e821 	move	sp,s8
8040049c:	8fbf003c 	lw	ra,60(sp)
804004a0:	8fbe0038 	lw	s8,56(sp)
804004a4:	03e00008 	jr	ra
804004a8:	27bd0040 	addiu	sp,sp,64

804004ac <MenuPage01>:
804004ac:	27bdffd8 	addiu	sp,sp,-40
804004b0:	afbf0024 	sw	ra,36(sp)
804004b4:	afbe0020 	sw	s8,32(sp)
804004b8:	03a0f021 	move	s8,sp
804004bc:	8f820010 	lw	v0,16(gp)
804004c0:	8c420000 	lw	v0,0(v0)
804004c4:	14400007 	bnez	v0,804004e4 <MenuPage01+0x38>
804004c8:	00000000 	nop
804004cc:	8f83001c 	lw	v1,28(gp)
804004d0:	24020002 	li	v0,2
804004d4:	ac620000 	sw	v0,0(v1)
804004d8:	8f830010 	lw	v1,16(gp)
804004dc:	24020001 	li	v0,1
804004e0:	ac620000 	sw	v0,0(v1)
804004e4:	24040002 	li	a0,2
804004e8:	24050006 	li	a1,6
804004ec:	00003021 	move	a2,zero
804004f0:	0c101c3b 	jal	804070ec <ProcessSelection>
804004f4:	00000000 	nop
804004f8:	8f820014 	lw	v0,20(gp)
804004fc:	8c420000 	lw	v0,0(v0)
80400500:	00021040 	sll	v0,v0,0x1
80400504:	24430001 	addiu	v1,v0,1
80400508:	3c02801d 	lui	v0,0x801d
8040050c:	34420370 	ori	v0,v0,0x370
80400510:	00621021 	addu	v0,v1,v0
80400514:	afc20014 	sw	v0,20(s8)
80400518:	8fc20014 	lw	v0,20(s8)
8040051c:	90420000 	lbu	v0,0(v0)
80400520:	00401821 	move	v1,v0
80400524:	3c02801d 	lui	v0,0x801d
80400528:	34420371 	ori	v0,v0,0x371
8040052c:	00621021 	addu	v0,v1,v0
80400530:	afc20010 	sw	v0,16(s8)
80400534:	8f82001c 	lw	v0,28(gp)
80400538:	8c420000 	lw	v0,0(v0)
8040053c:	afc20018 	sw	v0,24(s8)
80400540:	8fc30018 	lw	v1,24(s8)
80400544:	2c620007 	sltiu	v0,v1,7
80400548:	104000f6 	beqz	v0,80400924 <MenuPage01+0x478>
8040054c:	00000000 	nop
80400550:	8fc20018 	lw	v0,24(s8)
80400554:	00021880 	sll	v1,v0,0x2
80400558:	3c028040 	lui	v0,0x8040
8040055c:	24427314 	addiu	v0,v0,29460
80400560:	00621021 	addu	v0,v1,v0
80400564:	8c420000 	lw	v0,0(v0)
80400568:	00400008 	jr	v0
8040056c:	00000000 	nop
80400570:	8f820004 	lw	v0,4(gp)
80400574:	8c42009c 	lw	v0,156(v0)
80400578:	94420010 	lhu	v0,16(v0)
8040057c:	30420200 	andi	v0,v0,0x200
80400580:	10400011 	beqz	v0,804005c8 <MenuPage01+0x11c>
80400584:	00000000 	nop
80400588:	8f820018 	lw	v0,24(gp)
8040058c:	8c420000 	lw	v0,0(v0)
80400590:	28420004 	slti	v0,v0,4
80400594:	1440000c 	bnez	v0,804005c8 <MenuPage01+0x11c>
80400598:	00000000 	nop
8040059c:	8f820014 	lw	v0,20(gp)
804005a0:	8c420000 	lw	v0,0(v0)
804005a4:	18400006 	blez	v0,804005c0 <MenuPage01+0x114>
804005a8:	00000000 	nop
804005ac:	8f830014 	lw	v1,20(gp)
804005b0:	8f820014 	lw	v0,20(gp)
804005b4:	8c420000 	lw	v0,0(v0)
804005b8:	2442ffff 	addiu	v0,v0,-1
804005bc:	ac620000 	sw	v0,0(v1)
804005c0:	8f820018 	lw	v0,24(gp)
804005c4:	ac400000 	sw	zero,0(v0)
804005c8:	8f820004 	lw	v0,4(gp)
804005cc:	8c42009c 	lw	v0,156(v0)
804005d0:	94420010 	lhu	v0,16(v0)
804005d4:	30420100 	andi	v0,v0,0x100
804005d8:	104000d2 	beqz	v0,80400924 <MenuPage01+0x478>
804005dc:	00000000 	nop
804005e0:	8f820018 	lw	v0,24(gp)
804005e4:	8c420000 	lw	v0,0(v0)
804005e8:	28420004 	slti	v0,v0,4
804005ec:	144000cd 	bnez	v0,80400924 <MenuPage01+0x478>
804005f0:	00000000 	nop
804005f4:	8f820014 	lw	v0,20(gp)
804005f8:	8c420000 	lw	v0,0(v0)
804005fc:	28420022 	slti	v0,v0,34
80400600:	10400006 	beqz	v0,8040061c <MenuPage01+0x170>
80400604:	00000000 	nop
80400608:	8f830014 	lw	v1,20(gp)
8040060c:	8f820014 	lw	v0,20(gp)
80400610:	8c420000 	lw	v0,0(v0)
80400614:	24420001 	addiu	v0,v0,1
80400618:	ac620000 	sw	v0,0(v1)
8040061c:	8f820018 	lw	v0,24(gp)
80400620:	ac400000 	sw	zero,0(v0)
80400624:	08100249 	j	80400924 <MenuPage01+0x478>
80400628:	00000000 	nop
8040062c:	8f820004 	lw	v0,4(gp)
80400630:	8c42009c 	lw	v0,156(v0)
80400634:	94420010 	lhu	v0,16(v0)
80400638:	30420200 	andi	v0,v0,0x200
8040063c:	14400007 	bnez	v0,8040065c <MenuPage01+0x1b0>
80400640:	00000000 	nop
80400644:	8f820004 	lw	v0,4(gp)
80400648:	8c42009c 	lw	v0,156(v0)
8040064c:	94420010 	lhu	v0,16(v0)
80400650:	30420100 	andi	v0,v0,0x100
80400654:	104000b3 	beqz	v0,80400924 <MenuPage01+0x478>
80400658:	00000000 	nop
8040065c:	8f820018 	lw	v0,24(gp)
80400660:	8c420000 	lw	v0,0(v0)
80400664:	28420004 	slti	v0,v0,4
80400668:	144000ae 	bnez	v0,80400924 <MenuPage01+0x478>
8040066c:	00000000 	nop
80400670:	8f820014 	lw	v0,20(gp)
80400674:	8c420000 	lw	v0,0(v0)
80400678:	3042ffff 	andi	v0,v0,0xffff
8040067c:	00002021 	move	a0,zero
80400680:	00402821 	move	a1,v0
80400684:	00003021 	move	a2,zero
80400688:	0c0c8151 	jal	80320544 <SetMusic>
8040068c:	00000000 	nop
80400690:	8f820018 	lw	v0,24(gp)
80400694:	ac400000 	sw	zero,0(v0)
80400698:	08100249 	j	80400924 <MenuPage01+0x478>
8040069c:	00000000 	nop
804006a0:	8f820004 	lw	v0,4(gp)
804006a4:	8c42009c 	lw	v0,156(v0)
804006a8:	94420010 	lhu	v0,16(v0)
804006ac:	30420200 	andi	v0,v0,0x200
804006b0:	1040000e 	beqz	v0,804006ec <MenuPage01+0x240>
804006b4:	00000000 	nop
804006b8:	8f820018 	lw	v0,24(gp)
804006bc:	8c420000 	lw	v0,0(v0)
804006c0:	28420004 	slti	v0,v0,4
804006c4:	14400009 	bnez	v0,804006ec <MenuPage01+0x240>
804006c8:	00000000 	nop
804006cc:	8fc20010 	lw	v0,16(s8)
804006d0:	90420000 	lbu	v0,0(v0)
804006d4:	2442ffff 	addiu	v0,v0,-1
804006d8:	304300ff 	andi	v1,v0,0xff
804006dc:	8fc20010 	lw	v0,16(s8)
804006e0:	a0430000 	sb	v1,0(v0)
804006e4:	8f820018 	lw	v0,24(gp)
804006e8:	ac400000 	sw	zero,0(v0)
804006ec:	8f820004 	lw	v0,4(gp)
804006f0:	8c42009c 	lw	v0,156(v0)
804006f4:	94420010 	lhu	v0,16(v0)
804006f8:	30420100 	andi	v0,v0,0x100
804006fc:	10400089 	beqz	v0,80400924 <MenuPage01+0x478>
80400700:	00000000 	nop
80400704:	8f820018 	lw	v0,24(gp)
80400708:	8c420000 	lw	v0,0(v0)
8040070c:	28420004 	slti	v0,v0,4
80400710:	14400084 	bnez	v0,80400924 <MenuPage01+0x478>
80400714:	00000000 	nop
80400718:	8fc20010 	lw	v0,16(s8)
8040071c:	90420000 	lbu	v0,0(v0)
80400720:	24420001 	addiu	v0,v0,1
80400724:	304300ff 	andi	v1,v0,0xff
80400728:	8fc20010 	lw	v0,16(s8)
8040072c:	a0430000 	sb	v1,0(v0)
80400730:	8fc20010 	lw	v0,16(s8)
80400734:	90420000 	lbu	v0,0(v0)
80400738:	2c420026 	sltiu	v0,v0,38
8040073c:	14400004 	bnez	v0,80400750 <MenuPage01+0x2a4>
80400740:	00000000 	nop
80400744:	8fc30010 	lw	v1,16(s8)
80400748:	24020025 	li	v0,37
8040074c:	a0620000 	sb	v0,0(v1)
80400750:	8f820018 	lw	v0,24(gp)
80400754:	ac400000 	sw	zero,0(v0)
80400758:	08100249 	j	80400924 <MenuPage01+0x478>
8040075c:	00000000 	nop
80400760:	8f820004 	lw	v0,4(gp)
80400764:	8c42009c 	lw	v0,156(v0)
80400768:	94420010 	lhu	v0,16(v0)
8040076c:	30420200 	andi	v0,v0,0x200
80400770:	1040000e 	beqz	v0,804007ac <MenuPage01+0x300>
80400774:	00000000 	nop
80400778:	8f820018 	lw	v0,24(gp)
8040077c:	8c420000 	lw	v0,0(v0)
80400780:	28420004 	slti	v0,v0,4
80400784:	14400009 	bnez	v0,804007ac <MenuPage01+0x300>
80400788:	00000000 	nop
8040078c:	8f83007c 	lw	v1,124(gp)
80400790:	8f82007c 	lw	v0,124(gp)
80400794:	9442000a 	lhu	v0,10(v0)
80400798:	2442ffd0 	addiu	v0,v0,-48
8040079c:	3042ffff 	andi	v0,v0,0xffff
804007a0:	a462000a 	sh	v0,10(v1)
804007a4:	8f820018 	lw	v0,24(gp)
804007a8:	ac400000 	sw	zero,0(v0)
804007ac:	8f820004 	lw	v0,4(gp)
804007b0:	8c42009c 	lw	v0,156(v0)
804007b4:	94420010 	lhu	v0,16(v0)
804007b8:	30420100 	andi	v0,v0,0x100
804007bc:	10400059 	beqz	v0,80400924 <MenuPage01+0x478>
804007c0:	00000000 	nop
804007c4:	8f820018 	lw	v0,24(gp)
804007c8:	8c420000 	lw	v0,0(v0)
804007cc:	28420004 	slti	v0,v0,4
804007d0:	14400054 	bnez	v0,80400924 <MenuPage01+0x478>
804007d4:	00000000 	nop
804007d8:	8f83007c 	lw	v1,124(gp)
804007dc:	8f82007c 	lw	v0,124(gp)
804007e0:	9442000a 	lhu	v0,10(v0)
804007e4:	24420030 	addiu	v0,v0,48
804007e8:	3042ffff 	andi	v0,v0,0xffff
804007ec:	a462000a 	sh	v0,10(v1)
804007f0:	8f82007c 	lw	v0,124(gp)
804007f4:	9442000a 	lhu	v0,10(v0)
804007f8:	2c423870 	sltiu	v0,v0,14448
804007fc:	14400004 	bnez	v0,80400810 <MenuPage01+0x364>
80400800:	00000000 	nop
80400804:	8f83007c 	lw	v1,124(gp)
80400808:	24023840 	li	v0,14400
8040080c:	a462000a 	sh	v0,10(v1)
80400810:	8f820018 	lw	v0,24(gp)
80400814:	ac400000 	sw	zero,0(v0)
80400818:	08100249 	j	80400924 <MenuPage01+0x478>
8040081c:	00000000 	nop
80400820:	8f820004 	lw	v0,4(gp)
80400824:	8c42009c 	lw	v0,156(v0)
80400828:	94420010 	lhu	v0,16(v0)
8040082c:	30420200 	andi	v0,v0,0x200
80400830:	10400013 	beqz	v0,80400880 <MenuPage01+0x3d4>
80400834:	00000000 	nop
80400838:	8f820018 	lw	v0,24(gp)
8040083c:	8c420000 	lw	v0,0(v0)
80400840:	28420004 	slti	v0,v0,4
80400844:	1440000e 	bnez	v0,80400880 <MenuPage01+0x3d4>
80400848:	00000000 	nop
8040084c:	8f830064 	lw	v1,100(gp)
80400850:	8f820064 	lw	v0,100(gp)
80400854:	8c420000 	lw	v0,0(v0)
80400858:	2442ffff 	addiu	v0,v0,-1
8040085c:	ac620000 	sw	v0,0(v1)
80400860:	8f820064 	lw	v0,100(gp)
80400864:	8c420000 	lw	v0,0(v0)
80400868:	04410003 	bgez	v0,80400878 <MenuPage01+0x3cc>
8040086c:	00000000 	nop
80400870:	8f820064 	lw	v0,100(gp)
80400874:	ac400000 	sw	zero,0(v0)
80400878:	8f820018 	lw	v0,24(gp)
8040087c:	ac400000 	sw	zero,0(v0)
80400880:	8f820004 	lw	v0,4(gp)
80400884:	8c42009c 	lw	v0,156(v0)
80400888:	94420010 	lhu	v0,16(v0)
8040088c:	30420100 	andi	v0,v0,0x100
80400890:	1040000d 	beqz	v0,804008c8 <MenuPage01+0x41c>
80400894:	00000000 	nop
80400898:	8f820018 	lw	v0,24(gp)
8040089c:	8c420000 	lw	v0,0(v0)
804008a0:	28420004 	slti	v0,v0,4
804008a4:	14400008 	bnez	v0,804008c8 <MenuPage01+0x41c>
804008a8:	00000000 	nop
804008ac:	8f830064 	lw	v1,100(gp)
804008b0:	8f820064 	lw	v0,100(gp)
804008b4:	8c420000 	lw	v0,0(v0)
804008b8:	24420001 	addiu	v0,v0,1
804008bc:	ac620000 	sw	v0,0(v1)
804008c0:	8f820018 	lw	v0,24(gp)
804008c4:	ac400000 	sw	zero,0(v0)
804008c8:	8f820004 	lw	v0,4(gp)
804008cc:	8c42009c 	lw	v0,156(v0)
804008d0:	94420010 	lhu	v0,16(v0)
804008d4:	30420020 	andi	v0,v0,0x20
804008d8:	10400012 	beqz	v0,80400924 <MenuPage01+0x478>
804008dc:	00000000 	nop
804008e0:	8f820018 	lw	v0,24(gp)
804008e4:	8c420000 	lw	v0,0(v0)
804008e8:	28420004 	slti	v0,v0,4
804008ec:	1440000d 	bnez	v0,80400924 <MenuPage01+0x478>
804008f0:	00000000 	nop
804008f4:	8f820064 	lw	v0,100(gp)
804008f8:	8c420000 	lw	v0,0(v0)
804008fc:	3c038040 	lui	v1,0x8040
80400900:	00022080 	sll	a0,v0,0x2
80400904:	24627818 	addiu	v0,v1,30744
80400908:	00821021 	addu	v0,a0,v0
8040090c:	8c420000 	lw	v0,0(v0)
80400910:	00402021 	move	a0,v0
80400914:	0c0b2864 	jal	802ca190 <PlaySound>
80400918:	00000000 	nop
8040091c:	8f820018 	lw	v0,24(gp)
80400920:	ac400000 	sw	zero,0(v0)
80400924:	8f82001c 	lw	v0,28(gp)
80400928:	8c420000 	lw	v0,0(v0)
8040092c:	00021880 	sll	v1,v0,0x2
80400930:	00031080 	sll	v0,v1,0x2
80400934:	00621021 	addu	v0,v1,v0
80400938:	3042ffff 	andi	v0,v0,0xffff
8040093c:	2404000a 	li	a0,10
80400940:	00402821 	move	a1,v0
80400944:	3c028040 	lui	v0,0x8040
80400948:	244672d0 	addiu	a2,v0,29392
8040094c:	00003821 	move	a3,zero
80400950:	0c0b58b6 	jal	802d62d8 <PrintInt>
80400954:	00000000 	nop
80400958:	8f820064 	lw	v0,100(gp)
8040095c:	8c420000 	lw	v0,0(v0)
80400960:	00401821 	move	v1,v0
80400964:	24040019 	li	a0,25
80400968:	24050078 	li	a1,120
8040096c:	3c028040 	lui	v0,0x8040
80400970:	244672d4 	addiu	a2,v0,29396
80400974:	00603821 	move	a3,v1
80400978:	0c0b58b6 	jal	802d62d8 <PrintInt>
8040097c:	00000000 	nop
80400980:	8f82007c 	lw	v0,124(gp)
80400984:	9443000a 	lhu	v1,10(v0)
80400988:	3c02aaaa 	lui	v0,0xaaaa
8040098c:	3442aaab 	ori	v0,v0,0xaaab
80400990:	00620019 	multu	v1,v0
80400994:	00001010 	mfhi	v0
80400998:	00021142 	srl	v0,v0,0x5
8040099c:	3042ffff 	andi	v0,v0,0xffff
804009a0:	00401821 	move	v1,v0
804009a4:	24040019 	li	a0,25
804009a8:	24050064 	li	a1,100
804009ac:	3c028040 	lui	v0,0x8040
804009b0:	244672e4 	addiu	a2,v0,29412
804009b4:	00603821 	move	a3,v1
804009b8:	0c0b58b6 	jal	802d62d8 <PrintInt>
804009bc:	00000000 	nop
804009c0:	8fc20010 	lw	v0,16(s8)
804009c4:	90420000 	lbu	v0,0(v0)
804009c8:	00401821 	move	v1,v0
804009cc:	24040019 	li	a0,25
804009d0:	24050050 	li	a1,80
804009d4:	3c028040 	lui	v0,0x8040
804009d8:	244672f4 	addiu	a2,v0,29428
804009dc:	00603821 	move	a3,v1
804009e0:	0c0b58b6 	jal	802d62d8 <PrintInt>
804009e4:	00000000 	nop
804009e8:	24040019 	li	a0,25
804009ec:	2405003c 	li	a1,60
804009f0:	3c028040 	lui	v0,0x8040
804009f4:	24467300 	addiu	a2,v0,29440
804009f8:	00003821 	move	a3,zero
804009fc:	0c0b58b6 	jal	802d62d8 <PrintInt>
80400a00:	00000000 	nop
80400a04:	8f820014 	lw	v0,20(gp)
80400a08:	8c420000 	lw	v0,0(v0)
80400a0c:	00401821 	move	v1,v0
80400a10:	24040019 	li	a0,25
80400a14:	24050028 	li	a1,40
80400a18:	3c028040 	lui	v0,0x8040
80400a1c:	24467308 	addiu	a2,v0,29448
80400a20:	00603821 	move	a3,v1
80400a24:	0c0b58b6 	jal	802d62d8 <PrintInt>
80400a28:	00000000 	nop
80400a2c:	03c0e821 	move	sp,s8
80400a30:	8fbf0024 	lw	ra,36(sp)
80400a34:	8fbe0020 	lw	s8,32(sp)
80400a38:	27bd0028 	addiu	sp,sp,40
80400a3c:	03e00008 	jr	ra
80400a40:	00000000 	nop

80400a44 <MenuPage02>:
80400a44:	27bdffe0 	addiu	sp,sp,-32
80400a48:	afbf001c 	sw	ra,28(sp)
80400a4c:	afbe0018 	sw	s8,24(sp)
80400a50:	03a0f021 	move	s8,sp
80400a54:	8f820010 	lw	v0,16(gp)
80400a58:	8c420000 	lw	v0,0(v0)
80400a5c:	14400006 	bnez	v0,80400a78 <MenuPage02+0x34>
80400a60:	00000000 	nop
80400a64:	8f82001c 	lw	v0,28(gp)
80400a68:	ac400000 	sw	zero,0(v0)
80400a6c:	8f830010 	lw	v1,16(gp)
80400a70:	24020001 	li	v0,1
80400a74:	ac620000 	sw	v0,0(v1)
80400a78:	00002021 	move	a0,zero
80400a7c:	2405000f 	li	a1,15
80400a80:	24060001 	li	a2,1
80400a84:	0c101c3b 	jal	804070ec <ProcessSelection>
80400a88:	00000000 	nop
80400a8c:	afc00010 	sw	zero,16(s8)
80400a90:	081002ef 	j	80400bbc <MenuPage02+0x178>
80400a94:	00000000 	nop
80400a98:	8fc20010 	lw	v0,16(s8)
80400a9c:	00021880 	sll	v1,v0,0x2
80400aa0:	00031080 	sll	v0,v1,0x2
80400aa4:	00621021 	addu	v0,v1,v0
80400aa8:	00021023 	negu	v0,v0
80400aac:	3042ffff 	andi	v0,v0,0xffff
80400ab0:	244200b4 	addiu	v0,v0,180
80400ab4:	3042ffff 	andi	v0,v0,0xffff
80400ab8:	8fc30010 	lw	v1,16(s8)
80400abc:	24040019 	li	a0,25
80400ac0:	00402821 	move	a1,v0
80400ac4:	3c028040 	lui	v0,0x8040
80400ac8:	24467330 	addiu	a2,v0,29488
80400acc:	00603821 	move	a3,v1
80400ad0:	0c0b58b6 	jal	802d62d8 <PrintInt>
80400ad4:	00000000 	nop
80400ad8:	8f83007c 	lw	v1,124(gp)
80400adc:	8fc20010 	lw	v0,16(s8)
80400ae0:	2442000a 	addiu	v0,v0,10
80400ae4:	00021080 	sll	v0,v0,0x2
80400ae8:	00621021 	addu	v0,v1,v0
80400aec:	8c420004 	lw	v0,4(v0)
80400af0:	c4420020 	lwc1	$f2,32(v0)
80400af4:	c7800080 	lwc1	$f0,128(gp)
80400af8:	46001032 	c.eq.s	$f2,$f0
80400afc:	00000000 	nop
80400b00:	4501000b 	bc1t	80400b30 <MenuPage02+0xec>
80400b04:	00000000 	nop
80400b08:	8f83007c 	lw	v1,124(gp)
80400b0c:	8fc20010 	lw	v0,16(s8)
80400b10:	2442000a 	addiu	v0,v0,10
80400b14:	00021080 	sll	v0,v0,0x2
80400b18:	00621021 	addu	v0,v1,v0
80400b1c:	8c430004 	lw	v1,4(v0)
80400b20:	3c028022 	lui	v0,0x8022
80400b24:	34425bd8 	ori	v0,v0,0x5bd8
80400b28:	14620012 	bne	v1,v0,80400b74 <MenuPage02+0x130>
80400b2c:	00000000 	nop
80400b30:	8fc20010 	lw	v0,16(s8)
80400b34:	00021880 	sll	v1,v0,0x2
80400b38:	00031080 	sll	v0,v1,0x2
80400b3c:	00621021 	addu	v0,v1,v0
80400b40:	00021023 	negu	v0,v0
80400b44:	3042ffff 	andi	v0,v0,0xffff
80400b48:	244200b4 	addiu	v0,v0,180
80400b4c:	3042ffff 	andi	v0,v0,0xffff
80400b50:	24040064 	li	a0,100
80400b54:	00402821 	move	a1,v0
80400b58:	3c028040 	lui	v0,0x8040
80400b5c:	24467338 	addiu	a2,v0,29496
80400b60:	00003821 	move	a3,zero
80400b64:	0c0b58b6 	jal	802d62d8 <PrintInt>
80400b68:	00000000 	nop
80400b6c:	081002ec 	j	80400bb0 <MenuPage02+0x16c>
80400b70:	00000000 	nop
80400b74:	8fc20010 	lw	v0,16(s8)
80400b78:	00021880 	sll	v1,v0,0x2
80400b7c:	00031080 	sll	v0,v1,0x2
80400b80:	00621021 	addu	v0,v1,v0
80400b84:	00021023 	negu	v0,v0
80400b88:	3042ffff 	andi	v0,v0,0xffff
80400b8c:	244200b4 	addiu	v0,v0,180
80400b90:	3042ffff 	andi	v0,v0,0xffff
80400b94:	24040064 	li	a0,100
80400b98:	00402821 	move	a1,v0
80400b9c:	3c028040 	lui	v0,0x8040
80400ba0:	2446733c 	addiu	a2,v0,29500
80400ba4:	00003821 	move	a3,zero
80400ba8:	0c0b58b6 	jal	802d62d8 <PrintInt>
80400bac:	00000000 	nop
80400bb0:	8fc20010 	lw	v0,16(s8)
80400bb4:	24420001 	addiu	v0,v0,1
80400bb8:	afc20010 	sw	v0,16(s8)
80400bbc:	8fc20010 	lw	v0,16(s8)
80400bc0:	28420008 	slti	v0,v0,8
80400bc4:	1440ffb4 	bnez	v0,80400a98 <MenuPage02+0x54>
80400bc8:	00000000 	nop
80400bcc:	24020008 	li	v0,8
80400bd0:	afc20010 	sw	v0,16(s8)
80400bd4:	08100340 	j	80400d00 <MenuPage02+0x2bc>
80400bd8:	00000000 	nop
80400bdc:	8fc20010 	lw	v0,16(s8)
80400be0:	00021880 	sll	v1,v0,0x2
80400be4:	00031080 	sll	v0,v1,0x2
80400be8:	00621021 	addu	v0,v1,v0
80400bec:	00021023 	negu	v0,v0
80400bf0:	3042ffff 	andi	v0,v0,0xffff
80400bf4:	24420154 	addiu	v0,v0,340
80400bf8:	3042ffff 	andi	v0,v0,0xffff
80400bfc:	8fc30010 	lw	v1,16(s8)
80400c00:	240400af 	li	a0,175
80400c04:	00402821 	move	a1,v0
80400c08:	3c028040 	lui	v0,0x8040
80400c0c:	24467330 	addiu	a2,v0,29488
80400c10:	00603821 	move	a3,v1
80400c14:	0c0b58b6 	jal	802d62d8 <PrintInt>
80400c18:	00000000 	nop
80400c1c:	8f83007c 	lw	v1,124(gp)
80400c20:	8fc20010 	lw	v0,16(s8)
80400c24:	2442000a 	addiu	v0,v0,10
80400c28:	00021080 	sll	v0,v0,0x2
80400c2c:	00621021 	addu	v0,v1,v0
80400c30:	8c420004 	lw	v0,4(v0)
80400c34:	c4420020 	lwc1	$f2,32(v0)
80400c38:	c7800080 	lwc1	$f0,128(gp)
80400c3c:	46001032 	c.eq.s	$f2,$f0
80400c40:	00000000 	nop
80400c44:	4501000b 	bc1t	80400c74 <MenuPage02+0x230>
80400c48:	00000000 	nop
80400c4c:	8f83007c 	lw	v1,124(gp)
80400c50:	8fc20010 	lw	v0,16(s8)
80400c54:	2442000a 	addiu	v0,v0,10
80400c58:	00021080 	sll	v0,v0,0x2
80400c5c:	00621021 	addu	v0,v1,v0
80400c60:	8c430004 	lw	v1,4(v0)
80400c64:	3c028022 	lui	v0,0x8022
80400c68:	34425bd8 	ori	v0,v0,0x5bd8
80400c6c:	14620012 	bne	v1,v0,80400cb8 <MenuPage02+0x274>
80400c70:	00000000 	nop
80400c74:	8fc20010 	lw	v0,16(s8)
80400c78:	00021880 	sll	v1,v0,0x2
80400c7c:	00031080 	sll	v0,v1,0x2
80400c80:	00621021 	addu	v0,v1,v0
80400c84:	00021023 	negu	v0,v0
80400c88:	3042ffff 	andi	v0,v0,0xffff
80400c8c:	24420154 	addiu	v0,v0,340
80400c90:	3042ffff 	andi	v0,v0,0xffff
80400c94:	240400fa 	li	a0,250
80400c98:	00402821 	move	a1,v0
80400c9c:	3c028040 	lui	v0,0x8040
80400ca0:	24467338 	addiu	a2,v0,29496
80400ca4:	00003821 	move	a3,zero
80400ca8:	0c0b58b6 	jal	802d62d8 <PrintInt>
80400cac:	00000000 	nop
80400cb0:	0810033d 	j	80400cf4 <MenuPage02+0x2b0>
80400cb4:	00000000 	nop
80400cb8:	8fc20010 	lw	v0,16(s8)
80400cbc:	00021880 	sll	v1,v0,0x2
80400cc0:	00031080 	sll	v0,v1,0x2
80400cc4:	00621021 	addu	v0,v1,v0
80400cc8:	00021023 	negu	v0,v0
80400ccc:	3042ffff 	andi	v0,v0,0xffff
80400cd0:	24420154 	addiu	v0,v0,340
80400cd4:	3042ffff 	andi	v0,v0,0xffff
80400cd8:	240400fa 	li	a0,250
80400cdc:	00402821 	move	a1,v0
80400ce0:	3c028040 	lui	v0,0x8040
80400ce4:	2446733c 	addiu	a2,v0,29500
80400ce8:	00003821 	move	a3,zero
80400cec:	0c0b58b6 	jal	802d62d8 <PrintInt>
80400cf0:	00000000 	nop
80400cf4:	8fc20010 	lw	v0,16(s8)
80400cf8:	24420001 	addiu	v0,v0,1
80400cfc:	afc20010 	sw	v0,16(s8)
80400d00:	8fc20010 	lw	v0,16(s8)
80400d04:	28420010 	slti	v0,v0,16
80400d08:	1440ffb4 	bnez	v0,80400bdc <MenuPage02+0x198>
80400d0c:	00000000 	nop
80400d10:	8f82001c 	lw	v0,28(gp)
80400d14:	8c420000 	lw	v0,0(v0)
80400d18:	28420008 	slti	v0,v0,8
80400d1c:	10400013 	beqz	v0,80400d6c <MenuPage02+0x328>
80400d20:	00000000 	nop
80400d24:	8f82001c 	lw	v0,28(gp)
80400d28:	8c420000 	lw	v0,0(v0)
80400d2c:	00021880 	sll	v1,v0,0x2
80400d30:	00031080 	sll	v0,v1,0x2
80400d34:	00621021 	addu	v0,v1,v0
80400d38:	00021023 	negu	v0,v0
80400d3c:	3042ffff 	andi	v0,v0,0xffff
80400d40:	244200b4 	addiu	v0,v0,180
80400d44:	3042ffff 	andi	v0,v0,0xffff
80400d48:	2404000a 	li	a0,10
80400d4c:	00402821 	move	a1,v0
80400d50:	3c028040 	lui	v0,0x8040
80400d54:	244672d0 	addiu	a2,v0,29392
80400d58:	00003821 	move	a3,zero
80400d5c:	0c0b58b6 	jal	802d62d8 <PrintInt>
80400d60:	00000000 	nop
80400d64:	0810036b 	j	80400dac <MenuPage02+0x368>
80400d68:	00000000 	nop
80400d6c:	8f82001c 	lw	v0,28(gp)
80400d70:	8c420000 	lw	v0,0(v0)
80400d74:	00021880 	sll	v1,v0,0x2
80400d78:	00031080 	sll	v0,v1,0x2
80400d7c:	00621021 	addu	v0,v1,v0
80400d80:	00021023 	negu	v0,v0
80400d84:	3042ffff 	andi	v0,v0,0xffff
80400d88:	24420154 	addiu	v0,v0,340
80400d8c:	3042ffff 	andi	v0,v0,0xffff
80400d90:	240400a0 	li	a0,160
80400d94:	00402821 	move	a1,v0
80400d98:	3c028040 	lui	v0,0x8040
80400d9c:	244672d0 	addiu	a2,v0,29392
80400da0:	00003821 	move	a3,zero
80400da4:	0c0b58b6 	jal	802d62d8 <PrintInt>
80400da8:	00000000 	nop
80400dac:	8f820004 	lw	v0,4(gp)
80400db0:	8c42009c 	lw	v0,156(v0)
80400db4:	94420010 	lhu	v0,16(v0)
80400db8:	30420100 	andi	v0,v0,0x100
80400dbc:	1040001e 	beqz	v0,80400e38 <MenuPage02+0x3f4>
80400dc0:	00000000 	nop
80400dc4:	8f820018 	lw	v0,24(gp)
80400dc8:	8c420000 	lw	v0,0(v0)
80400dcc:	28420004 	slti	v0,v0,4
80400dd0:	14400019 	bnez	v0,80400e38 <MenuPage02+0x3f4>
80400dd4:	00000000 	nop
80400dd8:	8f83007c 	lw	v1,124(gp)
80400ddc:	8f82001c 	lw	v0,28(gp)
80400de0:	8c420000 	lw	v0,0(v0)
80400de4:	2442000a 	addiu	v0,v0,10
80400de8:	00021080 	sll	v0,v0,0x2
80400dec:	00621021 	addu	v0,v1,v0
80400df0:	8c420004 	lw	v0,4(v0)
80400df4:	c4420020 	lwc1	$f2,32(v0)
80400df8:	c7800080 	lwc1	$f0,128(gp)
80400dfc:	46001032 	c.eq.s	$f2,$f0
80400e00:	00000000 	nop
80400e04:	4501000c 	bc1t	80400e38 <MenuPage02+0x3f4>
80400e08:	00000000 	nop
80400e0c:	8f83007c 	lw	v1,124(gp)
80400e10:	8f82001c 	lw	v0,28(gp)
80400e14:	8c420000 	lw	v0,0(v0)
80400e18:	2442000a 	addiu	v0,v0,10
80400e1c:	00021080 	sll	v0,v0,0x2
80400e20:	00621021 	addu	v0,v1,v0
80400e24:	8c420004 	lw	v0,4(v0)
80400e28:	c7800080 	lwc1	$f0,128(gp)
80400e2c:	e4400020 	swc1	$f0,32(v0)
80400e30:	8f820018 	lw	v0,24(gp)
80400e34:	ac400000 	sw	zero,0(v0)
80400e38:	8f820004 	lw	v0,4(gp)
80400e3c:	8c42009c 	lw	v0,156(v0)
80400e40:	94420010 	lhu	v0,16(v0)
80400e44:	30420200 	andi	v0,v0,0x200
80400e48:	10400011 	beqz	v0,80400e90 <MenuPage02+0x44c>
80400e4c:	00000000 	nop
80400e50:	8f820018 	lw	v0,24(gp)
80400e54:	8c420000 	lw	v0,0(v0)
80400e58:	28420004 	slti	v0,v0,4
80400e5c:	1440000c 	bnez	v0,80400e90 <MenuPage02+0x44c>
80400e60:	00000000 	nop
80400e64:	8f83007c 	lw	v1,124(gp)
80400e68:	8f82001c 	lw	v0,28(gp)
80400e6c:	8c420000 	lw	v0,0(v0)
80400e70:	2442000a 	addiu	v0,v0,10
80400e74:	00021080 	sll	v0,v0,0x2
80400e78:	00621021 	addu	v0,v1,v0
80400e7c:	8c420004 	lw	v0,4(v0)
80400e80:	c7800084 	lwc1	$f0,132(gp)
80400e84:	e4400020 	swc1	$f0,32(v0)
80400e88:	8f820018 	lw	v0,24(gp)
80400e8c:	ac400000 	sw	zero,0(v0)
80400e90:	03c0e821 	move	sp,s8
80400e94:	8fbf001c 	lw	ra,28(sp)
80400e98:	8fbe0018 	lw	s8,24(sp)
80400e9c:	27bd0020 	addiu	sp,sp,32
80400ea0:	03e00008 	jr	ra
80400ea4:	00000000 	nop

80400ea8 <MenuPage03>:
80400ea8:	27bdffe0 	addiu	sp,sp,-32
80400eac:	afbf001c 	sw	ra,28(sp)
80400eb0:	afbe0018 	sw	s8,24(sp)
80400eb4:	03a0f021 	move	s8,sp
80400eb8:	8f820010 	lw	v0,16(gp)
80400ebc:	8c420000 	lw	v0,0(v0)
80400ec0:	1440001c 	bnez	v0,80400f34 <MenuPage03+0x8c>
80400ec4:	00000000 	nop
80400ec8:	8f82001c 	lw	v0,28(gp)
80400ecc:	ac400000 	sw	zero,0(v0)
80400ed0:	afc00010 	sw	zero,16(s8)
80400ed4:	081003c6 	j	80400f18 <MenuPage03+0x70>
80400ed8:	00000000 	nop
80400edc:	8fc50010 	lw	a1,16(s8)
80400ee0:	8fc30010 	lw	v1,16(s8)
80400ee4:	3c022018 	lui	v0,0x2018
80400ee8:	34422800 	ori	v0,v0,0x2800
80400eec:	00621021 	addu	v0,v1,v0
80400ef0:	00021080 	sll	v0,v0,0x2
80400ef4:	00402021 	move	a0,v0
80400ef8:	3c028041 	lui	v0,0x8041
80400efc:	00051880 	sll	v1,a1,0x2
80400f00:	24428340 	addiu	v0,v0,-31936
80400f04:	00621021 	addu	v0,v1,v0
80400f08:	ac440000 	sw	a0,0(v0)
80400f0c:	8fc20010 	lw	v0,16(s8)
80400f10:	24420001 	addiu	v0,v0,1
80400f14:	afc20010 	sw	v0,16(s8)
80400f18:	8fc20010 	lw	v0,16(s8)
80400f1c:	28420011 	slti	v0,v0,17
80400f20:	1440ffee 	bnez	v0,80400edc <MenuPage03+0x34>
80400f24:	00000000 	nop
80400f28:	8f830010 	lw	v1,16(gp)
80400f2c:	24020001 	li	v0,1
80400f30:	ac620000 	sw	v0,0(v1)
80400f34:	00002021 	move	a0,zero
80400f38:	2405000f 	li	a1,15
80400f3c:	24060001 	li	a2,1
80400f40:	0c101c3b 	jal	804070ec <ProcessSelection>
80400f44:	00000000 	nop
80400f48:	afc00010 	sw	zero,16(s8)
80400f4c:	08100426 	j	80401098 <MenuPage03+0x1f0>
80400f50:	00000000 	nop
80400f54:	8fc20010 	lw	v0,16(s8)
80400f58:	00021880 	sll	v1,v0,0x2
80400f5c:	00031080 	sll	v0,v1,0x2
80400f60:	00621021 	addu	v0,v1,v0
80400f64:	00021023 	negu	v0,v0
80400f68:	3042ffff 	andi	v0,v0,0xffff
80400f6c:	244200b4 	addiu	v0,v0,180
80400f70:	3042ffff 	andi	v0,v0,0xffff
80400f74:	8fc30010 	lw	v1,16(s8)
80400f78:	24040019 	li	a0,25
80400f7c:	00402821 	move	a1,v0
80400f80:	3c028040 	lui	v0,0x8040
80400f84:	24467330 	addiu	a2,v0,29488
80400f88:	00603821 	move	a3,v1
80400f8c:	0c0b58b6 	jal	802d62d8 <PrintInt>
80400f90:	00000000 	nop
80400f94:	8f83007c 	lw	v1,124(gp)
80400f98:	8fc20010 	lw	v0,16(s8)
80400f9c:	2442000a 	addiu	v0,v0,10
80400fa0:	00021080 	sll	v0,v0,0x2
80400fa4:	00621021 	addu	v0,v1,v0
80400fa8:	8c420004 	lw	v0,4(v0)
80400fac:	c4420020 	lwc1	$f2,32(v0)
80400fb0:	c7800080 	lwc1	$f0,128(gp)
80400fb4:	46001032 	c.eq.s	$f2,$f0
80400fb8:	00000000 	nop
80400fbc:	4501000b 	bc1t	80400fec <MenuPage03+0x144>
80400fc0:	00000000 	nop
80400fc4:	8f83007c 	lw	v1,124(gp)
80400fc8:	8fc20010 	lw	v0,16(s8)
80400fcc:	2442000a 	addiu	v0,v0,10
80400fd0:	00021080 	sll	v0,v0,0x2
80400fd4:	00621021 	addu	v0,v1,v0
80400fd8:	8c430004 	lw	v1,4(v0)
80400fdc:	3c028022 	lui	v0,0x8022
80400fe0:	34425bd8 	ori	v0,v0,0x5bd8
80400fe4:	14620012 	bne	v1,v0,80401030 <MenuPage03+0x188>
80400fe8:	00000000 	nop
80400fec:	8fc20010 	lw	v0,16(s8)
80400ff0:	00021880 	sll	v1,v0,0x2
80400ff4:	00031080 	sll	v0,v1,0x2
80400ff8:	00621021 	addu	v0,v1,v0
80400ffc:	00021023 	negu	v0,v0
80401000:	3042ffff 	andi	v0,v0,0xffff
80401004:	244200b4 	addiu	v0,v0,180
80401008:	3042ffff 	andi	v0,v0,0xffff
8040100c:	24040064 	li	a0,100
80401010:	00402821 	move	a1,v0
80401014:	3c028040 	lui	v0,0x8040
80401018:	24467338 	addiu	a2,v0,29496
8040101c:	00003821 	move	a3,zero
80401020:	0c0b58b6 	jal	802d62d8 <PrintInt>
80401024:	00000000 	nop
80401028:	08100423 	j	8040108c <MenuPage03+0x1e4>
8040102c:	00000000 	nop
80401030:	8fc20010 	lw	v0,16(s8)
80401034:	00021880 	sll	v1,v0,0x2
80401038:	00031080 	sll	v0,v1,0x2
8040103c:	00621021 	addu	v0,v1,v0
80401040:	00021023 	negu	v0,v0
80401044:	3042ffff 	andi	v0,v0,0xffff
80401048:	244200b4 	addiu	v0,v0,180
8040104c:	3042ffff 	andi	v0,v0,0xffff
80401050:	00402821 	move	a1,v0
80401054:	8fc20010 	lw	v0,16(s8)
80401058:	3c038041 	lui	v1,0x8041
8040105c:	00022080 	sll	a0,v0,0x2
80401060:	24628340 	addiu	v0,v1,-31936
80401064:	00821021 	addu	v0,a0,v0
80401068:	8c420000 	lw	v0,0(v0)
8040106c:	8c420000 	lw	v0,0(v0)
80401070:	00401821 	move	v1,v0
80401074:	24040064 	li	a0,100
80401078:	3c028040 	lui	v0,0x8040
8040107c:	24467340 	addiu	a2,v0,29504
80401080:	00603821 	move	a3,v1
80401084:	0c0b58b6 	jal	802d62d8 <PrintInt>
80401088:	00000000 	nop
8040108c:	8fc20010 	lw	v0,16(s8)
80401090:	24420001 	addiu	v0,v0,1
80401094:	afc20010 	sw	v0,16(s8)
80401098:	8fc20010 	lw	v0,16(s8)
8040109c:	28420008 	slti	v0,v0,8
804010a0:	1440ffac 	bnez	v0,80400f54 <MenuPage03+0xac>
804010a4:	00000000 	nop
804010a8:	24020008 	li	v0,8
804010ac:	afc20010 	sw	v0,16(s8)
804010b0:	0810047f 	j	804011fc <MenuPage03+0x354>
804010b4:	00000000 	nop
804010b8:	8fc20010 	lw	v0,16(s8)
804010bc:	00021880 	sll	v1,v0,0x2
804010c0:	00031080 	sll	v0,v1,0x2
804010c4:	00621021 	addu	v0,v1,v0
804010c8:	00021023 	negu	v0,v0
804010cc:	3042ffff 	andi	v0,v0,0xffff
804010d0:	24420154 	addiu	v0,v0,340
804010d4:	3042ffff 	andi	v0,v0,0xffff
804010d8:	8fc30010 	lw	v1,16(s8)
804010dc:	240400af 	li	a0,175
804010e0:	00402821 	move	a1,v0
804010e4:	3c028040 	lui	v0,0x8040
804010e8:	24467330 	addiu	a2,v0,29488
804010ec:	00603821 	move	a3,v1
804010f0:	0c0b58b6 	jal	802d62d8 <PrintInt>
804010f4:	00000000 	nop
804010f8:	8f83007c 	lw	v1,124(gp)
804010fc:	8fc20010 	lw	v0,16(s8)
80401100:	2442000a 	addiu	v0,v0,10
80401104:	00021080 	sll	v0,v0,0x2
80401108:	00621021 	addu	v0,v1,v0
8040110c:	8c420004 	lw	v0,4(v0)
80401110:	c4420020 	lwc1	$f2,32(v0)
80401114:	c7800080 	lwc1	$f0,128(gp)
80401118:	46001032 	c.eq.s	$f2,$f0
8040111c:	00000000 	nop
80401120:	4501000b 	bc1t	80401150 <MenuPage03+0x2a8>
80401124:	00000000 	nop
80401128:	8f83007c 	lw	v1,124(gp)
8040112c:	8fc20010 	lw	v0,16(s8)
80401130:	2442000a 	addiu	v0,v0,10
80401134:	00021080 	sll	v0,v0,0x2
80401138:	00621021 	addu	v0,v1,v0
8040113c:	8c430004 	lw	v1,4(v0)
80401140:	3c028022 	lui	v0,0x8022
80401144:	34425bd8 	ori	v0,v0,0x5bd8
80401148:	14620012 	bne	v1,v0,80401194 <MenuPage03+0x2ec>
8040114c:	00000000 	nop
80401150:	8fc20010 	lw	v0,16(s8)
80401154:	00021880 	sll	v1,v0,0x2
80401158:	00031080 	sll	v0,v1,0x2
8040115c:	00621021 	addu	v0,v1,v0
80401160:	00021023 	negu	v0,v0
80401164:	3042ffff 	andi	v0,v0,0xffff
80401168:	24420154 	addiu	v0,v0,340
8040116c:	3042ffff 	andi	v0,v0,0xffff
80401170:	240400fa 	li	a0,250
80401174:	00402821 	move	a1,v0
80401178:	3c028040 	lui	v0,0x8040
8040117c:	24467338 	addiu	a2,v0,29496
80401180:	00003821 	move	a3,zero
80401184:	0c0b58b6 	jal	802d62d8 <PrintInt>
80401188:	00000000 	nop
8040118c:	0810047c 	j	804011f0 <MenuPage03+0x348>
80401190:	00000000 	nop
80401194:	8fc20010 	lw	v0,16(s8)
80401198:	00021880 	sll	v1,v0,0x2
8040119c:	00031080 	sll	v0,v1,0x2
804011a0:	00621021 	addu	v0,v1,v0
804011a4:	00021023 	negu	v0,v0
804011a8:	3042ffff 	andi	v0,v0,0xffff
804011ac:	24420154 	addiu	v0,v0,340
804011b0:	3042ffff 	andi	v0,v0,0xffff
804011b4:	00402821 	move	a1,v0
804011b8:	8fc20010 	lw	v0,16(s8)
804011bc:	3c038041 	lui	v1,0x8041
804011c0:	00022080 	sll	a0,v0,0x2
804011c4:	24628340 	addiu	v0,v1,-31936
804011c8:	00821021 	addu	v0,a0,v0
804011cc:	8c420000 	lw	v0,0(v0)
804011d0:	8c420000 	lw	v0,0(v0)
804011d4:	00401821 	move	v1,v0
804011d8:	240400fa 	li	a0,250
804011dc:	3c028040 	lui	v0,0x8040
804011e0:	24467340 	addiu	a2,v0,29504
804011e4:	00603821 	move	a3,v1
804011e8:	0c0b58b6 	jal	802d62d8 <PrintInt>
804011ec:	00000000 	nop
804011f0:	8fc20010 	lw	v0,16(s8)
804011f4:	24420001 	addiu	v0,v0,1
804011f8:	afc20010 	sw	v0,16(s8)
804011fc:	8fc20010 	lw	v0,16(s8)
80401200:	28420010 	slti	v0,v0,16
80401204:	1440ffac 	bnez	v0,804010b8 <MenuPage03+0x210>
80401208:	00000000 	nop
8040120c:	8f82001c 	lw	v0,28(gp)
80401210:	8c420000 	lw	v0,0(v0)
80401214:	28420008 	slti	v0,v0,8
80401218:	10400013 	beqz	v0,80401268 <MenuPage03+0x3c0>
8040121c:	00000000 	nop
80401220:	8f82001c 	lw	v0,28(gp)
80401224:	8c420000 	lw	v0,0(v0)
80401228:	00021880 	sll	v1,v0,0x2
8040122c:	00031080 	sll	v0,v1,0x2
80401230:	00621021 	addu	v0,v1,v0
80401234:	00021023 	negu	v0,v0
80401238:	3042ffff 	andi	v0,v0,0xffff
8040123c:	244200b4 	addiu	v0,v0,180
80401240:	3042ffff 	andi	v0,v0,0xffff
80401244:	2404000a 	li	a0,10
80401248:	00402821 	move	a1,v0
8040124c:	3c028040 	lui	v0,0x8040
80401250:	244672d0 	addiu	a2,v0,29392
80401254:	00003821 	move	a3,zero
80401258:	0c0b58b6 	jal	802d62d8 <PrintInt>
8040125c:	00000000 	nop
80401260:	081004aa 	j	804012a8 <MenuPage03+0x400>
80401264:	00000000 	nop
80401268:	8f82001c 	lw	v0,28(gp)
8040126c:	8c420000 	lw	v0,0(v0)
80401270:	00021880 	sll	v1,v0,0x2
80401274:	00031080 	sll	v0,v1,0x2
80401278:	00621021 	addu	v0,v1,v0
8040127c:	00021023 	negu	v0,v0
80401280:	3042ffff 	andi	v0,v0,0xffff
80401284:	24420154 	addiu	v0,v0,340
80401288:	3042ffff 	andi	v0,v0,0xffff
8040128c:	240400a0 	li	a0,160
80401290:	00402821 	move	a1,v0
80401294:	3c028040 	lui	v0,0x8040
80401298:	244672d0 	addiu	a2,v0,29392
8040129c:	00003821 	move	a3,zero
804012a0:	0c0b58b6 	jal	802d62d8 <PrintInt>
804012a4:	00000000 	nop
804012a8:	8f820004 	lw	v0,4(gp)
804012ac:	8c42009c 	lw	v0,156(v0)
804012b0:	94420010 	lhu	v0,16(v0)
804012b4:	30420100 	andi	v0,v0,0x100
804012b8:	1040006e 	beqz	v0,80401474 <MenuPage03+0x5cc>
804012bc:	00000000 	nop
804012c0:	8f820018 	lw	v0,24(gp)
804012c4:	8c420000 	lw	v0,0(v0)
804012c8:	28420004 	slti	v0,v0,4
804012cc:	14400069 	bnez	v0,80401474 <MenuPage03+0x5cc>
804012d0:	00000000 	nop
804012d4:	8f83007c 	lw	v1,124(gp)
804012d8:	8f82001c 	lw	v0,28(gp)
804012dc:	8c420000 	lw	v0,0(v0)
804012e0:	2442000a 	addiu	v0,v0,10
804012e4:	00021080 	sll	v0,v0,0x2
804012e8:	00621021 	addu	v0,v1,v0
804012ec:	8c420004 	lw	v0,4(v0)
804012f0:	c4420020 	lwc1	$f2,32(v0)
804012f4:	c7800080 	lwc1	$f0,128(gp)
804012f8:	46001032 	c.eq.s	$f2,$f0
804012fc:	00000000 	nop
80401300:	4500000c 	bc1f	80401334 <MenuPage03+0x48c>
80401304:	00000000 	nop
80401308:	8f83007c 	lw	v1,124(gp)
8040130c:	8f82001c 	lw	v0,28(gp)
80401310:	8c420000 	lw	v0,0(v0)
80401314:	2442000a 	addiu	v0,v0,10
80401318:	00021080 	sll	v0,v0,0x2
8040131c:	00621021 	addu	v0,v1,v0
80401320:	8c430004 	lw	v1,4(v0)
80401324:	3c028022 	lui	v0,0x8022
80401328:	34425bd8 	ori	v0,v0,0x5bd8
8040132c:	1062004f 	beq	v1,v0,8040146c <MenuPage03+0x5c4>
80401330:	00000000 	nop
80401334:	8f82001c 	lw	v0,28(gp)
80401338:	8c420000 	lw	v0,0(v0)
8040133c:	3c038041 	lui	v1,0x8041
80401340:	00022080 	sll	a0,v0,0x2
80401344:	24628340 	addiu	v0,v1,-31936
80401348:	00821021 	addu	v0,a0,v0
8040134c:	8c450000 	lw	a1,0(v0)
80401350:	8f82001c 	lw	v0,28(gp)
80401354:	8c420000 	lw	v0,0(v0)
80401358:	3c038041 	lui	v1,0x8041
8040135c:	00022080 	sll	a0,v0,0x2
80401360:	24628340 	addiu	v0,v1,-31936
80401364:	00821021 	addu	v0,a0,v0
80401368:	8c420000 	lw	v0,0(v0)
8040136c:	8c420000 	lw	v0,0(v0)
80401370:	24420001 	addiu	v0,v0,1
80401374:	aca20000 	sw	v0,0(a1)
80401378:	8f82001c 	lw	v0,28(gp)
8040137c:	8c420000 	lw	v0,0(v0)
80401380:	3c038041 	lui	v1,0x8041
80401384:	00022080 	sll	a0,v0,0x2
80401388:	24628340 	addiu	v0,v1,-31936
8040138c:	00821021 	addu	v0,a0,v0
80401390:	8c420000 	lw	v0,0(v0)
80401394:	8c430000 	lw	v1,0(v0)
80401398:	24020014 	li	v0,20
8040139c:	1462000a 	bne	v1,v0,804013c8 <MenuPage03+0x520>
804013a0:	00000000 	nop
804013a4:	8f82001c 	lw	v0,28(gp)
804013a8:	8c420000 	lw	v0,0(v0)
804013ac:	3c038041 	lui	v1,0x8041
804013b0:	00022080 	sll	a0,v0,0x2
804013b4:	24628340 	addiu	v0,v1,-31936
804013b8:	00821021 	addu	v0,a0,v0
804013bc:	8c430000 	lw	v1,0(v0)
804013c0:	2402007f 	li	v0,127
804013c4:	ac620000 	sw	v0,0(v1)
804013c8:	8f82001c 	lw	v0,28(gp)
804013cc:	8c420000 	lw	v0,0(v0)
804013d0:	3c038041 	lui	v1,0x8041
804013d4:	00022080 	sll	a0,v0,0x2
804013d8:	24628340 	addiu	v0,v1,-31936
804013dc:	00821021 	addu	v0,a0,v0
804013e0:	8c420000 	lw	v0,0(v0)
804013e4:	8c420000 	lw	v0,0(v0)
804013e8:	28420080 	slti	v0,v0,128
804013ec:	1440000a 	bnez	v0,80401418 <MenuPage03+0x570>
804013f0:	00000000 	nop
804013f4:	8f82001c 	lw	v0,28(gp)
804013f8:	8c420000 	lw	v0,0(v0)
804013fc:	3c038041 	lui	v1,0x8041
80401400:	00022080 	sll	a0,v0,0x2
80401404:	24628340 	addiu	v0,v1,-31936
80401408:	00821021 	addu	v0,a0,v0
8040140c:	8c430000 	lw	v1,0(v0)
80401410:	2402007f 	li	v0,127
80401414:	ac620000 	sw	v0,0(v1)
80401418:	8f83007c 	lw	v1,124(gp)
8040141c:	8f82001c 	lw	v0,28(gp)
80401420:	8c420000 	lw	v0,0(v0)
80401424:	2442000a 	addiu	v0,v0,10
80401428:	00021080 	sll	v0,v0,0x2
8040142c:	00621021 	addu	v0,v1,v0
80401430:	8c420004 	lw	v0,4(v0)
80401434:	00402821 	move	a1,v0
80401438:	8f82001c 	lw	v0,28(gp)
8040143c:	8c420000 	lw	v0,0(v0)
80401440:	3c038041 	lui	v1,0x8041
80401444:	00022080 	sll	a0,v0,0x2
80401448:	24628340 	addiu	v0,v1,-31936
8040144c:	00821021 	addu	v0,a0,v0
80401450:	8c420000 	lw	v0,0(v0)
80401454:	8c420000 	lw	v0,0(v0)
80401458:	304200ff 	andi	v0,v0,0xff
8040145c:	00a02021 	move	a0,a1
80401460:	00402821 	move	a1,v0
80401464:	0c0c73f5 	jal	8031cfd4 <SetInstrument>
80401468:	00000000 	nop
8040146c:	8f820018 	lw	v0,24(gp)
80401470:	ac400000 	sw	zero,0(v0)
80401474:	8f820004 	lw	v0,4(gp)
80401478:	8c42009c 	lw	v0,156(v0)
8040147c:	94420010 	lhu	v0,16(v0)
80401480:	30420200 	andi	v0,v0,0x200
80401484:	1040006d 	beqz	v0,8040163c <MenuPage03+0x794>
80401488:	00000000 	nop
8040148c:	8f820018 	lw	v0,24(gp)
80401490:	8c420000 	lw	v0,0(v0)
80401494:	28420004 	slti	v0,v0,4
80401498:	14400068 	bnez	v0,8040163c <MenuPage03+0x794>
8040149c:	00000000 	nop
804014a0:	8f83007c 	lw	v1,124(gp)
804014a4:	8f82001c 	lw	v0,28(gp)
804014a8:	8c420000 	lw	v0,0(v0)
804014ac:	2442000a 	addiu	v0,v0,10
804014b0:	00021080 	sll	v0,v0,0x2
804014b4:	00621021 	addu	v0,v1,v0
804014b8:	8c420004 	lw	v0,4(v0)
804014bc:	c4420020 	lwc1	$f2,32(v0)
804014c0:	c7800080 	lwc1	$f0,128(gp)
804014c4:	46001032 	c.eq.s	$f2,$f0
804014c8:	00000000 	nop
804014cc:	4500000c 	bc1f	80401500 <MenuPage03+0x658>
804014d0:	00000000 	nop
804014d4:	8f83007c 	lw	v1,124(gp)
804014d8:	8f82001c 	lw	v0,28(gp)
804014dc:	8c420000 	lw	v0,0(v0)
804014e0:	2442000a 	addiu	v0,v0,10
804014e4:	00021080 	sll	v0,v0,0x2
804014e8:	00621021 	addu	v0,v1,v0
804014ec:	8c430004 	lw	v1,4(v0)
804014f0:	3c028022 	lui	v0,0x8022
804014f4:	34425bd8 	ori	v0,v0,0x5bd8
804014f8:	1062004e 	beq	v1,v0,80401634 <MenuPage03+0x78c>
804014fc:	00000000 	nop
80401500:	8f82001c 	lw	v0,28(gp)
80401504:	8c420000 	lw	v0,0(v0)
80401508:	3c038041 	lui	v1,0x8041
8040150c:	00022080 	sll	a0,v0,0x2
80401510:	24628340 	addiu	v0,v1,-31936
80401514:	00821021 	addu	v0,a0,v0
80401518:	8c450000 	lw	a1,0(v0)
8040151c:	8f82001c 	lw	v0,28(gp)
80401520:	8c420000 	lw	v0,0(v0)
80401524:	3c038041 	lui	v1,0x8041
80401528:	00022080 	sll	a0,v0,0x2
8040152c:	24628340 	addiu	v0,v1,-31936
80401530:	00821021 	addu	v0,a0,v0
80401534:	8c420000 	lw	v0,0(v0)
80401538:	8c420000 	lw	v0,0(v0)
8040153c:	2442ffff 	addiu	v0,v0,-1
80401540:	aca20000 	sw	v0,0(a1)
80401544:	8f82001c 	lw	v0,28(gp)
80401548:	8c420000 	lw	v0,0(v0)
8040154c:	3c038041 	lui	v1,0x8041
80401550:	00022080 	sll	a0,v0,0x2
80401554:	24628340 	addiu	v0,v1,-31936
80401558:	00821021 	addu	v0,a0,v0
8040155c:	8c420000 	lw	v0,0(v0)
80401560:	8c420000 	lw	v0,0(v0)
80401564:	0441000a 	bgez	v0,80401590 <MenuPage03+0x6e8>
80401568:	00000000 	nop
8040156c:	8f82001c 	lw	v0,28(gp)
80401570:	8c420000 	lw	v0,0(v0)
80401574:	3c038041 	lui	v1,0x8041
80401578:	00022080 	sll	a0,v0,0x2
8040157c:	24628340 	addiu	v0,v1,-31936
80401580:	00821021 	addu	v0,a0,v0
80401584:	8c430000 	lw	v1,0(v0)
80401588:	2402007f 	li	v0,127
8040158c:	ac620000 	sw	v0,0(v1)
80401590:	8f82001c 	lw	v0,28(gp)
80401594:	8c420000 	lw	v0,0(v0)
80401598:	3c038041 	lui	v1,0x8041
8040159c:	00022080 	sll	a0,v0,0x2
804015a0:	24628340 	addiu	v0,v1,-31936
804015a4:	00821021 	addu	v0,a0,v0
804015a8:	8c420000 	lw	v0,0(v0)
804015ac:	8c430000 	lw	v1,0(v0)
804015b0:	2402007e 	li	v0,126
804015b4:	1462000a 	bne	v1,v0,804015e0 <MenuPage03+0x738>
804015b8:	00000000 	nop
804015bc:	8f82001c 	lw	v0,28(gp)
804015c0:	8c420000 	lw	v0,0(v0)
804015c4:	3c038041 	lui	v1,0x8041
804015c8:	00022080 	sll	a0,v0,0x2
804015cc:	24628340 	addiu	v0,v1,-31936
804015d0:	00821021 	addu	v0,a0,v0
804015d4:	8c430000 	lw	v1,0(v0)
804015d8:	24020013 	li	v0,19
804015dc:	ac620000 	sw	v0,0(v1)
804015e0:	8f83007c 	lw	v1,124(gp)
804015e4:	8f82001c 	lw	v0,28(gp)
804015e8:	8c420000 	lw	v0,0(v0)
804015ec:	2442000a 	addiu	v0,v0,10
804015f0:	00021080 	sll	v0,v0,0x2
804015f4:	00621021 	addu	v0,v1,v0
804015f8:	8c420004 	lw	v0,4(v0)
804015fc:	00402821 	move	a1,v0
80401600:	8f82001c 	lw	v0,28(gp)
80401604:	8c420000 	lw	v0,0(v0)
80401608:	3c038041 	lui	v1,0x8041
8040160c:	00022080 	sll	a0,v0,0x2
80401610:	24628340 	addiu	v0,v1,-31936
80401614:	00821021 	addu	v0,a0,v0
80401618:	8c420000 	lw	v0,0(v0)
8040161c:	8c420000 	lw	v0,0(v0)
80401620:	304200ff 	andi	v0,v0,0xff
80401624:	00a02021 	move	a0,a1
80401628:	00402821 	move	a1,v0
8040162c:	0c0c73f5 	jal	8031cfd4 <SetInstrument>
80401630:	00000000 	nop
80401634:	8f820018 	lw	v0,24(gp)
80401638:	ac400000 	sw	zero,0(v0)
8040163c:	03c0e821 	move	sp,s8
80401640:	8fbf001c 	lw	ra,28(sp)
80401644:	8fbe0018 	lw	s8,24(sp)
80401648:	27bd0020 	addiu	sp,sp,32
8040164c:	03e00008 	jr	ra
80401650:	00000000 	nop

80401654 <MenuPage04>:
80401654:	27bdffe0 	addiu	sp,sp,-32
80401658:	afbf001c 	sw	ra,28(sp)
8040165c:	afbe0018 	sw	s8,24(sp)
80401660:	03a0f021 	move	s8,sp
80401664:	8f820010 	lw	v0,16(gp)
80401668:	8c420000 	lw	v0,0(v0)
8040166c:	14400007 	bnez	v0,8040168c <MenuPage04+0x38>
80401670:	00000000 	nop
80401674:	8f83001c 	lw	v1,28(gp)
80401678:	24020006 	li	v0,6
8040167c:	ac620000 	sw	v0,0(v1)
80401680:	8f830010 	lw	v1,16(gp)
80401684:	24020001 	li	v0,1
80401688:	ac620000 	sw	v0,0(v1)
8040168c:	24040006 	li	a0,6
80401690:	24050007 	li	a1,7
80401694:	00003021 	move	a2,zero
80401698:	0c101c3b 	jal	804070ec <ProcessSelection>
8040169c:	00000000 	nop
804016a0:	8f82001c 	lw	v0,28(gp)
804016a4:	8c420000 	lw	v0,0(v0)
804016a8:	00021880 	sll	v1,v0,0x2
804016ac:	00031080 	sll	v0,v1,0x2
804016b0:	00621021 	addu	v0,v1,v0
804016b4:	3042ffff 	andi	v0,v0,0xffff
804016b8:	2404000a 	li	a0,10
804016bc:	00402821 	move	a1,v0
804016c0:	3c028040 	lui	v0,0x8040
804016c4:	244672d0 	addiu	a2,v0,29392
804016c8:	00003821 	move	a3,zero
804016cc:	0c0b58b6 	jal	802d62d8 <PrintInt>
804016d0:	00000000 	nop
804016d4:	8f82001c 	lw	v0,28(gp)
804016d8:	8c420000 	lw	v0,0(v0)
804016dc:	afc20010 	sw	v0,16(s8)
804016e0:	24020006 	li	v0,6
804016e4:	8fc30010 	lw	v1,16(s8)
804016e8:	1062003c 	beq	v1,v0,804017dc <MenuPage04+0x188>
804016ec:	00000000 	nop
804016f0:	24020007 	li	v0,7
804016f4:	8fc30010 	lw	v1,16(s8)
804016f8:	1462007b 	bne	v1,v0,804018e8 <MenuPage04+0x294>
804016fc:	00000000 	nop
80401700:	8f820004 	lw	v0,4(gp)
80401704:	8c42009c 	lw	v0,156(v0)
80401708:	94420010 	lhu	v0,16(v0)
8040170c:	30420200 	andi	v0,v0,0x200
80401710:	10400015 	beqz	v0,80401768 <MenuPage04+0x114>
80401714:	00000000 	nop
80401718:	8f820018 	lw	v0,24(gp)
8040171c:	8c420000 	lw	v0,0(v0)
80401720:	28420004 	slti	v0,v0,4
80401724:	14400010 	bnez	v0,80401768 <MenuPage04+0x114>
80401728:	00000000 	nop
8040172c:	8f820000 	lw	v0,0(gp)
80401730:	84420002 	lh	v0,2(v0)
80401734:	1840000a 	blez	v0,80401760 <MenuPage04+0x10c>
80401738:	00000000 	nop
8040173c:	8f830000 	lw	v1,0(gp)
80401740:	8f820000 	lw	v0,0(gp)
80401744:	84420002 	lh	v0,2(v0)
80401748:	3042ffff 	andi	v0,v0,0xffff
8040174c:	2442ffff 	addiu	v0,v0,-1
80401750:	3042ffff 	andi	v0,v0,0xffff
80401754:	00021400 	sll	v0,v0,0x10
80401758:	00021403 	sra	v0,v0,0x10
8040175c:	a4620002 	sh	v0,2(v1)
80401760:	8f820018 	lw	v0,24(gp)
80401764:	ac400000 	sw	zero,0(v0)
80401768:	8f820004 	lw	v0,4(gp)
8040176c:	8c42009c 	lw	v0,156(v0)
80401770:	94420010 	lhu	v0,16(v0)
80401774:	30420100 	andi	v0,v0,0x100
80401778:	1040005b 	beqz	v0,804018e8 <MenuPage04+0x294>
8040177c:	00000000 	nop
80401780:	8f820018 	lw	v0,24(gp)
80401784:	8c420000 	lw	v0,0(v0)
80401788:	28420004 	slti	v0,v0,4
8040178c:	14400056 	bnez	v0,804018e8 <MenuPage04+0x294>
80401790:	00000000 	nop
80401794:	8f820000 	lw	v0,0(gp)
80401798:	84420002 	lh	v0,2(v0)
8040179c:	28420007 	slti	v0,v0,7
804017a0:	1040000a 	beqz	v0,804017cc <MenuPage04+0x178>
804017a4:	00000000 	nop
804017a8:	8f830000 	lw	v1,0(gp)
804017ac:	8f820000 	lw	v0,0(gp)
804017b0:	84420002 	lh	v0,2(v0)
804017b4:	3042ffff 	andi	v0,v0,0xffff
804017b8:	24420001 	addiu	v0,v0,1
804017bc:	3042ffff 	andi	v0,v0,0xffff
804017c0:	00021400 	sll	v0,v0,0x10
804017c4:	00021403 	sra	v0,v0,0x10
804017c8:	a4620002 	sh	v0,2(v1)
804017cc:	8f820018 	lw	v0,24(gp)
804017d0:	ac400000 	sw	zero,0(v0)
804017d4:	0810063a 	j	804018e8 <MenuPage04+0x294>
804017d8:	00000000 	nop
804017dc:	8f820004 	lw	v0,4(gp)
804017e0:	8c42009c 	lw	v0,156(v0)
804017e4:	94420010 	lhu	v0,16(v0)
804017e8:	30420200 	andi	v0,v0,0x200
804017ec:	1040001f 	beqz	v0,8040186c <MenuPage04+0x218>
804017f0:	00000000 	nop
804017f4:	8f820018 	lw	v0,24(gp)
804017f8:	8c420000 	lw	v0,0(v0)
804017fc:	28420004 	slti	v0,v0,4
80401800:	1440001a 	bnez	v0,8040186c <MenuPage04+0x218>
80401804:	00000000 	nop
80401808:	8f820004 	lw	v0,4(gp)
8040180c:	8c420068 	lw	v0,104(v0)
80401810:	94420000 	lhu	v0,0(v0)
80401814:	10400009 	beqz	v0,8040183c <MenuPage04+0x1e8>
80401818:	00000000 	nop
8040181c:	8f820004 	lw	v0,4(gp)
80401820:	8c430068 	lw	v1,104(v0)
80401824:	8f820004 	lw	v0,4(gp)
80401828:	8c420068 	lw	v0,104(v0)
8040182c:	94420000 	lhu	v0,0(v0)
80401830:	2442ffff 	addiu	v0,v0,-1
80401834:	3042ffff 	andi	v0,v0,0xffff
80401838:	a4620000 	sh	v0,0(v1)
8040183c:	8f820004 	lw	v0,4(gp)
80401840:	8c420068 	lw	v0,104(v0)
80401844:	94430000 	lhu	v1,0(v0)
80401848:	24020064 	li	v0,100
8040184c:	14620005 	bne	v1,v0,80401864 <MenuPage04+0x210>
80401850:	00000000 	nop
80401854:	8f820004 	lw	v0,4(gp)
80401858:	8c430068 	lw	v1,104(v0)
8040185c:	2402003f 	li	v0,63
80401860:	a4620000 	sh	v0,0(v1)
80401864:	8f820018 	lw	v0,24(gp)
80401868:	ac400000 	sw	zero,0(v0)
8040186c:	8f820004 	lw	v0,4(gp)
80401870:	8c42009c 	lw	v0,156(v0)
80401874:	94420010 	lhu	v0,16(v0)
80401878:	30420100 	andi	v0,v0,0x100
8040187c:	1040001a 	beqz	v0,804018e8 <MenuPage04+0x294>
80401880:	00000000 	nop
80401884:	8f820018 	lw	v0,24(gp)
80401888:	8c420000 	lw	v0,0(v0)
8040188c:	28420004 	slti	v0,v0,4
80401890:	14400015 	bnez	v0,804018e8 <MenuPage04+0x294>
80401894:	00000000 	nop
80401898:	8f820004 	lw	v0,4(gp)
8040189c:	8c430068 	lw	v1,104(v0)
804018a0:	8f820004 	lw	v0,4(gp)
804018a4:	8c420068 	lw	v0,104(v0)
804018a8:	94420000 	lhu	v0,0(v0)
804018ac:	24420001 	addiu	v0,v0,1
804018b0:	3042ffff 	andi	v0,v0,0xffff
804018b4:	a4620000 	sh	v0,0(v1)
804018b8:	8f820004 	lw	v0,4(gp)
804018bc:	8c420068 	lw	v0,104(v0)
804018c0:	94420000 	lhu	v0,0(v0)
804018c4:	2c420040 	sltiu	v0,v0,64
804018c8:	14400005 	bnez	v0,804018e0 <MenuPage04+0x28c>
804018cc:	00000000 	nop
804018d0:	8f820004 	lw	v0,4(gp)
804018d4:	8c430068 	lw	v1,104(v0)
804018d8:	24020065 	li	v0,101
804018dc:	a4620000 	sh	v0,0(v1)
804018e0:	8f820018 	lw	v0,24(gp)
804018e4:	ac400000 	sw	zero,0(v0)
804018e8:	8f820000 	lw	v0,0(gp)
804018ec:	84420002 	lh	v0,2(v0)
804018f0:	00401821 	move	v1,v0
804018f4:	24040019 	li	a0,25
804018f8:	2405008c 	li	a1,140
804018fc:	3c028040 	lui	v0,0x8040
80401900:	24467344 	addiu	a2,v0,29508
80401904:	00603821 	move	a3,v1
80401908:	0c0b58b6 	jal	802d62d8 <PrintInt>
8040190c:	00000000 	nop
80401910:	8f820004 	lw	v0,4(gp)
80401914:	8c420068 	lw	v0,104(v0)
80401918:	94420000 	lhu	v0,0(v0)
8040191c:	00401821 	move	v1,v0
80401920:	24040019 	li	a0,25
80401924:	24050078 	li	a1,120
80401928:	3c028040 	lui	v0,0x8040
8040192c:	24467354 	addiu	a2,v0,29524
80401930:	00603821 	move	a3,v1
80401934:	0c0b58b6 	jal	802d62d8 <PrintInt>
80401938:	00000000 	nop
8040193c:	8f820004 	lw	v0,4(gp)
80401940:	8c420068 	lw	v0,104(v0)
80401944:	8442000a 	lh	v0,10(v0)
80401948:	00401821 	move	v1,v0
8040194c:	24040019 	li	a0,25
80401950:	24050064 	li	a1,100
80401954:	3c028040 	lui	v0,0x8040
80401958:	2446735c 	addiu	a2,v0,29532
8040195c:	00603821 	move	a3,v1
80401960:	0c0b58b6 	jal	802d62d8 <PrintInt>
80401964:	00000000 	nop
80401968:	8f820004 	lw	v0,4(gp)
8040196c:	8c420068 	lw	v0,104(v0)
80401970:	8442000c 	lh	v0,12(v0)
80401974:	00401821 	move	v1,v0
80401978:	240400a0 	li	a0,160
8040197c:	24050064 	li	a1,100
80401980:	3c028040 	lui	v0,0x8040
80401984:	24467340 	addiu	a2,v0,29504
80401988:	00603821 	move	a3,v1
8040198c:	0c0b58b6 	jal	802d62d8 <PrintInt>
80401990:	00000000 	nop
80401994:	8f820004 	lw	v0,4(gp)
80401998:	8c420068 	lw	v0,104(v0)
8040199c:	8442000e 	lh	v0,14(v0)
804019a0:	00401821 	move	v1,v0
804019a4:	240400f0 	li	a0,240
804019a8:	24050064 	li	a1,100
804019ac:	3c028040 	lui	v0,0x8040
804019b0:	24467340 	addiu	a2,v0,29504
804019b4:	00603821 	move	a3,v1
804019b8:	0c0b58b6 	jal	802d62d8 <PrintInt>
804019bc:	00000000 	nop
804019c0:	8f820004 	lw	v0,4(gp)
804019c4:	8c420068 	lw	v0,104(v0)
804019c8:	84420010 	lh	v0,16(v0)
804019cc:	00401821 	move	v1,v0
804019d0:	24040019 	li	a0,25
804019d4:	24050050 	li	a1,80
804019d8:	3c028040 	lui	v0,0x8040
804019dc:	24467364 	addiu	a2,v0,29540
804019e0:	00603821 	move	a3,v1
804019e4:	0c0b58b6 	jal	802d62d8 <PrintInt>
804019e8:	00000000 	nop
804019ec:	8f820004 	lw	v0,4(gp)
804019f0:	8c420068 	lw	v0,104(v0)
804019f4:	84420012 	lh	v0,18(v0)
804019f8:	00401821 	move	v1,v0
804019fc:	240400a0 	li	a0,160
80401a00:	24050050 	li	a1,80
80401a04:	3c028040 	lui	v0,0x8040
80401a08:	24467340 	addiu	a2,v0,29504
80401a0c:	00603821 	move	a3,v1
80401a10:	0c0b58b6 	jal	802d62d8 <PrintInt>
80401a14:	00000000 	nop
80401a18:	8f820004 	lw	v0,4(gp)
80401a1c:	8c420068 	lw	v0,104(v0)
80401a20:	84420014 	lh	v0,20(v0)
80401a24:	00401821 	move	v1,v0
80401a28:	240400f0 	li	a0,240
80401a2c:	24050050 	li	a1,80
80401a30:	3c028040 	lui	v0,0x8040
80401a34:	24467340 	addiu	a2,v0,29504
80401a38:	00603821 	move	a3,v1
80401a3c:	0c0b58b6 	jal	802d62d8 <PrintInt>
80401a40:	00000000 	nop
80401a44:	8f820004 	lw	v0,4(gp)
80401a48:	8c420068 	lw	v0,104(v0)
80401a4c:	84420016 	lh	v0,22(v0)
80401a50:	00401821 	move	v1,v0
80401a54:	24040019 	li	a0,25
80401a58:	2405003c 	li	a1,60
80401a5c:	3c028040 	lui	v0,0x8040
80401a60:	2446736c 	addiu	a2,v0,29548
80401a64:	00603821 	move	a3,v1
80401a68:	0c0b58b6 	jal	802d62d8 <PrintInt>
80401a6c:	00000000 	nop
80401a70:	8f820004 	lw	v0,4(gp)
80401a74:	8c420068 	lw	v0,104(v0)
80401a78:	84420018 	lh	v0,24(v0)
80401a7c:	00401821 	move	v1,v0
80401a80:	240400a0 	li	a0,160
80401a84:	2405003c 	li	a1,60
80401a88:	3c028040 	lui	v0,0x8040
80401a8c:	24467340 	addiu	a2,v0,29504
80401a90:	00603821 	move	a3,v1
80401a94:	0c0b58b6 	jal	802d62d8 <PrintInt>
80401a98:	00000000 	nop
80401a9c:	8f820004 	lw	v0,4(gp)
80401aa0:	8c420068 	lw	v0,104(v0)
80401aa4:	8442001a 	lh	v0,26(v0)
80401aa8:	00401821 	move	v1,v0
80401aac:	240400f0 	li	a0,240
80401ab0:	2405003c 	li	a1,60
80401ab4:	3c028040 	lui	v0,0x8040
80401ab8:	24467340 	addiu	a2,v0,29504
80401abc:	00603821 	move	a3,v1
80401ac0:	0c0b58b6 	jal	802d62d8 <PrintInt>
80401ac4:	00000000 	nop
80401ac8:	8f820004 	lw	v0,4(gp)
80401acc:	c4400070 	lwc1	$f0,112(v0)
80401ad0:	4600000d 	trunc.w.s	$f0,$f0
80401ad4:	44030000 	mfc1	v1,$f0
80401ad8:	24040019 	li	a0,25
80401adc:	24050028 	li	a1,40
80401ae0:	3c028040 	lui	v0,0x8040
80401ae4:	24467374 	addiu	a2,v0,29556
80401ae8:	00603821 	move	a3,v1
80401aec:	0c0b58b6 	jal	802d62d8 <PrintInt>
80401af0:	00000000 	nop
80401af4:	03c0e821 	move	sp,s8
80401af8:	8fbf001c 	lw	ra,28(sp)
80401afc:	8fbe0018 	lw	s8,24(sp)
80401b00:	27bd0020 	addiu	sp,sp,32
80401b04:	03e00008 	jr	ra
80401b08:	00000000 	nop

80401b0c <MenuPage05>:
80401b0c:	27bdff10 	addiu	sp,sp,-240
80401b10:	afbf00dc 	sw	ra,220(sp)
80401b14:	afbe00d8 	sw	s8,216(sp)
80401b18:	afb000d4 	sw	s0,212(sp)
80401b1c:	f7b600e8 	sdc1	$f22,232(sp)
80401b20:	f7b400e0 	sdc1	$f20,224(sp)
80401b24:	03a0f021 	move	s8,sp
80401b28:	afc00054 	sw	zero,84(s8)
80401b2c:	3c028060 	lui	v0,0x8060
80401b30:	34428000 	ori	v0,v0,0x8000
80401b34:	afc20050 	sw	v0,80(s8)
80401b38:	8f820068 	lw	v0,104(gp)
80401b3c:	8c420000 	lw	v0,0(v0)
80401b40:	3c038041 	lui	v1,0x8041
80401b44:	00022080 	sll	a0,v0,0x2
80401b48:	246281cc 	addiu	v0,v1,-32308
80401b4c:	00821021 	addu	v0,a0,v0
80401b50:	8c420000 	lw	v0,0(v0)
80401b54:	afc2004c 	sw	v0,76(s8)
80401b58:	8f820010 	lw	v0,16(gp)
80401b5c:	8c420000 	lw	v0,0(v0)
80401b60:	14400027 	bnez	v0,80401c00 <MenuPage05+0xf4>
80401b64:	00000000 	nop
80401b68:	8f830040 	lw	v1,64(gp)
80401b6c:	240200c0 	li	v0,192
80401b70:	ac620000 	sw	v0,0(v1)
80401b74:	8f820040 	lw	v0,64(gp)
80401b78:	8c420000 	lw	v0,0(v0)
80401b7c:	00401821 	move	v1,v0
80401b80:	3c02200c 	lui	v0,0x200c
80401b84:	3442ed34 	ori	v0,v0,0xed34
80401b88:	00621021 	addu	v0,v1,v0
80401b8c:	00021080 	sll	v0,v0,0x2
80401b90:	afc20048 	sw	v0,72(s8)
80401b94:	8fc20048 	lw	v0,72(s8)
80401b98:	8c420000 	lw	v0,0(v0)
80401b9c:	1440000f 	bnez	v0,80401bdc <MenuPage05+0xd0>
80401ba0:	00000000 	nop
80401ba4:	081006f3 	j	80401bcc <MenuPage05+0xc0>
80401ba8:	00000000 	nop
80401bac:	8f830040 	lw	v1,64(gp)
80401bb0:	8f820040 	lw	v0,64(gp)
80401bb4:	8c420000 	lw	v0,0(v0)
80401bb8:	2442ffff 	addiu	v0,v0,-1
80401bbc:	ac620000 	sw	v0,0(v1)
80401bc0:	8fc20048 	lw	v0,72(s8)
80401bc4:	2442fffc 	addiu	v0,v0,-4
80401bc8:	afc20048 	sw	v0,72(s8)
80401bcc:	8fc20048 	lw	v0,72(s8)
80401bd0:	8c420000 	lw	v0,0(v0)
80401bd4:	1440fff5 	bnez	v0,80401bac <MenuPage05+0xa0>
80401bd8:	00000000 	nop
80401bdc:	8f83001c 	lw	v1,28(gp)
80401be0:	24020001 	li	v0,1
80401be4:	ac620000 	sw	v0,0(v1)
80401be8:	8f830010 	lw	v1,16(gp)
80401bec:	24020001 	li	v0,1
80401bf0:	ac620000 	sw	v0,0(v1)
80401bf4:	8f830028 	lw	v1,40(gp)
80401bf8:	2402000f 	li	v0,15
80401bfc:	ac620000 	sw	v0,0(v1)
80401c00:	8f820004 	lw	v0,4(gp)
80401c04:	8c42009c 	lw	v0,156(v0)
80401c08:	94420010 	lhu	v0,16(v0)
80401c0c:	30420020 	andi	v0,v0,0x20
80401c10:	10400106 	beqz	v0,8040202c <MenuPage05+0x520>
80401c14:	00000000 	nop
80401c18:	8f820004 	lw	v0,4(gp)
80401c1c:	8c42009c 	lw	v0,156(v0)
80401c20:	94420010 	lhu	v0,16(v0)
80401c24:	30420800 	andi	v0,v0,0x800
80401c28:	10400100 	beqz	v0,8040202c <MenuPage05+0x520>
80401c2c:	00000000 	nop
80401c30:	03a01021 	move	v0,sp
80401c34:	afc200a8 	sw	v0,168(s8)
80401c38:	8f82001c 	lw	v0,28(gp)
80401c3c:	8c430000 	lw	v1,0(v0)
80401c40:	2402000e 	li	v0,14
80401c44:	14620004 	bne	v1,v0,80401c58 <MenuPage05+0x14c>
80401c48:	00000000 	nop
80401c4c:	8f83001c 	lw	v1,28(gp)
80401c50:	2402000d 	li	v0,13
80401c54:	ac620000 	sw	v0,0(v1)
80401c58:	8f82000c 	lw	v0,12(gp)
80401c5c:	8c420000 	lw	v0,0(v0)
80401c60:	afc20068 	sw	v0,104(s8)
80401c64:	8f83000c 	lw	v1,12(gp)
80401c68:	3c028033 	lui	v0,0x8033
80401c6c:	3442d488 	ori	v0,v0,0xd488
80401c70:	ac620000 	sw	v0,0(v1)
80401c74:	3c028060 	lui	v0,0x8060
80401c78:	34428010 	ori	v0,v0,0x8010
80401c7c:	afc20050 	sw	v0,80(s8)
80401c80:	afc00060 	sw	zero,96(s8)
80401c84:	08100764 	j	80401d90 <MenuPage05+0x284>
80401c88:	00000000 	nop
80401c8c:	8f820008 	lw	v0,8(gp)
80401c90:	8c420000 	lw	v0,0(v0)
80401c94:	8c42003c 	lw	v0,60(v0)
80401c98:	14400006 	bnez	v0,80401cb4 <MenuPage05+0x1a8>
80401c9c:	00000000 	nop
80401ca0:	8f820008 	lw	v0,8(gp)
80401ca4:	8c420000 	lw	v0,0(v0)
80401ca8:	8c420218 	lw	v0,536(v0)
80401cac:	10400030 	beqz	v0,80401d70 <MenuPage05+0x264>
80401cb0:	00000000 	nop
80401cb4:	8f820004 	lw	v0,4(gp)
80401cb8:	8c430088 	lw	v1,136(v0)
80401cbc:	8f820008 	lw	v0,8(gp)
80401cc0:	1062002b 	beq	v1,v0,80401d70 <MenuPage05+0x264>
80401cc4:	00000000 	nop
80401cc8:	8f82000c 	lw	v0,12(gp)
80401ccc:	8c430000 	lw	v1,0(v0)
80401cd0:	8fc20050 	lw	v0,80(s8)
80401cd4:	ac430000 	sw	v1,0(v0)
80401cd8:	8fc20050 	lw	v0,80(s8)
80401cdc:	24420004 	addiu	v0,v0,4
80401ce0:	afc20050 	sw	v0,80(s8)
80401ce4:	8f820008 	lw	v0,8(gp)
80401ce8:	8c420000 	lw	v0,0(v0)
80401cec:	c440015c 	lwc1	$f0,348(v0)
80401cf0:	e7c000c4 	swc1	$f0,196(s8)
80401cf4:	c7820088 	lwc1	$f2,136(gp)
80401cf8:	e7c200c8 	swc1	$f2,200(s8)
80401cfc:	c7c400c4 	lwc1	$f4,196(s8)
80401d00:	c7c000c8 	lwc1	$f0,200(s8)
80401d04:	4604003e 	c.le.s	$f0,$f4
80401d08:	00000000 	nop
80401d0c:	45010006 	bc1t	80401d28 <MenuPage05+0x21c>
80401d10:	00000000 	nop
80401d14:	c7c200c4 	lwc1	$f2,196(s8)
80401d18:	4600108d 	trunc.w.s	$f2,$f2
80401d1c:	e7c200c0 	swc1	$f2,192(s8)
80401d20:	08100753 	j	80401d4c <MenuPage05+0x240>
80401d24:	00000000 	nop
80401d28:	c7c400c4 	lwc1	$f4,196(s8)
80401d2c:	c7c200c8 	lwc1	$f2,200(s8)
80401d30:	46022001 	sub.s	$f0,$f4,$f2
80401d34:	3c028000 	lui	v0,0x8000
80401d38:	4600000d 	trunc.w.s	$f0,$f0
80401d3c:	e7c000c0 	swc1	$f0,192(s8)
80401d40:	8fc300c0 	lw	v1,192(s8)
80401d44:	00621825 	or	v1,v1,v0
80401d48:	afc300c0 	sw	v1,192(s8)
80401d4c:	8fc20050 	lw	v0,80(s8)
80401d50:	8fc500c0 	lw	a1,192(s8)
80401d54:	ac450000 	sw	a1,0(v0)
80401d58:	8fc20050 	lw	v0,80(s8)
80401d5c:	24420004 	addiu	v0,v0,4
80401d60:	afc20050 	sw	v0,80(s8)
80401d64:	8fc20054 	lw	v0,84(s8)
80401d68:	24420001 	addiu	v0,v0,1
80401d6c:	afc20054 	sw	v0,84(s8)
80401d70:	8f83000c 	lw	v1,12(gp)
80401d74:	8f820008 	lw	v0,8(gp)
80401d78:	8c420000 	lw	v0,0(v0)
80401d7c:	8c420008 	lw	v0,8(v0)
80401d80:	ac620000 	sw	v0,0(v1)
80401d84:	8fc20060 	lw	v0,96(s8)
80401d88:	24420001 	addiu	v0,v0,1
80401d8c:	afc20060 	sw	v0,96(s8)
80401d90:	8fc20060 	lw	v0,96(s8)
80401d94:	284200f0 	slti	v0,v0,240
80401d98:	1440ffbc 	bnez	v0,80401c8c <MenuPage05+0x180>
80401d9c:	00000000 	nop
80401da0:	3c028060 	lui	v0,0x8060
80401da4:	34428000 	ori	v0,v0,0x8000
80401da8:	afc20050 	sw	v0,80(s8)
80401dac:	8fc30054 	lw	v1,84(s8)
80401db0:	8fc20050 	lw	v0,80(s8)
80401db4:	ac430000 	sw	v1,0(v0)
80401db8:	8fc70054 	lw	a3,84(s8)
80401dbc:	00e01021 	move	v0,a3
80401dc0:	afc200bc 	sw	v0,188(s8)
80401dc4:	00001021 	move	v0,zero
80401dc8:	afc200b8 	sw	v0,184(s8)
80401dcc:	8fc300bc 	lw	v1,188(s8)
80401dd0:	8fc200b8 	lw	v0,184(s8)
80401dd4:	afc300bc 	sw	v1,188(s8)
80401dd8:	afc200b8 	sw	v0,184(s8)
80401ddc:	2404ffff 	li	a0,-1
80401de0:	8fc500b8 	lw	a1,184(s8)
80401de4:	30a2000f 	andi	v0,a1,0xf
80401de8:	8fc500bc 	lw	a1,188(s8)
80401dec:	00a41824 	and	v1,a1,a0
80401df0:	afc300bc 	sw	v1,188(s8)
80401df4:	afc200b8 	sw	v0,184(s8)
80401df8:	8fc300bc 	lw	v1,188(s8)
80401dfc:	000316c2 	srl	v0,v1,0x1b
80401e00:	8fc300b8 	lw	v1,184(s8)
80401e04:	00032140 	sll	a0,v1,0x5
80401e08:	00442025 	or	a0,v0,a0
80401e0c:	8fc200bc 	lw	v0,188(s8)
80401e10:	00022940 	sll	a1,v0,0x5
80401e14:	2406ffff 	li	a2,-1
80401e18:	3082000f 	andi	v0,a0,0xf
80401e1c:	00a61824 	and	v1,a1,a2
80401e20:	00602821 	move	a1,v1
80401e24:	00402021 	move	a0,v0
80401e28:	00e01021 	move	v0,a3
80401e2c:	afc200b4 	sw	v0,180(s8)
80401e30:	00001821 	move	v1,zero
80401e34:	afc300b0 	sw	v1,176(s8)
80401e38:	8fc300b4 	lw	v1,180(s8)
80401e3c:	8fc200b0 	lw	v0,176(s8)
80401e40:	afc300b4 	sw	v1,180(s8)
80401e44:	afc200b0 	sw	v0,176(s8)
80401e48:	2404ffff 	li	a0,-1
80401e4c:	8fc500b0 	lw	a1,176(s8)
80401e50:	30a2000f 	andi	v0,a1,0xf
80401e54:	8fc500b4 	lw	a1,180(s8)
80401e58:	00a41824 	and	v1,a1,a0
80401e5c:	afc300b4 	sw	v1,180(s8)
80401e60:	afc200b0 	sw	v0,176(s8)
80401e64:	8fc300b4 	lw	v1,180(s8)
80401e68:	000316c2 	srl	v0,v1,0x1b
80401e6c:	8fc300b0 	lw	v1,176(s8)
80401e70:	00032140 	sll	a0,v1,0x5
80401e74:	00442025 	or	a0,v0,a0
80401e78:	8fc200b4 	lw	v0,180(s8)
80401e7c:	00022940 	sll	a1,v0,0x5
80401e80:	2406ffff 	li	a2,-1
80401e84:	3082000f 	andi	v0,a0,0xf
80401e88:	00a61824 	and	v1,a1,a2
80401e8c:	00602821 	move	a1,v1
80401e90:	00402021 	move	a0,v0
80401e94:	00e01021 	move	v0,a3
80401e98:	00021080 	sll	v0,v0,0x2
80401e9c:	24420007 	addiu	v0,v0,7
80401ea0:	24420007 	addiu	v0,v0,7
80401ea4:	000210c2 	srl	v0,v0,0x3
80401ea8:	000210c0 	sll	v0,v0,0x3
80401eac:	03a2e823 	subu	sp,sp,v0
80401eb0:	27a30010 	addiu	v1,sp,16
80401eb4:	afc300ac 	sw	v1,172(s8)
80401eb8:	8fc500ac 	lw	a1,172(s8)
80401ebc:	24a20007 	addiu	v0,a1,7
80401ec0:	000210c2 	srl	v0,v0,0x3
80401ec4:	000210c0 	sll	v0,v0,0x3
80401ec8:	afc200ac 	sw	v0,172(s8)
80401ecc:	8fc200ac 	lw	v0,172(s8)
80401ed0:	afc2006c 	sw	v0,108(s8)
80401ed4:	afc00060 	sw	zero,96(s8)
80401ed8:	081007ca 	j	80401f28 <MenuPage05+0x41c>
80401edc:	00000000 	nop
80401ee0:	8fc20060 	lw	v0,96(s8)
80401ee4:	000210c0 	sll	v0,v0,0x3
80401ee8:	00401821 	move	v1,v0
80401eec:	3c028060 	lui	v0,0x8060
80401ef0:	34428014 	ori	v0,v0,0x8014
80401ef4:	00621021 	addu	v0,v1,v0
80401ef8:	afc20034 	sw	v0,52(s8)
80401efc:	8fc40060 	lw	a0,96(s8)
80401f00:	8fc20034 	lw	v0,52(s8)
80401f04:	8c420000 	lw	v0,0(v0)
80401f08:	00402821 	move	a1,v0
80401f0c:	8fc3006c 	lw	v1,108(s8)
80401f10:	00041080 	sll	v0,a0,0x2
80401f14:	00621021 	addu	v0,v1,v0
80401f18:	ac450000 	sw	a1,0(v0)
80401f1c:	8fc20060 	lw	v0,96(s8)
80401f20:	24420001 	addiu	v0,v0,1
80401f24:	afc20060 	sw	v0,96(s8)
80401f28:	8fc20060 	lw	v0,96(s8)
80401f2c:	8fc30054 	lw	v1,84(s8)
80401f30:	0043102a 	slt	v0,v0,v1
80401f34:	1440ffea 	bnez	v0,80401ee0 <MenuPage05+0x3d4>
80401f38:	00000000 	nop
80401f3c:	8fc2006c 	lw	v0,108(s8)
80401f40:	00402021 	move	a0,v0
80401f44:	8fc50054 	lw	a1,84(s8)
80401f48:	0c101bec 	jal	80406fb0 <bubble_srt>
80401f4c:	00000000 	nop
80401f50:	081007d9 	j	80401f64 <MenuPage05+0x458>
80401f54:	00000000 	nop
80401f58:	8fc20050 	lw	v0,80(s8)
80401f5c:	24420004 	addiu	v0,v0,4
80401f60:	afc20050 	sw	v0,80(s8)
80401f64:	8fc2006c 	lw	v0,108(s8)
80401f68:	8c420000 	lw	v0,0(v0)
80401f6c:	00401821 	move	v1,v0
80401f70:	8fc20050 	lw	v0,80(s8)
80401f74:	8c420000 	lw	v0,0(v0)
80401f78:	1462fff7 	bne	v1,v0,80401f58 <MenuPage05+0x44c>
80401f7c:	00000000 	nop
80401f80:	8fc20050 	lw	v0,80(s8)
80401f84:	2442fffc 	addiu	v0,v0,-4
80401f88:	afc20050 	sw	v0,80(s8)
80401f8c:	8fc20050 	lw	v0,80(s8)
80401f90:	8c420000 	lw	v0,0(v0)
80401f94:	afc20044 	sw	v0,68(s8)
80401f98:	3c028060 	lui	v0,0x8060
80401f9c:	34428008 	ori	v0,v0,0x8008
80401fa0:	afc20050 	sw	v0,80(s8)
80401fa4:	8fc30044 	lw	v1,68(s8)
80401fa8:	8fc20050 	lw	v0,80(s8)
80401fac:	ac430000 	sw	v1,0(v0)
80401fb0:	8fc20044 	lw	v0,68(s8)
80401fb4:	afc20040 	sw	v0,64(s8)
80401fb8:	3c028033 	lui	v0,0x8033
80401fbc:	3442b4d0 	ori	v0,v0,0xb4d0
80401fc0:	afc20038 	sw	v0,56(s8)
80401fc4:	8f820040 	lw	v0,64(gp)
80401fc8:	ac400000 	sw	zero,0(v0)
80401fcc:	081007fd 	j	80401ff4 <MenuPage05+0x4e8>
80401fd0:	00000000 	nop
80401fd4:	8f830040 	lw	v1,64(gp)
80401fd8:	8f820040 	lw	v0,64(gp)
80401fdc:	8c420000 	lw	v0,0(v0)
80401fe0:	24420001 	addiu	v0,v0,1
80401fe4:	ac620000 	sw	v0,0(v1)
80401fe8:	8fc20038 	lw	v0,56(s8)
80401fec:	24420004 	addiu	v0,v0,4
80401ff0:	afc20038 	sw	v0,56(s8)
80401ff4:	8fc20040 	lw	v0,64(s8)
80401ff8:	8c430014 	lw	v1,20(v0)
80401ffc:	8fc20038 	lw	v0,56(s8)
80402000:	8c420000 	lw	v0,0(v0)
80402004:	1462fff3 	bne	v1,v0,80401fd4 <MenuPage05+0x4c8>
80402008:	00000000 	nop
8040200c:	8f83000c 	lw	v1,12(gp)
80402010:	8fc20068 	lw	v0,104(s8)
80402014:	ac620000 	sw	v0,0(v1)
80402018:	8f830044 	lw	v1,68(gp)
8040201c:	8fc20040 	lw	v0,64(s8)
80402020:	8c42020c 	lw	v0,524(v0)
80402024:	ac620000 	sw	v0,0(v1)
80402028:	8fdd00a8 	lw	sp,168(s8)
8040202c:	3c028060 	lui	v0,0x8060
80402030:	34428008 	ori	v0,v0,0x8008
80402034:	afc20050 	sw	v0,80(s8)
80402038:	8fc20050 	lw	v0,80(s8)
8040203c:	8c420000 	lw	v0,0(v0)
80402040:	104007b8 	beqz	v0,80403f24 <MenuPage05+0x2418>
80402044:	00000000 	nop
80402048:	00002021 	move	a0,zero
8040204c:	2405000e 	li	a1,14
80402050:	00003021 	move	a2,zero
80402054:	0c101c3b 	jal	804070ec <ProcessSelection>
80402058:	00000000 	nop
8040205c:	8fc20050 	lw	v0,80(s8)
80402060:	8c420000 	lw	v0,0(v0)
80402064:	afc20030 	sw	v0,48(s8)
80402068:	8fc20030 	lw	v0,48(s8)
8040206c:	8c420120 	lw	v0,288(v0)
80402070:	afc200a4 	sw	v0,164(s8)
80402074:	3c020501 	lui	v0,0x501
80402078:	3442c504 	ori	v0,v0,0xc504
8040207c:	8fc300a4 	lw	v1,164(s8)
80402080:	10620156 	beq	v1,v0,804025dc <MenuPage05+0xad0>
80402084:	00000000 	nop
80402088:	3c020501 	lui	v0,0x501
8040208c:	3442c505 	ori	v0,v0,0xc505
80402090:	8fc500a4 	lw	a1,164(s8)
80402094:	00a2102b 	sltu	v0,a1,v0
80402098:	10400080 	beqz	v0,8040229c <MenuPage05+0x790>
8040209c:	00000000 	nop
804020a0:	3c020500 	lui	v0,0x500
804020a4:	34425784 	ori	v0,v0,0x5784
804020a8:	8fc300a4 	lw	v1,164(s8)
804020ac:	106201f6 	beq	v1,v0,80402888 <MenuPage05+0xd7c>
804020b0:	00000000 	nop
804020b4:	3c020500 	lui	v0,0x500
804020b8:	34425785 	ori	v0,v0,0x5785
804020bc:	8fc500a4 	lw	a1,164(s8)
804020c0:	00a2102b 	sltu	v0,a1,v0
804020c4:	1040003b 	beqz	v0,804021b4 <MenuPage05+0x6a8>
804020c8:	00000000 	nop
804020cc:	3c020500 	lui	v0,0x500
804020d0:	34421744 	ori	v0,v0,0x1744
804020d4:	8fc300a4 	lw	v1,164(s8)
804020d8:	10620218 	beq	v1,v0,8040293c <MenuPage05+0xe30>
804020dc:	00000000 	nop
804020e0:	3c020500 	lui	v0,0x500
804020e4:	34421745 	ori	v0,v0,0x1745
804020e8:	8fc500a4 	lw	a1,164(s8)
804020ec:	00a2102b 	sltu	v0,a1,v0
804020f0:	10400012 	beqz	v0,8040213c <MenuPage05+0x630>
804020f4:	00000000 	nop
804020f8:	3c020301 	lui	v0,0x301
804020fc:	344256c0 	ori	v0,v0,0x56c0
80402100:	8fc300a4 	lw	v1,164(s8)
80402104:	10620108 	beq	v1,v0,80402528 <MenuPage05+0xa1c>
80402108:	00000000 	nop
8040210c:	3c020500 	lui	v0,0x500
80402110:	344209e8 	ori	v0,v0,0x9e8
80402114:	8fc500a4 	lw	a1,164(s8)
80402118:	10a201ff 	beq	a1,v0,80402918 <MenuPage05+0xe0c>
8040211c:	00000000 	nop
80402120:	3c020300 	lui	v0,0x300
80402124:	344256b0 	ori	v0,v0,0x56b0
80402128:	8fc300a4 	lw	v1,164(s8)
8040212c:	10620173 	beq	v1,v0,804026fc <MenuPage05+0xbf0>
80402130:	00000000 	nop
80402134:	08100a61 	j	80402984 <MenuPage05+0xe78>
80402138:	00000000 	nop
8040213c:	3c020500 	lui	v0,0x500
80402140:	34422d68 	ori	v0,v0,0x2d68
80402144:	8fc500a4 	lw	a1,164(s8)
80402148:	10a2012d 	beq	a1,v0,80402600 <MenuPage05+0xaf4>
8040214c:	00000000 	nop
80402150:	3c020500 	lui	v0,0x500
80402154:	34422d69 	ori	v0,v0,0x2d69
80402158:	8fc300a4 	lw	v1,164(s8)
8040215c:	0062102b 	sltu	v0,v1,v0
80402160:	10400008 	beqz	v0,80402184 <MenuPage05+0x678>
80402164:	00000000 	nop
80402168:	3c020500 	lui	v0,0x500
8040216c:	34422540 	ori	v0,v0,0x2540
80402170:	8fc500a4 	lw	a1,164(s8)
80402174:	10a201d6 	beq	a1,v0,804028d0 <MenuPage05+0xdc4>
80402178:	00000000 	nop
8040217c:	08100a61 	j	80402984 <MenuPage05+0xe78>
80402180:	00000000 	nop
80402184:	3c020500 	lui	v0,0x500
80402188:	3442470c 	ori	v0,v0,0x470c
8040218c:	8fc300a4 	lw	v1,164(s8)
80402190:	1062016c 	beq	v1,v0,80402744 <MenuPage05+0xc38>
80402194:	00000000 	nop
80402198:	3c020500 	lui	v0,0x500
8040219c:	34425768 	ori	v0,v0,0x5768
804021a0:	8fc500a4 	lw	a1,164(s8)
804021a4:	10a2015e 	beq	a1,v0,80402720 <MenuPage05+0xc14>
804021a8:	00000000 	nop
804021ac:	08100a61 	j	80402984 <MenuPage05+0xe78>
804021b0:	00000000 	nop
804021b4:	3c020500 	lui	v0,0x500
804021b8:	34429b14 	ori	v0,v0,0x9b14
804021bc:	8fc300a4 	lw	v1,164(s8)
804021c0:	106201ba 	beq	v1,v0,804028ac <MenuPage05+0xda0>
804021c4:	00000000 	nop
804021c8:	3c020500 	lui	v0,0x500
804021cc:	34429b15 	ori	v0,v0,0x9b15
804021d0:	8fc500a4 	lw	a1,164(s8)
804021d4:	00a2102b 	sltu	v0,a1,v0
804021d8:	10400012 	beqz	v0,80402224 <MenuPage05+0x718>
804021dc:	00000000 	nop
804021e0:	3c020500 	lui	v0,0x500
804021e4:	34428b74 	ori	v0,v0,0x8b74
804021e8:	8fc300a4 	lw	v1,164(s8)
804021ec:	106200f2 	beq	v1,v0,804025b8 <MenuPage05+0xaac>
804021f0:	00000000 	nop
804021f4:	3c020500 	lui	v0,0x500
804021f8:	34428cfc 	ori	v0,v0,0x8cfc
804021fc:	8fc500a4 	lw	a1,164(s8)
80402200:	10a201bc 	beq	a1,v0,804028f4 <MenuPage05+0xde8>
80402204:	00000000 	nop
80402208:	3c020500 	lui	v0,0x500
8040220c:	34427248 	ori	v0,v0,0x7248
80402210:	8fc300a4 	lw	v1,164(s8)
80402214:	10620181 	beq	v1,v0,8040281c <MenuPage05+0xd10>
80402218:	00000000 	nop
8040221c:	08100a61 	j	80402984 <MenuPage05+0xe78>
80402220:	00000000 	nop
80402224:	3c020500 	lui	v0,0x500
80402228:	3442ec8c 	ori	v0,v0,0xec8c
8040222c:	8fc500a4 	lw	a1,164(s8)
80402230:	10a20171 	beq	a1,v0,804027f8 <MenuPage05+0xcec>
80402234:	00000000 	nop
80402238:	3c020500 	lui	v0,0x500
8040223c:	3442ec8d 	ori	v0,v0,0xec8d
80402240:	8fc300a4 	lw	v1,164(s8)
80402244:	0062102b 	sltu	v0,v1,v0
80402248:	10400008 	beqz	v0,8040226c <MenuPage05+0x760>
8040224c:	00000000 	nop
80402250:	3c020500 	lui	v0,0x500
80402254:	3442d118 	ori	v0,v0,0xd118
80402258:	8fc500a4 	lw	a1,164(s8)
8040225c:	10a20178 	beq	a1,v0,80402840 <MenuPage05+0xd34>
80402260:	00000000 	nop
80402264:	08100a61 	j	80402984 <MenuPage05+0xe78>
80402268:	00000000 	nop
8040226c:	3c020501 	lui	v0,0x501
80402270:	344244d4 	ori	v0,v0,0x44d4
80402274:	8fc300a4 	lw	v1,164(s8)
80402278:	106200f3 	beq	v1,v0,80402648 <MenuPage05+0xb3c>
8040227c:	00000000 	nop
80402280:	3c020501 	lui	v0,0x501
80402284:	3442534c 	ori	v0,v0,0x534c
80402288:	8fc500a4 	lw	a1,164(s8)
8040228c:	10a200c1 	beq	a1,v0,80402594 <MenuPage05+0xa88>
80402290:	00000000 	nop
80402294:	08100a61 	j	80402984 <MenuPage05+0xe78>
80402298:	00000000 	nop
8040229c:	3c020601 	lui	v0,0x601
804022a0:	3442c31c 	ori	v0,v0,0xc31c
804022a4:	8fc300a4 	lw	v1,164(s8)
804022a8:	106200f9 	beq	v1,v0,80402690 <MenuPage05+0xb84>
804022ac:	00000000 	nop
804022b0:	3c020601 	lui	v0,0x601
804022b4:	3442c31d 	ori	v0,v0,0xc31d
804022b8:	8fc500a4 	lw	a1,164(s8)
804022bc:	00a2102b 	sltu	v0,a1,v0
804022c0:	1040003b 	beqz	v0,804023b0 <MenuPage05+0x8a4>
804022c4:	00000000 	nop
804022c8:	3c020600 	lui	v0,0x600
804022cc:	34427de0 	ori	v0,v0,0x7de0
804022d0:	8fc300a4 	lw	v1,164(s8)
804022d4:	106201a2 	beq	v1,v0,80402960 <MenuPage05+0xe54>
804022d8:	00000000 	nop
804022dc:	3c020600 	lui	v0,0x600
804022e0:	34427de1 	ori	v0,v0,0x7de1
804022e4:	8fc500a4 	lw	a1,164(s8)
804022e8:	00a2102b 	sltu	v0,a1,v0
804022ec:	10400012 	beqz	v0,80402338 <MenuPage05+0x82c>
804022f0:	00000000 	nop
804022f4:	3c020600 	lui	v0,0x600
804022f8:	344258f8 	ori	v0,v0,0x58f8
804022fc:	8fc300a4 	lw	v1,164(s8)
80402300:	106200c8 	beq	v1,v0,80402624 <MenuPage05+0xb18>
80402304:	00000000 	nop
80402308:	3c020600 	lui	v0,0x600
8040230c:	344270d0 	ori	v0,v0,0x70d0
80402310:	8fc500a4 	lw	a1,164(s8)
80402314:	10a20126 	beq	a1,v0,804027b0 <MenuPage05+0xca4>
80402318:	00000000 	nop
8040231c:	3c020502 	lui	v0,0x502
80402320:	344241e8 	ori	v0,v0,0x41e8
80402324:	8fc300a4 	lw	v1,164(s8)
80402328:	10620118 	beq	v1,v0,8040278c <MenuPage05+0xc80>
8040232c:	00000000 	nop
80402330:	08100a61 	j	80402984 <MenuPage05+0xe78>
80402334:	00000000 	nop
80402338:	3c020600 	lui	v0,0x600
8040233c:	3442fc48 	ori	v0,v0,0xfc48
80402340:	8fc500a4 	lw	a1,164(s8)
80402344:	10a200c9 	beq	a1,v0,8040266c <MenuPage05+0xb60>
80402348:	00000000 	nop
8040234c:	3c020600 	lui	v0,0x600
80402350:	3442fc49 	ori	v0,v0,0xfc49
80402354:	8fc300a4 	lw	v1,164(s8)
80402358:	0062102b 	sltu	v0,v1,v0
8040235c:	10400008 	beqz	v0,80402380 <MenuPage05+0x874>
80402360:	00000000 	nop
80402364:	3c020600 	lui	v0,0x600
80402368:	3442f638 	ori	v0,v0,0xf638
8040236c:	8fc500a4 	lw	a1,164(s8)
80402370:	10a2013c 	beq	a1,v0,80402864 <MenuPage05+0xd58>
80402374:	00000000 	nop
80402378:	08100a61 	j	80402984 <MenuPage05+0xe78>
8040237c:	00000000 	nop
80402380:	3c020601 	lui	v0,0x601
80402384:	34421364 	ori	v0,v0,0x1364
80402388:	8fc300a4 	lw	v1,164(s8)
8040238c:	1062004b 	beq	v1,v0,804024bc <MenuPage05+0x9b0>
80402390:	00000000 	nop
80402394:	3c020601 	lui	v0,0x601
80402398:	34425724 	ori	v0,v0,0x5724
8040239c:	8fc500a4 	lw	a1,164(s8)
804023a0:	10a200f1 	beq	a1,v0,80402768 <MenuPage05+0xc5c>
804023a4:	00000000 	nop
804023a8:	08100a61 	j	80402984 <MenuPage05+0xe78>
804023ac:	00000000 	nop
804023b0:	3c020800 	lui	v0,0x800
804023b4:	34424034 	ori	v0,v0,0x4034
804023b8:	8fc300a4 	lw	v1,164(s8)
804023bc:	106200c6 	beq	v1,v0,804026d8 <MenuPage05+0xbcc>
804023c0:	00000000 	nop
804023c4:	3c020800 	lui	v0,0x800
804023c8:	34424035 	ori	v0,v0,0x4035
804023cc:	8fc500a4 	lw	a1,164(s8)
804023d0:	00a2102b 	sltu	v0,a1,v0
804023d4:	10400012 	beqz	v0,80402420 <MenuPage05+0x914>
804023d8:	00000000 	nop
804023dc:	3c020602 	lui	v0,0x602
804023e0:	34425178 	ori	v0,v0,0x5178
804023e4:	8fc300a4 	lw	v1,164(s8)
804023e8:	1062003d 	beq	v1,v0,804024e0 <MenuPage05+0x9d4>
804023ec:	00000000 	nop
804023f0:	3c020605 	lui	v0,0x605
804023f4:	344277e0 	ori	v0,v0,0x77e0
804023f8:	8fc500a4 	lw	a1,164(s8)
804023fc:	10a20041 	beq	a1,v0,80402504 <MenuPage05+0x9f8>
80402400:	00000000 	nop
80402404:	3c020602 	lui	v0,0x602
80402408:	34420a04 	ori	v0,v0,0xa04
8040240c:	8fc300a4 	lw	v1,164(s8)
80402410:	106200a8 	beq	v1,v0,804026b4 <MenuPage05+0xba8>
80402414:	00000000 	nop
80402418:	08100a61 	j	80402984 <MenuPage05+0xe78>
8040241c:	00000000 	nop
80402420:	3c020801 	lui	v0,0x801
80402424:	3442da4c 	ori	v0,v0,0xda4c
80402428:	8fc500a4 	lw	a1,164(s8)
8040242c:	10a20047 	beq	a1,v0,8040254c <MenuPage05+0xa40>
80402430:	00000000 	nop
80402434:	3c020801 	lui	v0,0x801
80402438:	3442da4d 	ori	v0,v0,0xda4d
8040243c:	8fc300a4 	lw	v1,164(s8)
80402440:	0062102b 	sltu	v0,v1,v0
80402444:	10400008 	beqz	v0,80402468 <MenuPage05+0x95c>
80402448:	00000000 	nop
8040244c:	3c020801 	lui	v0,0x801
80402450:	34421a64 	ori	v0,v0,0x1a64
80402454:	8fc500a4 	lw	a1,164(s8)
80402458:	10a200de 	beq	a1,v0,804027d4 <MenuPage05+0xcc8>
8040245c:	00000000 	nop
80402460:	08100a61 	j	80402984 <MenuPage05+0xe78>
80402464:	00000000 	nop
80402468:	3c020802 	lui	v0,0x802
8040246c:	3442396c 	ori	v0,v0,0x396c
80402470:	8fc300a4 	lw	v1,164(s8)
80402474:	10620008 	beq	v1,v0,80402498 <MenuPage05+0x98c>
80402478:	00000000 	nop
8040247c:	3c020c00 	lui	v0,0xc00
80402480:	3442c070 	ori	v0,v0,0xc070
80402484:	8fc500a4 	lw	a1,164(s8)
80402488:	10a20039 	beq	a1,v0,80402570 <MenuPage05+0xa64>
8040248c:	00000000 	nop
80402490:	08100a61 	j	80402984 <MenuPage05+0xe78>
80402494:	00000000 	nop
80402498:	24040019 	li	a0,25
8040249c:	240500b4 	li	a1,180
804024a0:	3c028040 	lui	v0,0x8040
804024a4:	24467380 	addiu	a2,v0,29568
804024a8:	00003821 	move	a3,zero
804024ac:	0c0b58b6 	jal	802d62d8 <PrintInt>
804024b0:	00000000 	nop
804024b4:	08100a7d 	j	804029f4 <MenuPage05+0xee8>
804024b8:	00000000 	nop
804024bc:	24040019 	li	a0,25
804024c0:	240500b4 	li	a1,180
804024c4:	3c028040 	lui	v0,0x8040
804024c8:	24467388 	addiu	a2,v0,29576
804024cc:	00003821 	move	a3,zero
804024d0:	0c0b58b6 	jal	802d62d8 <PrintInt>
804024d4:	00000000 	nop
804024d8:	08100a7d 	j	804029f4 <MenuPage05+0xee8>
804024dc:	00000000 	nop
804024e0:	24040019 	li	a0,25
804024e4:	240500b4 	li	a1,180
804024e8:	3c028040 	lui	v0,0x8040
804024ec:	24467390 	addiu	a2,v0,29584
804024f0:	00003821 	move	a3,zero
804024f4:	0c0b58b6 	jal	802d62d8 <PrintInt>
804024f8:	00000000 	nop
804024fc:	08100a7d 	j	804029f4 <MenuPage05+0xee8>
80402500:	00000000 	nop
80402504:	24040019 	li	a0,25
80402508:	240500b4 	li	a1,180
8040250c:	3c028040 	lui	v0,0x8040
80402510:	2446739c 	addiu	a2,v0,29596
80402514:	00003821 	move	a3,zero
80402518:	0c0b58b6 	jal	802d62d8 <PrintInt>
8040251c:	00000000 	nop
80402520:	08100a7d 	j	804029f4 <MenuPage05+0xee8>
80402524:	00000000 	nop
80402528:	24040019 	li	a0,25
8040252c:	240500b4 	li	a1,180
80402530:	3c028040 	lui	v0,0x8040
80402534:	244673a4 	addiu	a2,v0,29604
80402538:	00003821 	move	a3,zero
8040253c:	0c0b58b6 	jal	802d62d8 <PrintInt>
80402540:	00000000 	nop
80402544:	08100a7d 	j	804029f4 <MenuPage05+0xee8>
80402548:	00000000 	nop
8040254c:	24040019 	li	a0,25
80402550:	240500b4 	li	a1,180
80402554:	3c028040 	lui	v0,0x8040
80402558:	244673ac 	addiu	a2,v0,29612
8040255c:	00003821 	move	a3,zero
80402560:	0c0b58b6 	jal	802d62d8 <PrintInt>
80402564:	00000000 	nop
80402568:	08100a7d 	j	804029f4 <MenuPage05+0xee8>
8040256c:	00000000 	nop
80402570:	24040019 	li	a0,25
80402574:	240500b4 	li	a1,180
80402578:	3c028040 	lui	v0,0x8040
8040257c:	244673b4 	addiu	a2,v0,29620
80402580:	00003821 	move	a3,zero
80402584:	0c0b58b6 	jal	802d62d8 <PrintInt>
80402588:	00000000 	nop
8040258c:	08100a7d 	j	804029f4 <MenuPage05+0xee8>
80402590:	00000000 	nop
80402594:	24040019 	li	a0,25
80402598:	240500b4 	li	a1,180
8040259c:	3c028040 	lui	v0,0x8040
804025a0:	244673bc 	addiu	a2,v0,29628
804025a4:	00003821 	move	a3,zero
804025a8:	0c0b58b6 	jal	802d62d8 <PrintInt>
804025ac:	00000000 	nop
804025b0:	08100a7d 	j	804029f4 <MenuPage05+0xee8>
804025b4:	00000000 	nop
804025b8:	24040019 	li	a0,25
804025bc:	240500b4 	li	a1,180
804025c0:	3c028040 	lui	v0,0x8040
804025c4:	244673c8 	addiu	a2,v0,29640
804025c8:	00003821 	move	a3,zero
804025cc:	0c0b58b6 	jal	802d62d8 <PrintInt>
804025d0:	00000000 	nop
804025d4:	08100a7d 	j	804029f4 <MenuPage05+0xee8>
804025d8:	00000000 	nop
804025dc:	24040019 	li	a0,25
804025e0:	240500b4 	li	a1,180
804025e4:	3c028040 	lui	v0,0x8040
804025e8:	244673d0 	addiu	a2,v0,29648
804025ec:	00003821 	move	a3,zero
804025f0:	0c0b58b6 	jal	802d62d8 <PrintInt>
804025f4:	00000000 	nop
804025f8:	08100a7d 	j	804029f4 <MenuPage05+0xee8>
804025fc:	00000000 	nop
80402600:	24040019 	li	a0,25
80402604:	240500b4 	li	a1,180
80402608:	3c028040 	lui	v0,0x8040
8040260c:	244673d8 	addiu	a2,v0,29656
80402610:	00003821 	move	a3,zero
80402614:	0c0b58b6 	jal	802d62d8 <PrintInt>
80402618:	00000000 	nop
8040261c:	08100a7d 	j	804029f4 <MenuPage05+0xee8>
80402620:	00000000 	nop
80402624:	24040019 	li	a0,25
80402628:	240500b4 	li	a1,180
8040262c:	3c028040 	lui	v0,0x8040
80402630:	244673e4 	addiu	a2,v0,29668
80402634:	00003821 	move	a3,zero
80402638:	0c0b58b6 	jal	802d62d8 <PrintInt>
8040263c:	00000000 	nop
80402640:	08100a7d 	j	804029f4 <MenuPage05+0xee8>
80402644:	00000000 	nop
80402648:	24040019 	li	a0,25
8040264c:	240500b4 	li	a1,180
80402650:	3c028040 	lui	v0,0x8040
80402654:	244673ec 	addiu	a2,v0,29676
80402658:	00003821 	move	a3,zero
8040265c:	0c0b58b6 	jal	802d62d8 <PrintInt>
80402660:	00000000 	nop
80402664:	08100a7d 	j	804029f4 <MenuPage05+0xee8>
80402668:	00000000 	nop
8040266c:	24040019 	li	a0,25
80402670:	240500b4 	li	a1,180
80402674:	3c028040 	lui	v0,0x8040
80402678:	244673f8 	addiu	a2,v0,29688
8040267c:	00003821 	move	a3,zero
80402680:	0c0b58b6 	jal	802d62d8 <PrintInt>
80402684:	00000000 	nop
80402688:	08100a7d 	j	804029f4 <MenuPage05+0xee8>
8040268c:	00000000 	nop
80402690:	24040019 	li	a0,25
80402694:	240500b4 	li	a1,180
80402698:	3c028040 	lui	v0,0x8040
8040269c:	24467400 	addiu	a2,v0,29696
804026a0:	00003821 	move	a3,zero
804026a4:	0c0b58b6 	jal	802d62d8 <PrintInt>
804026a8:	00000000 	nop
804026ac:	08100a7d 	j	804029f4 <MenuPage05+0xee8>
804026b0:	00000000 	nop
804026b4:	24040019 	li	a0,25
804026b8:	240500b4 	li	a1,180
804026bc:	3c028040 	lui	v0,0x8040
804026c0:	24467408 	addiu	a2,v0,29704
804026c4:	00003821 	move	a3,zero
804026c8:	0c0b58b6 	jal	802d62d8 <PrintInt>
804026cc:	00000000 	nop
804026d0:	08100a7d 	j	804029f4 <MenuPage05+0xee8>
804026d4:	00000000 	nop
804026d8:	24040019 	li	a0,25
804026dc:	240500b4 	li	a1,180
804026e0:	3c028040 	lui	v0,0x8040
804026e4:	24467410 	addiu	a2,v0,29712
804026e8:	00003821 	move	a3,zero
804026ec:	0c0b58b6 	jal	802d62d8 <PrintInt>
804026f0:	00000000 	nop
804026f4:	08100a7d 	j	804029f4 <MenuPage05+0xee8>
804026f8:	00000000 	nop
804026fc:	24040019 	li	a0,25
80402700:	240500b4 	li	a1,180
80402704:	3c028040 	lui	v0,0x8040
80402708:	24467414 	addiu	a2,v0,29716
8040270c:	00003821 	move	a3,zero
80402710:	0c0b58b6 	jal	802d62d8 <PrintInt>
80402714:	00000000 	nop
80402718:	08100a7d 	j	804029f4 <MenuPage05+0xee8>
8040271c:	00000000 	nop
80402720:	24040019 	li	a0,25
80402724:	240500b4 	li	a1,180
80402728:	3c028040 	lui	v0,0x8040
8040272c:	24467420 	addiu	a2,v0,29728
80402730:	00003821 	move	a3,zero
80402734:	0c0b58b6 	jal	802d62d8 <PrintInt>
80402738:	00000000 	nop
8040273c:	08100a7d 	j	804029f4 <MenuPage05+0xee8>
80402740:	00000000 	nop
80402744:	24040019 	li	a0,25
80402748:	240500b4 	li	a1,180
8040274c:	3c028040 	lui	v0,0x8040
80402750:	24467424 	addiu	a2,v0,29732
80402754:	00003821 	move	a3,zero
80402758:	0c0b58b6 	jal	802d62d8 <PrintInt>
8040275c:	00000000 	nop
80402760:	08100a7d 	j	804029f4 <MenuPage05+0xee8>
80402764:	00000000 	nop
80402768:	24040019 	li	a0,25
8040276c:	240500b4 	li	a1,180
80402770:	3c028040 	lui	v0,0x8040
80402774:	2446742c 	addiu	a2,v0,29740
80402778:	00003821 	move	a3,zero
8040277c:	0c0b58b6 	jal	802d62d8 <PrintInt>
80402780:	00000000 	nop
80402784:	08100a7d 	j	804029f4 <MenuPage05+0xee8>
80402788:	00000000 	nop
8040278c:	24040019 	li	a0,25
80402790:	240500b4 	li	a1,180
80402794:	3c028040 	lui	v0,0x8040
80402798:	24467434 	addiu	a2,v0,29748
8040279c:	00003821 	move	a3,zero
804027a0:	0c0b58b6 	jal	802d62d8 <PrintInt>
804027a4:	00000000 	nop
804027a8:	08100a7d 	j	804029f4 <MenuPage05+0xee8>
804027ac:	00000000 	nop
804027b0:	24040019 	li	a0,25
804027b4:	240500b4 	li	a1,180
804027b8:	3c028040 	lui	v0,0x8040
804027bc:	2446743c 	addiu	a2,v0,29756
804027c0:	00003821 	move	a3,zero
804027c4:	0c0b58b6 	jal	802d62d8 <PrintInt>
804027c8:	00000000 	nop
804027cc:	08100a7d 	j	804029f4 <MenuPage05+0xee8>
804027d0:	00000000 	nop
804027d4:	24040019 	li	a0,25
804027d8:	240500b4 	li	a1,180
804027dc:	3c028040 	lui	v0,0x8040
804027e0:	24467440 	addiu	a2,v0,29760
804027e4:	00003821 	move	a3,zero
804027e8:	0c0b58b6 	jal	802d62d8 <PrintInt>
804027ec:	00000000 	nop
804027f0:	08100a7d 	j	804029f4 <MenuPage05+0xee8>
804027f4:	00000000 	nop
804027f8:	24040019 	li	a0,25
804027fc:	240500b4 	li	a1,180
80402800:	3c028040 	lui	v0,0x8040
80402804:	24467448 	addiu	a2,v0,29768
80402808:	00003821 	move	a3,zero
8040280c:	0c0b58b6 	jal	802d62d8 <PrintInt>
80402810:	00000000 	nop
80402814:	08100a7d 	j	804029f4 <MenuPage05+0xee8>
80402818:	00000000 	nop
8040281c:	24040019 	li	a0,25
80402820:	240500b4 	li	a1,180
80402824:	3c028040 	lui	v0,0x8040
80402828:	24467450 	addiu	a2,v0,29776
8040282c:	00003821 	move	a3,zero
80402830:	0c0b58b6 	jal	802d62d8 <PrintInt>
80402834:	00000000 	nop
80402838:	08100a7d 	j	804029f4 <MenuPage05+0xee8>
8040283c:	00000000 	nop
80402840:	24040019 	li	a0,25
80402844:	240500b4 	li	a1,180
80402848:	3c028040 	lui	v0,0x8040
8040284c:	2446745c 	addiu	a2,v0,29788
80402850:	00003821 	move	a3,zero
80402854:	0c0b58b6 	jal	802d62d8 <PrintInt>
80402858:	00000000 	nop
8040285c:	08100a7d 	j	804029f4 <MenuPage05+0xee8>
80402860:	00000000 	nop
80402864:	24040019 	li	a0,25
80402868:	240500b4 	li	a1,180
8040286c:	3c028040 	lui	v0,0x8040
80402870:	24467468 	addiu	a2,v0,29800
80402874:	00003821 	move	a3,zero
80402878:	0c0b58b6 	jal	802d62d8 <PrintInt>
8040287c:	00000000 	nop
80402880:	08100a7d 	j	804029f4 <MenuPage05+0xee8>
80402884:	00000000 	nop
80402888:	24040019 	li	a0,25
8040288c:	240500b4 	li	a1,180
80402890:	3c028040 	lui	v0,0x8040
80402894:	24467470 	addiu	a2,v0,29808
80402898:	00003821 	move	a3,zero
8040289c:	0c0b58b6 	jal	802d62d8 <PrintInt>
804028a0:	00000000 	nop
804028a4:	08100a7d 	j	804029f4 <MenuPage05+0xee8>
804028a8:	00000000 	nop
804028ac:	24040019 	li	a0,25
804028b0:	240500b4 	li	a1,180
804028b4:	3c028040 	lui	v0,0x8040
804028b8:	24467480 	addiu	a2,v0,29824
804028bc:	00003821 	move	a3,zero
804028c0:	0c0b58b6 	jal	802d62d8 <PrintInt>
804028c4:	00000000 	nop
804028c8:	08100a7d 	j	804029f4 <MenuPage05+0xee8>
804028cc:	00000000 	nop
804028d0:	24040019 	li	a0,25
804028d4:	240500b4 	li	a1,180
804028d8:	3c028040 	lui	v0,0x8040
804028dc:	2446748c 	addiu	a2,v0,29836
804028e0:	00003821 	move	a3,zero
804028e4:	0c0b58b6 	jal	802d62d8 <PrintInt>
804028e8:	00000000 	nop
804028ec:	08100a7d 	j	804029f4 <MenuPage05+0xee8>
804028f0:	00000000 	nop
804028f4:	24040019 	li	a0,25
804028f8:	240500b4 	li	a1,180
804028fc:	3c028040 	lui	v0,0x8040
80402900:	2446749c 	addiu	a2,v0,29852
80402904:	00003821 	move	a3,zero
80402908:	0c0b58b6 	jal	802d62d8 <PrintInt>
8040290c:	00000000 	nop
80402910:	08100a7d 	j	804029f4 <MenuPage05+0xee8>
80402914:	00000000 	nop
80402918:	24040019 	li	a0,25
8040291c:	240500b4 	li	a1,180
80402920:	3c028040 	lui	v0,0x8040
80402924:	244674a4 	addiu	a2,v0,29860
80402928:	00003821 	move	a3,zero
8040292c:	0c0b58b6 	jal	802d62d8 <PrintInt>
80402930:	00000000 	nop
80402934:	08100a7d 	j	804029f4 <MenuPage05+0xee8>
80402938:	00000000 	nop
8040293c:	24040019 	li	a0,25
80402940:	240500b4 	li	a1,180
80402944:	3c028040 	lui	v0,0x8040
80402948:	244674ac 	addiu	a2,v0,29868
8040294c:	00003821 	move	a3,zero
80402950:	0c0b58b6 	jal	802d62d8 <PrintInt>
80402954:	00000000 	nop
80402958:	08100a7d 	j	804029f4 <MenuPage05+0xee8>
8040295c:	00000000 	nop
80402960:	24040019 	li	a0,25
80402964:	240500b4 	li	a1,180
80402968:	3c028040 	lui	v0,0x8040
8040296c:	244674b8 	addiu	a2,v0,29880
80402970:	00003821 	move	a3,zero
80402974:	0c0b58b6 	jal	802d62d8 <PrintInt>
80402978:	00000000 	nop
8040297c:	08100a7d 	j	804029f4 <MenuPage05+0xee8>
80402980:	00000000 	nop
80402984:	8fc20030 	lw	v0,48(s8)
80402988:	8c420120 	lw	v0,288(v0)
8040298c:	1040000a 	beqz	v0,804029b8 <MenuPage05+0xeac>
80402990:	00000000 	nop
80402994:	24040019 	li	a0,25
80402998:	240500b4 	li	a1,180
8040299c:	3c028040 	lui	v0,0x8040
804029a0:	244674c0 	addiu	a2,v0,29888
804029a4:	00003821 	move	a3,zero
804029a8:	0c0b58b6 	jal	802d62d8 <PrintInt>
804029ac:	00000000 	nop
804029b0:	08100a7d 	j	804029f4 <MenuPage05+0xee8>
804029b4:	00000000 	nop
804029b8:	8fc20030 	lw	v0,48(s8)
804029bc:	8c420218 	lw	v0,536(v0)
804029c0:	14400005 	bnez	v0,804029d8 <MenuPage05+0xecc>
804029c4:	00000000 	nop
804029c8:	8fc20030 	lw	v0,48(s8)
804029cc:	8c42009c 	lw	v0,156(v0)
804029d0:	14400008 	bnez	v0,804029f4 <MenuPage05+0xee8>
804029d4:	00000000 	nop
804029d8:	24040019 	li	a0,25
804029dc:	240500b4 	li	a1,180
804029e0:	3c028040 	lui	v0,0x8040
804029e4:	244674cc 	addiu	a2,v0,29900
804029e8:	00003821 	move	a3,zero
804029ec:	0c0b58b6 	jal	802d62d8 <PrintInt>
804029f0:	00000000 	nop
804029f4:	8fc20030 	lw	v0,48(s8)
804029f8:	8c50020c 	lw	s0,524(v0)
804029fc:	24040013 	li	a0,19
80402a00:	0c09dfc8 	jal	80277f20 <GetSegmentBase>
80402a04:	00000000 	nop
80402a08:	02021023 	subu	v0,s0,v0
80402a0c:	3043ffff 	andi	v1,v0,0xffff
80402a10:	240400d2 	li	a0,210
80402a14:	240500b4 	li	a1,180
80402a18:	3c028040 	lui	v0,0x8040
80402a1c:	244674d8 	addiu	a2,v0,29912
80402a20:	00603821 	move	a3,v1
80402a24:	0c0b58b6 	jal	802d62d8 <PrintInt>
80402a28:	00000000 	nop
80402a2c:	8fc20030 	lw	v0,48(s8)
80402a30:	8c420120 	lw	v0,288(v0)
80402a34:	00402021 	move	a0,v0
80402a38:	0c09dfd4 	jal	80277f50 <SegmentedToVirtual>
80402a3c:	00000000 	nop
80402a40:	00401821 	move	v1,v0
80402a44:	3c0200ff 	lui	v0,0xff
80402a48:	3442ffff 	ori	v0,v0,0xffff
80402a4c:	00621824 	and	v1,v1,v0
80402a50:	24040091 	li	a0,145
80402a54:	240500a0 	li	a1,160
80402a58:	3c028040 	lui	v0,0x8040
80402a5c:	244674e0 	addiu	a2,v0,29920
80402a60:	00603821 	move	a3,v1
80402a64:	0c0b58b6 	jal	802d62d8 <PrintInt>
80402a68:	00000000 	nop
80402a6c:	8fc30030 	lw	v1,48(s8)
80402a70:	8f820004 	lw	v0,4(gp)
80402a74:	8c420088 	lw	v0,136(v0)
80402a78:	00602021 	move	a0,v1
80402a7c:	00402821 	move	a1,v0
80402a80:	0c0a789f 	jal	8029e27c <DistanceFromObject>
80402a84:	00000000 	nop
80402a88:	4600000d 	trunc.w.s	$f0,$f0
80402a8c:	44030000 	mfc1	v1,$f0
80402a90:	24040019 	li	a0,25
80402a94:	240500a0 	li	a1,160
80402a98:	3c028040 	lui	v0,0x8040
80402a9c:	244674ec 	addiu	a2,v0,29932
80402aa0:	00603821 	move	a3,v1
80402aa4:	0c0b58b6 	jal	802d62d8 <PrintInt>
80402aa8:	00000000 	nop
80402aac:	8fc20030 	lw	v0,48(s8)
80402ab0:	8c43014c 	lw	v1,332(v0)
80402ab4:	24040019 	li	a0,25
80402ab8:	2405008c 	li	a1,140
80402abc:	3c028040 	lui	v0,0x8040
80402ac0:	244674f4 	addiu	a2,v0,29940
80402ac4:	00603821 	move	a3,v1
80402ac8:	0c0b58b6 	jal	802d62d8 <PrintInt>
80402acc:	00000000 	nop
80402ad0:	8fc20030 	lw	v0,48(s8)
80402ad4:	94420040 	lhu	v0,64(v0)
80402ad8:	00401821 	move	v1,v0
80402adc:	24040091 	li	a0,145
80402ae0:	2405008c 	li	a1,140
80402ae4:	3c028040 	lui	v0,0x8040
80402ae8:	244674fc 	addiu	a2,v0,29948
80402aec:	00603821 	move	a3,v1
80402af0:	0c0b58b6 	jal	802d62d8 <PrintInt>
80402af4:	00000000 	nop
80402af8:	8f82001c 	lw	v0,28(gp)
80402afc:	8c420000 	lw	v0,0(v0)
80402b00:	afc200a0 	sw	v0,160(s8)
80402b04:	8fc300a0 	lw	v1,160(s8)
80402b08:	2c62000f 	sltiu	v0,v1,15
80402b0c:	104002ef 	beqz	v0,804036cc <MenuPage05+0x1bc0>
80402b10:	00000000 	nop
80402b14:	8fc500a0 	lw	a1,160(s8)
80402b18:	00051880 	sll	v1,a1,0x2
80402b1c:	3c028040 	lui	v0,0x8040
80402b20:	24427554 	addiu	v0,v0,30036
80402b24:	00621021 	addu	v0,v1,v0
80402b28:	8c420000 	lw	v0,0(v0)
80402b2c:	00400008 	jr	v0
80402b30:	00000000 	nop
80402b34:	8f820004 	lw	v0,4(gp)
80402b38:	8c42009c 	lw	v0,156(v0)
80402b3c:	94420010 	lhu	v0,16(v0)
80402b40:	30420020 	andi	v0,v0,0x20
80402b44:	104002e1 	beqz	v0,804036cc <MenuPage05+0x1bc0>
80402b48:	00000000 	nop
80402b4c:	8f820018 	lw	v0,24(gp)
80402b50:	8c420000 	lw	v0,0(v0)
80402b54:	28420003 	slti	v0,v0,3
80402b58:	144002dc 	bnez	v0,804036cc <MenuPage05+0x1bc0>
80402b5c:	00000000 	nop
80402b60:	8f82000c 	lw	v0,12(gp)
80402b64:	8c420000 	lw	v0,0(v0)
80402b68:	afc20020 	sw	v0,32(s8)
80402b6c:	8f83000c 	lw	v1,12(gp)
80402b70:	8fc20030 	lw	v0,48(s8)
80402b74:	ac620000 	sw	v0,0(v1)
80402b78:	8f820008 	lw	v0,8(gp)
80402b7c:	8c420000 	lw	v0,0(v0)
80402b80:	00402021 	move	a0,v0
80402b84:	0c0b9abe 	jal	802e6af8 <ExplodeObject>
80402b88:	00000000 	nop
80402b8c:	8f83000c 	lw	v1,12(gp)
80402b90:	8fc20020 	lw	v0,32(s8)
80402b94:	ac620000 	sw	v0,0(v1)
80402b98:	08100db3 	j	804036cc <MenuPage05+0x1bc0>
80402b9c:	00000000 	nop
80402ba0:	8f820004 	lw	v0,4(gp)
80402ba4:	8c42009c 	lw	v0,156(v0)
80402ba8:	94420010 	lhu	v0,16(v0)
80402bac:	30420200 	andi	v0,v0,0x200
80402bb0:	1040000d 	beqz	v0,80402be8 <MenuPage05+0x10dc>
80402bb4:	00000000 	nop
80402bb8:	8f820018 	lw	v0,24(gp)
80402bbc:	8c420000 	lw	v0,0(v0)
80402bc0:	28420003 	slti	v0,v0,3
80402bc4:	14400008 	bnez	v0,80402be8 <MenuPage05+0x10dc>
80402bc8:	00000000 	nop
80402bcc:	8f830028 	lw	v1,40(gp)
80402bd0:	8f820028 	lw	v0,40(gp)
80402bd4:	8c420000 	lw	v0,0(v0)
80402bd8:	2442fffb 	addiu	v0,v0,-5
80402bdc:	ac620000 	sw	v0,0(v1)
80402be0:	8f820018 	lw	v0,24(gp)
80402be4:	ac400000 	sw	zero,0(v0)
80402be8:	8f820004 	lw	v0,4(gp)
80402bec:	8c42009c 	lw	v0,156(v0)
80402bf0:	94420010 	lhu	v0,16(v0)
80402bf4:	30420100 	andi	v0,v0,0x100
80402bf8:	104002b4 	beqz	v0,804036cc <MenuPage05+0x1bc0>
80402bfc:	00000000 	nop
80402c00:	8f820018 	lw	v0,24(gp)
80402c04:	8c420000 	lw	v0,0(v0)
80402c08:	28420003 	slti	v0,v0,3
80402c0c:	144002af 	bnez	v0,804036cc <MenuPage05+0x1bc0>
80402c10:	00000000 	nop
80402c14:	8f830028 	lw	v1,40(gp)
80402c18:	8f820028 	lw	v0,40(gp)
80402c1c:	8c420000 	lw	v0,0(v0)
80402c20:	24420005 	addiu	v0,v0,5
80402c24:	ac620000 	sw	v0,0(v1)
80402c28:	8f820018 	lw	v0,24(gp)
80402c2c:	ac400000 	sw	zero,0(v0)
80402c30:	08100db3 	j	804036cc <MenuPage05+0x1bc0>
80402c34:	00000000 	nop
80402c38:	8f820004 	lw	v0,4(gp)
80402c3c:	8c42009c 	lw	v0,156(v0)
80402c40:	94420010 	lhu	v0,16(v0)
80402c44:	30420200 	andi	v0,v0,0x200
80402c48:	10400010 	beqz	v0,80402c8c <MenuPage05+0x1180>
80402c4c:	00000000 	nop
80402c50:	8f820018 	lw	v0,24(gp)
80402c54:	8c420000 	lw	v0,0(v0)
80402c58:	28420003 	slti	v0,v0,3
80402c5c:	1440000b 	bnez	v0,80402c8c <MenuPage05+0x1180>
80402c60:	00000000 	nop
80402c64:	8fc20030 	lw	v0,48(s8)
80402c68:	c44200a8 	lwc1	$f2,168(v0)
80402c6c:	8f820028 	lw	v0,40(gp)
80402c70:	c4400000 	lwc1	$f0,0(v0)
80402c74:	46800020 	cvt.s.w	$f0,$f0
80402c78:	46001001 	sub.s	$f0,$f2,$f0
80402c7c:	8fc20030 	lw	v0,48(s8)
80402c80:	e44000a8 	swc1	$f0,168(v0)
80402c84:	8f820018 	lw	v0,24(gp)
80402c88:	ac400000 	sw	zero,0(v0)
80402c8c:	8f820004 	lw	v0,4(gp)
80402c90:	8c42009c 	lw	v0,156(v0)
80402c94:	94420010 	lhu	v0,16(v0)
80402c98:	30420100 	andi	v0,v0,0x100
80402c9c:	1040028b 	beqz	v0,804036cc <MenuPage05+0x1bc0>
80402ca0:	00000000 	nop
80402ca4:	8f820018 	lw	v0,24(gp)
80402ca8:	8c420000 	lw	v0,0(v0)
80402cac:	28420003 	slti	v0,v0,3
80402cb0:	14400286 	bnez	v0,804036cc <MenuPage05+0x1bc0>
80402cb4:	00000000 	nop
80402cb8:	8fc20030 	lw	v0,48(s8)
80402cbc:	c44200a8 	lwc1	$f2,168(v0)
80402cc0:	8f820028 	lw	v0,40(gp)
80402cc4:	c4400000 	lwc1	$f0,0(v0)
80402cc8:	46800020 	cvt.s.w	$f0,$f0
80402ccc:	46001000 	add.s	$f0,$f2,$f0
80402cd0:	8fc20030 	lw	v0,48(s8)
80402cd4:	e44000a8 	swc1	$f0,168(v0)
80402cd8:	8f820018 	lw	v0,24(gp)
80402cdc:	ac400000 	sw	zero,0(v0)
80402ce0:	08100db3 	j	804036cc <MenuPage05+0x1bc0>
80402ce4:	00000000 	nop
80402ce8:	8f820004 	lw	v0,4(gp)
80402cec:	8c42009c 	lw	v0,156(v0)
80402cf0:	94420010 	lhu	v0,16(v0)
80402cf4:	30420200 	andi	v0,v0,0x200
80402cf8:	10400010 	beqz	v0,80402d3c <MenuPage05+0x1230>
80402cfc:	00000000 	nop
80402d00:	8f820018 	lw	v0,24(gp)
80402d04:	8c420000 	lw	v0,0(v0)
80402d08:	28420003 	slti	v0,v0,3
80402d0c:	1440000b 	bnez	v0,80402d3c <MenuPage05+0x1230>
80402d10:	00000000 	nop
80402d14:	8fc20030 	lw	v0,48(s8)
80402d18:	c44200a4 	lwc1	$f2,164(v0)
80402d1c:	8f820028 	lw	v0,40(gp)
80402d20:	c4400000 	lwc1	$f0,0(v0)
80402d24:	46800020 	cvt.s.w	$f0,$f0
80402d28:	46001001 	sub.s	$f0,$f2,$f0
80402d2c:	8fc20030 	lw	v0,48(s8)
80402d30:	e44000a4 	swc1	$f0,164(v0)
80402d34:	8f820018 	lw	v0,24(gp)
80402d38:	ac400000 	sw	zero,0(v0)
80402d3c:	8f820004 	lw	v0,4(gp)
80402d40:	8c42009c 	lw	v0,156(v0)
80402d44:	94420010 	lhu	v0,16(v0)
80402d48:	30420100 	andi	v0,v0,0x100
80402d4c:	1040025f 	beqz	v0,804036cc <MenuPage05+0x1bc0>
80402d50:	00000000 	nop
80402d54:	8f820018 	lw	v0,24(gp)
80402d58:	8c420000 	lw	v0,0(v0)
80402d5c:	28420003 	slti	v0,v0,3
80402d60:	1440025a 	bnez	v0,804036cc <MenuPage05+0x1bc0>
80402d64:	00000000 	nop
80402d68:	8fc20030 	lw	v0,48(s8)
80402d6c:	c44200a4 	lwc1	$f2,164(v0)
80402d70:	8f820028 	lw	v0,40(gp)
80402d74:	c4400000 	lwc1	$f0,0(v0)
80402d78:	46800020 	cvt.s.w	$f0,$f0
80402d7c:	46001000 	add.s	$f0,$f2,$f0
80402d80:	8fc20030 	lw	v0,48(s8)
80402d84:	e44000a4 	swc1	$f0,164(v0)
80402d88:	8f820018 	lw	v0,24(gp)
80402d8c:	ac400000 	sw	zero,0(v0)
80402d90:	08100db3 	j	804036cc <MenuPage05+0x1bc0>
80402d94:	00000000 	nop
80402d98:	8f820004 	lw	v0,4(gp)
80402d9c:	8c42009c 	lw	v0,156(v0)
80402da0:	94420010 	lhu	v0,16(v0)
80402da4:	30420200 	andi	v0,v0,0x200
80402da8:	10400010 	beqz	v0,80402dec <MenuPage05+0x12e0>
80402dac:	00000000 	nop
80402db0:	8f820018 	lw	v0,24(gp)
80402db4:	8c420000 	lw	v0,0(v0)
80402db8:	28420003 	slti	v0,v0,3
80402dbc:	1440000b 	bnez	v0,80402dec <MenuPage05+0x12e0>
80402dc0:	00000000 	nop
80402dc4:	8fc20030 	lw	v0,48(s8)
80402dc8:	c44200a0 	lwc1	$f2,160(v0)
80402dcc:	8f820028 	lw	v0,40(gp)
80402dd0:	c4400000 	lwc1	$f0,0(v0)
80402dd4:	46800020 	cvt.s.w	$f0,$f0
80402dd8:	46001001 	sub.s	$f0,$f2,$f0
80402ddc:	8fc20030 	lw	v0,48(s8)
80402de0:	e44000a0 	swc1	$f0,160(v0)
80402de4:	8f820018 	lw	v0,24(gp)
80402de8:	ac400000 	sw	zero,0(v0)
80402dec:	8f820004 	lw	v0,4(gp)
80402df0:	8c42009c 	lw	v0,156(v0)
80402df4:	94420010 	lhu	v0,16(v0)
80402df8:	30420100 	andi	v0,v0,0x100
80402dfc:	10400233 	beqz	v0,804036cc <MenuPage05+0x1bc0>
80402e00:	00000000 	nop
80402e04:	8f820018 	lw	v0,24(gp)
80402e08:	8c420000 	lw	v0,0(v0)
80402e0c:	28420003 	slti	v0,v0,3
80402e10:	1440022e 	bnez	v0,804036cc <MenuPage05+0x1bc0>
80402e14:	00000000 	nop
80402e18:	8fc20030 	lw	v0,48(s8)
80402e1c:	c44200a0 	lwc1	$f2,160(v0)
80402e20:	8f820028 	lw	v0,40(gp)
80402e24:	c4400000 	lwc1	$f0,0(v0)
80402e28:	46800020 	cvt.s.w	$f0,$f0
80402e2c:	46001000 	add.s	$f0,$f2,$f0
80402e30:	8fc20030 	lw	v0,48(s8)
80402e34:	e44000a0 	swc1	$f0,160(v0)
80402e38:	8f820018 	lw	v0,24(gp)
80402e3c:	ac400000 	sw	zero,0(v0)
80402e40:	08100db3 	j	804036cc <MenuPage05+0x1bc0>
80402e44:	00000000 	nop
80402e48:	8f820004 	lw	v0,4(gp)
80402e4c:	8c42009c 	lw	v0,156(v0)
80402e50:	94420010 	lhu	v0,16(v0)
80402e54:	30420200 	andi	v0,v0,0x200
80402e58:	10400010 	beqz	v0,80402e9c <MenuPage05+0x1390>
80402e5c:	00000000 	nop
80402e60:	8f820018 	lw	v0,24(gp)
80402e64:	8c420000 	lw	v0,0(v0)
80402e68:	28420003 	slti	v0,v0,3
80402e6c:	1440000b 	bnez	v0,80402e9c <MenuPage05+0x1390>
80402e70:	00000000 	nop
80402e74:	8fc20030 	lw	v0,48(s8)
80402e78:	c4400034 	lwc1	$f0,52(v0)
80402e7c:	460000a1 	cvt.d.s	$f2,$f0
80402e80:	d7800090 	ldc1	$f0,144(gp)
80402e84:	46201001 	sub.d	$f0,$f2,$f0
80402e88:	46200020 	cvt.s.d	$f0,$f0
80402e8c:	8fc20030 	lw	v0,48(s8)
80402e90:	e4400034 	swc1	$f0,52(v0)
80402e94:	8f820018 	lw	v0,24(gp)
80402e98:	ac400000 	sw	zero,0(v0)
80402e9c:	8f820004 	lw	v0,4(gp)
80402ea0:	8c42009c 	lw	v0,156(v0)
80402ea4:	94420010 	lhu	v0,16(v0)
80402ea8:	30420100 	andi	v0,v0,0x100
80402eac:	10400207 	beqz	v0,804036cc <MenuPage05+0x1bc0>
80402eb0:	00000000 	nop
80402eb4:	8f820018 	lw	v0,24(gp)
80402eb8:	8c420000 	lw	v0,0(v0)
80402ebc:	28420003 	slti	v0,v0,3
80402ec0:	14400202 	bnez	v0,804036cc <MenuPage05+0x1bc0>
80402ec4:	00000000 	nop
80402ec8:	8fc20030 	lw	v0,48(s8)
80402ecc:	c4400034 	lwc1	$f0,52(v0)
80402ed0:	460000a1 	cvt.d.s	$f2,$f0
80402ed4:	d7800090 	ldc1	$f0,144(gp)
80402ed8:	46201000 	add.d	$f0,$f2,$f0
80402edc:	46200020 	cvt.s.d	$f0,$f0
80402ee0:	8fc20030 	lw	v0,48(s8)
80402ee4:	e4400034 	swc1	$f0,52(v0)
80402ee8:	8f820018 	lw	v0,24(gp)
80402eec:	ac400000 	sw	zero,0(v0)
80402ef0:	08100db3 	j	804036cc <MenuPage05+0x1bc0>
80402ef4:	00000000 	nop
80402ef8:	8f820004 	lw	v0,4(gp)
80402efc:	8c42009c 	lw	v0,156(v0)
80402f00:	94420010 	lhu	v0,16(v0)
80402f04:	30420200 	andi	v0,v0,0x200
80402f08:	10400010 	beqz	v0,80402f4c <MenuPage05+0x1440>
80402f0c:	00000000 	nop
80402f10:	8f820018 	lw	v0,24(gp)
80402f14:	8c420000 	lw	v0,0(v0)
80402f18:	28420003 	slti	v0,v0,3
80402f1c:	1440000b 	bnez	v0,80402f4c <MenuPage05+0x1440>
80402f20:	00000000 	nop
80402f24:	8fc20030 	lw	v0,48(s8)
80402f28:	c4400030 	lwc1	$f0,48(v0)
80402f2c:	460000a1 	cvt.d.s	$f2,$f0
80402f30:	d7800090 	ldc1	$f0,144(gp)
80402f34:	46201001 	sub.d	$f0,$f2,$f0
80402f38:	46200020 	cvt.s.d	$f0,$f0
80402f3c:	8fc20030 	lw	v0,48(s8)
80402f40:	e4400030 	swc1	$f0,48(v0)
80402f44:	8f820018 	lw	v0,24(gp)
80402f48:	ac400000 	sw	zero,0(v0)
80402f4c:	8f820004 	lw	v0,4(gp)
80402f50:	8c42009c 	lw	v0,156(v0)
80402f54:	94420010 	lhu	v0,16(v0)
80402f58:	30420100 	andi	v0,v0,0x100
80402f5c:	104001db 	beqz	v0,804036cc <MenuPage05+0x1bc0>
80402f60:	00000000 	nop
80402f64:	8f820018 	lw	v0,24(gp)
80402f68:	8c420000 	lw	v0,0(v0)
80402f6c:	28420003 	slti	v0,v0,3
80402f70:	144001d6 	bnez	v0,804036cc <MenuPage05+0x1bc0>
80402f74:	00000000 	nop
80402f78:	8fc20030 	lw	v0,48(s8)
80402f7c:	c4400030 	lwc1	$f0,48(v0)
80402f80:	460000a1 	cvt.d.s	$f2,$f0
80402f84:	d7800090 	ldc1	$f0,144(gp)
80402f88:	46201000 	add.d	$f0,$f2,$f0
80402f8c:	46200020 	cvt.s.d	$f0,$f0
80402f90:	8fc20030 	lw	v0,48(s8)
80402f94:	e4400030 	swc1	$f0,48(v0)
80402f98:	8f820018 	lw	v0,24(gp)
80402f9c:	ac400000 	sw	zero,0(v0)
80402fa0:	08100db3 	j	804036cc <MenuPage05+0x1bc0>
80402fa4:	00000000 	nop
80402fa8:	8f820004 	lw	v0,4(gp)
80402fac:	8c42009c 	lw	v0,156(v0)
80402fb0:	94420010 	lhu	v0,16(v0)
80402fb4:	30420200 	andi	v0,v0,0x200
80402fb8:	10400010 	beqz	v0,80402ffc <MenuPage05+0x14f0>
80402fbc:	00000000 	nop
80402fc0:	8f820018 	lw	v0,24(gp)
80402fc4:	8c420000 	lw	v0,0(v0)
80402fc8:	28420003 	slti	v0,v0,3
80402fcc:	1440000b 	bnez	v0,80402ffc <MenuPage05+0x14f0>
80402fd0:	00000000 	nop
80402fd4:	8fc20030 	lw	v0,48(s8)
80402fd8:	c440002c 	lwc1	$f0,44(v0)
80402fdc:	460000a1 	cvt.d.s	$f2,$f0
80402fe0:	d7800090 	ldc1	$f0,144(gp)
80402fe4:	46201001 	sub.d	$f0,$f2,$f0
80402fe8:	46200020 	cvt.s.d	$f0,$f0
80402fec:	8fc20030 	lw	v0,48(s8)
80402ff0:	e440002c 	swc1	$f0,44(v0)
80402ff4:	8f820018 	lw	v0,24(gp)
80402ff8:	ac400000 	sw	zero,0(v0)
80402ffc:	8f820004 	lw	v0,4(gp)
80403000:	8c42009c 	lw	v0,156(v0)
80403004:	94420010 	lhu	v0,16(v0)
80403008:	30420100 	andi	v0,v0,0x100
8040300c:	104001af 	beqz	v0,804036cc <MenuPage05+0x1bc0>
80403010:	00000000 	nop
80403014:	8f820018 	lw	v0,24(gp)
80403018:	8c420000 	lw	v0,0(v0)
8040301c:	28420003 	slti	v0,v0,3
80403020:	144001aa 	bnez	v0,804036cc <MenuPage05+0x1bc0>
80403024:	00000000 	nop
80403028:	8fc20030 	lw	v0,48(s8)
8040302c:	c440002c 	lwc1	$f0,44(v0)
80403030:	460000a1 	cvt.d.s	$f2,$f0
80403034:	d7800090 	ldc1	$f0,144(gp)
80403038:	46201000 	add.d	$f0,$f2,$f0
8040303c:	46200020 	cvt.s.d	$f0,$f0
80403040:	8fc20030 	lw	v0,48(s8)
80403044:	e440002c 	swc1	$f0,44(v0)
80403048:	8f820018 	lw	v0,24(gp)
8040304c:	ac400000 	sw	zero,0(v0)
80403050:	08100db3 	j	804036cc <MenuPage05+0x1bc0>
80403054:	00000000 	nop
80403058:	8f820004 	lw	v0,4(gp)
8040305c:	8c42009c 	lw	v0,156(v0)
80403060:	94420010 	lhu	v0,16(v0)
80403064:	30420200 	andi	v0,v0,0x200
80403068:	10400020 	beqz	v0,804030ec <MenuPage05+0x15e0>
8040306c:	00000000 	nop
80403070:	8f820018 	lw	v0,24(gp)
80403074:	8c420000 	lw	v0,0(v0)
80403078:	28420003 	slti	v0,v0,3
8040307c:	1440001b 	bnez	v0,804030ec <MenuPage05+0x15e0>
80403080:	00000000 	nop
80403084:	8fc20030 	lw	v0,48(s8)
80403088:	c440002c 	lwc1	$f0,44(v0)
8040308c:	460000a1 	cvt.d.s	$f2,$f0
80403090:	d7800090 	ldc1	$f0,144(gp)
80403094:	46201001 	sub.d	$f0,$f2,$f0
80403098:	46200020 	cvt.s.d	$f0,$f0
8040309c:	8fc20030 	lw	v0,48(s8)
804030a0:	e440002c 	swc1	$f0,44(v0)
804030a4:	8fc20030 	lw	v0,48(s8)
804030a8:	c4400030 	lwc1	$f0,48(v0)
804030ac:	460000a1 	cvt.d.s	$f2,$f0
804030b0:	d7800090 	ldc1	$f0,144(gp)
804030b4:	46201001 	sub.d	$f0,$f2,$f0
804030b8:	46200020 	cvt.s.d	$f0,$f0
804030bc:	8fc20030 	lw	v0,48(s8)
804030c0:	e4400030 	swc1	$f0,48(v0)
804030c4:	8fc20030 	lw	v0,48(s8)
804030c8:	c4400034 	lwc1	$f0,52(v0)
804030cc:	460000a1 	cvt.d.s	$f2,$f0
804030d0:	d7800090 	ldc1	$f0,144(gp)
804030d4:	46201001 	sub.d	$f0,$f2,$f0
804030d8:	46200020 	cvt.s.d	$f0,$f0
804030dc:	8fc20030 	lw	v0,48(s8)
804030e0:	e4400034 	swc1	$f0,52(v0)
804030e4:	8f820018 	lw	v0,24(gp)
804030e8:	ac400000 	sw	zero,0(v0)
804030ec:	8f820004 	lw	v0,4(gp)
804030f0:	8c42009c 	lw	v0,156(v0)
804030f4:	94420010 	lhu	v0,16(v0)
804030f8:	30420100 	andi	v0,v0,0x100
804030fc:	10400173 	beqz	v0,804036cc <MenuPage05+0x1bc0>
80403100:	00000000 	nop
80403104:	8f820018 	lw	v0,24(gp)
80403108:	8c420000 	lw	v0,0(v0)
8040310c:	28420003 	slti	v0,v0,3
80403110:	1440016e 	bnez	v0,804036cc <MenuPage05+0x1bc0>
80403114:	00000000 	nop
80403118:	8fc20030 	lw	v0,48(s8)
8040311c:	c440002c 	lwc1	$f0,44(v0)
80403120:	460000a1 	cvt.d.s	$f2,$f0
80403124:	d7800090 	ldc1	$f0,144(gp)
80403128:	46201000 	add.d	$f0,$f2,$f0
8040312c:	46200020 	cvt.s.d	$f0,$f0
80403130:	8fc20030 	lw	v0,48(s8)
80403134:	e440002c 	swc1	$f0,44(v0)
80403138:	8fc20030 	lw	v0,48(s8)
8040313c:	c4400030 	lwc1	$f0,48(v0)
80403140:	460000a1 	cvt.d.s	$f2,$f0
80403144:	d7800090 	ldc1	$f0,144(gp)
80403148:	46201000 	add.d	$f0,$f2,$f0
8040314c:	46200020 	cvt.s.d	$f0,$f0
80403150:	8fc20030 	lw	v0,48(s8)
80403154:	e4400030 	swc1	$f0,48(v0)
80403158:	8fc20030 	lw	v0,48(s8)
8040315c:	c4400034 	lwc1	$f0,52(v0)
80403160:	460000a1 	cvt.d.s	$f2,$f0
80403164:	d7800090 	ldc1	$f0,144(gp)
80403168:	46201000 	add.d	$f0,$f2,$f0
8040316c:	46200020 	cvt.s.d	$f0,$f0
80403170:	8fc20030 	lw	v0,48(s8)
80403174:	e4400034 	swc1	$f0,52(v0)
80403178:	8f820018 	lw	v0,24(gp)
8040317c:	ac400000 	sw	zero,0(v0)
80403180:	08100db3 	j	804036cc <MenuPage05+0x1bc0>
80403184:	00000000 	nop
80403188:	8f820004 	lw	v0,4(gp)
8040318c:	8c42009c 	lw	v0,156(v0)
80403190:	94420010 	lhu	v0,16(v0)
80403194:	30420200 	andi	v0,v0,0x200
80403198:	10400012 	beqz	v0,804031e4 <MenuPage05+0x16d8>
8040319c:	00000000 	nop
804031a0:	8f820018 	lw	v0,24(gp)
804031a4:	8c420000 	lw	v0,0(v0)
804031a8:	28420003 	slti	v0,v0,3
804031ac:	1440000d 	bnez	v0,804031e4 <MenuPage05+0x16d8>
804031b0:	00000000 	nop
804031b4:	8fc20030 	lw	v0,48(s8)
804031b8:	8c4200c4 	lw	v0,196(v0)
804031bc:	2443f574 	addiu	v1,v0,-2700
804031c0:	8fc20030 	lw	v0,48(s8)
804031c4:	ac4300c4 	sw	v1,196(v0)
804031c8:	8fc20030 	lw	v0,48(s8)
804031cc:	8c4200d0 	lw	v0,208(v0)
804031d0:	2443f574 	addiu	v1,v0,-2700
804031d4:	8fc20030 	lw	v0,48(s8)
804031d8:	ac4300d0 	sw	v1,208(v0)
804031dc:	8f820018 	lw	v0,24(gp)
804031e0:	ac400000 	sw	zero,0(v0)
804031e4:	8f820004 	lw	v0,4(gp)
804031e8:	8c42009c 	lw	v0,156(v0)
804031ec:	94420010 	lhu	v0,16(v0)
804031f0:	30420100 	andi	v0,v0,0x100
804031f4:	10400135 	beqz	v0,804036cc <MenuPage05+0x1bc0>
804031f8:	00000000 	nop
804031fc:	8f820018 	lw	v0,24(gp)
80403200:	8c420000 	lw	v0,0(v0)
80403204:	28420003 	slti	v0,v0,3
80403208:	14400130 	bnez	v0,804036cc <MenuPage05+0x1bc0>
8040320c:	00000000 	nop
80403210:	8fc20030 	lw	v0,48(s8)
80403214:	8c4200c4 	lw	v0,196(v0)
80403218:	24430a8c 	addiu	v1,v0,2700
8040321c:	8fc20030 	lw	v0,48(s8)
80403220:	ac4300c4 	sw	v1,196(v0)
80403224:	8fc20030 	lw	v0,48(s8)
80403228:	8c4200d0 	lw	v0,208(v0)
8040322c:	24430a8c 	addiu	v1,v0,2700
80403230:	8fc20030 	lw	v0,48(s8)
80403234:	ac4300d0 	sw	v1,208(v0)
80403238:	8f820018 	lw	v0,24(gp)
8040323c:	ac400000 	sw	zero,0(v0)
80403240:	08100db3 	j	804036cc <MenuPage05+0x1bc0>
80403244:	00000000 	nop
80403248:	8f820004 	lw	v0,4(gp)
8040324c:	8c42009c 	lw	v0,156(v0)
80403250:	94420010 	lhu	v0,16(v0)
80403254:	30420200 	andi	v0,v0,0x200
80403258:	10400012 	beqz	v0,804032a4 <MenuPage05+0x1798>
8040325c:	00000000 	nop
80403260:	8f820018 	lw	v0,24(gp)
80403264:	8c420000 	lw	v0,0(v0)
80403268:	28420003 	slti	v0,v0,3
8040326c:	1440000d 	bnez	v0,804032a4 <MenuPage05+0x1798>
80403270:	00000000 	nop
80403274:	8fc20030 	lw	v0,48(s8)
80403278:	8c4200c8 	lw	v0,200(v0)
8040327c:	2443f574 	addiu	v1,v0,-2700
80403280:	8fc20030 	lw	v0,48(s8)
80403284:	ac4300c8 	sw	v1,200(v0)
80403288:	8fc20030 	lw	v0,48(s8)
8040328c:	8c4200d4 	lw	v0,212(v0)
80403290:	2443f574 	addiu	v1,v0,-2700
80403294:	8fc20030 	lw	v0,48(s8)
80403298:	ac4300d4 	sw	v1,212(v0)
8040329c:	8f820018 	lw	v0,24(gp)
804032a0:	ac400000 	sw	zero,0(v0)
804032a4:	8f820004 	lw	v0,4(gp)
804032a8:	8c42009c 	lw	v0,156(v0)
804032ac:	94420010 	lhu	v0,16(v0)
804032b0:	30420100 	andi	v0,v0,0x100
804032b4:	10400105 	beqz	v0,804036cc <MenuPage05+0x1bc0>
804032b8:	00000000 	nop
804032bc:	8f820018 	lw	v0,24(gp)
804032c0:	8c420000 	lw	v0,0(v0)
804032c4:	28420003 	slti	v0,v0,3
804032c8:	14400100 	bnez	v0,804036cc <MenuPage05+0x1bc0>
804032cc:	00000000 	nop
804032d0:	8fc20030 	lw	v0,48(s8)
804032d4:	8c4200c8 	lw	v0,200(v0)
804032d8:	24430a8c 	addiu	v1,v0,2700
804032dc:	8fc20030 	lw	v0,48(s8)
804032e0:	ac4300c8 	sw	v1,200(v0)
804032e4:	8fc20030 	lw	v0,48(s8)
804032e8:	8c4200d4 	lw	v0,212(v0)
804032ec:	24430a8c 	addiu	v1,v0,2700
804032f0:	8fc20030 	lw	v0,48(s8)
804032f4:	ac4300d4 	sw	v1,212(v0)
804032f8:	8f820018 	lw	v0,24(gp)
804032fc:	ac400000 	sw	zero,0(v0)
80403300:	08100db3 	j	804036cc <MenuPage05+0x1bc0>
80403304:	00000000 	nop
80403308:	8f820004 	lw	v0,4(gp)
8040330c:	8c42009c 	lw	v0,156(v0)
80403310:	94420010 	lhu	v0,16(v0)
80403314:	30420200 	andi	v0,v0,0x200
80403318:	10400012 	beqz	v0,80403364 <MenuPage05+0x1858>
8040331c:	00000000 	nop
80403320:	8f820018 	lw	v0,24(gp)
80403324:	8c420000 	lw	v0,0(v0)
80403328:	28420003 	slti	v0,v0,3
8040332c:	1440000d 	bnez	v0,80403364 <MenuPage05+0x1858>
80403330:	00000000 	nop
80403334:	8fc20030 	lw	v0,48(s8)
80403338:	8c4200cc 	lw	v0,204(v0)
8040333c:	2443f574 	addiu	v1,v0,-2700
80403340:	8fc20030 	lw	v0,48(s8)
80403344:	ac4300cc 	sw	v1,204(v0)
80403348:	8fc20030 	lw	v0,48(s8)
8040334c:	8c4200d8 	lw	v0,216(v0)
80403350:	2443f574 	addiu	v1,v0,-2700
80403354:	8fc20030 	lw	v0,48(s8)
80403358:	ac4300d8 	sw	v1,216(v0)
8040335c:	8f820018 	lw	v0,24(gp)
80403360:	ac400000 	sw	zero,0(v0)
80403364:	8f820004 	lw	v0,4(gp)
80403368:	8c42009c 	lw	v0,156(v0)
8040336c:	94420010 	lhu	v0,16(v0)
80403370:	30420100 	andi	v0,v0,0x100
80403374:	104000d5 	beqz	v0,804036cc <MenuPage05+0x1bc0>
80403378:	00000000 	nop
8040337c:	8f820018 	lw	v0,24(gp)
80403380:	8c420000 	lw	v0,0(v0)
80403384:	28420003 	slti	v0,v0,3
80403388:	144000d0 	bnez	v0,804036cc <MenuPage05+0x1bc0>
8040338c:	00000000 	nop
80403390:	8fc20030 	lw	v0,48(s8)
80403394:	8c4200cc 	lw	v0,204(v0)
80403398:	24430a8c 	addiu	v1,v0,2700
8040339c:	8fc20030 	lw	v0,48(s8)
804033a0:	ac4300cc 	sw	v1,204(v0)
804033a4:	8fc20030 	lw	v0,48(s8)
804033a8:	8c4200d8 	lw	v0,216(v0)
804033ac:	24430a8c 	addiu	v1,v0,2700
804033b0:	8fc20030 	lw	v0,48(s8)
804033b4:	ac4300d8 	sw	v1,216(v0)
804033b8:	8f820018 	lw	v0,24(gp)
804033bc:	ac400000 	sw	zero,0(v0)
804033c0:	08100db3 	j	804036cc <MenuPage05+0x1bc0>
804033c4:	00000000 	nop
804033c8:	8f820004 	lw	v0,4(gp)
804033cc:	8c42009c 	lw	v0,156(v0)
804033d0:	94420010 	lhu	v0,16(v0)
804033d4:	30420200 	andi	v0,v0,0x200
804033d8:	10400023 	beqz	v0,80403468 <MenuPage05+0x195c>
804033dc:	00000000 	nop
804033e0:	8f820018 	lw	v0,24(gp)
804033e4:	8c420000 	lw	v0,0(v0)
804033e8:	28420003 	slti	v0,v0,3
804033ec:	1440001e 	bnez	v0,80403468 <MenuPage05+0x195c>
804033f0:	00000000 	nop
804033f4:	8f830040 	lw	v1,64(gp)
804033f8:	8f820040 	lw	v0,64(gp)
804033fc:	8c420000 	lw	v0,0(v0)
80403400:	2442ffff 	addiu	v0,v0,-1
80403404:	ac620000 	sw	v0,0(v1)
80403408:	8f820040 	lw	v0,64(gp)
8040340c:	8c420000 	lw	v0,0(v0)
80403410:	04410003 	bgez	v0,80403420 <MenuPage05+0x1914>
80403414:	00000000 	nop
80403418:	8f820040 	lw	v0,64(gp)
8040341c:	ac400000 	sw	zero,0(v0)
80403420:	8f820040 	lw	v0,64(gp)
80403424:	8c420000 	lw	v0,0(v0)
80403428:	00401821 	move	v1,v0
8040342c:	3c02200c 	lui	v0,0x200c
80403430:	3442ed34 	ori	v0,v0,0xed34
80403434:	00621021 	addu	v0,v1,v0
80403438:	00021080 	sll	v0,v0,0x2
8040343c:	afc2001c 	sw	v0,28(s8)
80403440:	8fc2001c 	lw	v0,28(s8)
80403444:	8c420000 	lw	v0,0(v0)
80403448:	10400005 	beqz	v0,80403460 <MenuPage05+0x1954>
8040344c:	00000000 	nop
80403450:	8fc2001c 	lw	v0,28(s8)
80403454:	8c430000 	lw	v1,0(v0)
80403458:	8fc20030 	lw	v0,48(s8)
8040345c:	ac430014 	sw	v1,20(v0)
80403460:	8f820018 	lw	v0,24(gp)
80403464:	ac400000 	sw	zero,0(v0)
80403468:	8f820004 	lw	v0,4(gp)
8040346c:	8c42009c 	lw	v0,156(v0)
80403470:	94420010 	lhu	v0,16(v0)
80403474:	30420100 	andi	v0,v0,0x100
80403478:	10400094 	beqz	v0,804036cc <MenuPage05+0x1bc0>
8040347c:	00000000 	nop
80403480:	8f820018 	lw	v0,24(gp)
80403484:	8c420000 	lw	v0,0(v0)
80403488:	28420003 	slti	v0,v0,3
8040348c:	1440008f 	bnez	v0,804036cc <MenuPage05+0x1bc0>
80403490:	00000000 	nop
80403494:	8f830040 	lw	v1,64(gp)
80403498:	8f820040 	lw	v0,64(gp)
8040349c:	8c420000 	lw	v0,0(v0)
804034a0:	24420001 	addiu	v0,v0,1
804034a4:	ac620000 	sw	v0,0(v1)
804034a8:	8f820040 	lw	v0,64(gp)
804034ac:	8c420000 	lw	v0,0(v0)
804034b0:	28420100 	slti	v0,v0,256
804034b4:	14400004 	bnez	v0,804034c8 <MenuPage05+0x19bc>
804034b8:	00000000 	nop
804034bc:	8f830040 	lw	v1,64(gp)
804034c0:	240200ff 	li	v0,255
804034c4:	ac620000 	sw	v0,0(v1)
804034c8:	8f820040 	lw	v0,64(gp)
804034cc:	8c420000 	lw	v0,0(v0)
804034d0:	00401821 	move	v1,v0
804034d4:	3c02200c 	lui	v0,0x200c
804034d8:	3442ed34 	ori	v0,v0,0xed34
804034dc:	00621021 	addu	v0,v1,v0
804034e0:	00021080 	sll	v0,v0,0x2
804034e4:	afc20018 	sw	v0,24(s8)
804034e8:	8fc20018 	lw	v0,24(s8)
804034ec:	8c420000 	lw	v0,0(v0)
804034f0:	10400005 	beqz	v0,80403508 <MenuPage05+0x19fc>
804034f4:	00000000 	nop
804034f8:	8fc20018 	lw	v0,24(s8)
804034fc:	8c430000 	lw	v1,0(v0)
80403500:	8fc20030 	lw	v0,48(s8)
80403504:	ac430014 	sw	v1,20(v0)
80403508:	8f820018 	lw	v0,24(gp)
8040350c:	ac400000 	sw	zero,0(v0)
80403510:	08100db3 	j	804036cc <MenuPage05+0x1bc0>
80403514:	00000000 	nop
80403518:	8f820004 	lw	v0,4(gp)
8040351c:	8c42009c 	lw	v0,156(v0)
80403520:	94420010 	lhu	v0,16(v0)
80403524:	30420200 	andi	v0,v0,0x200
80403528:	10400013 	beqz	v0,80403578 <MenuPage05+0x1a6c>
8040352c:	00000000 	nop
80403530:	8f820018 	lw	v0,24(gp)
80403534:	8c420000 	lw	v0,0(v0)
80403538:	28420003 	slti	v0,v0,3
8040353c:	1440000e 	bnez	v0,80403578 <MenuPage05+0x1a6c>
80403540:	00000000 	nop
80403544:	8f830068 	lw	v1,104(gp)
80403548:	8f820068 	lw	v0,104(gp)
8040354c:	8c420000 	lw	v0,0(v0)
80403550:	2442ffff 	addiu	v0,v0,-1
80403554:	ac620000 	sw	v0,0(v1)
80403558:	8f820068 	lw	v0,104(gp)
8040355c:	8c420000 	lw	v0,0(v0)
80403560:	04410003 	bgez	v0,80403570 <MenuPage05+0x1a64>
80403564:	00000000 	nop
80403568:	8f820068 	lw	v0,104(gp)
8040356c:	ac400000 	sw	zero,0(v0)
80403570:	8f820018 	lw	v0,24(gp)
80403574:	ac400000 	sw	zero,0(v0)
80403578:	8f820004 	lw	v0,4(gp)
8040357c:	8c42009c 	lw	v0,156(v0)
80403580:	94420010 	lhu	v0,16(v0)
80403584:	30420100 	andi	v0,v0,0x100
80403588:	10400050 	beqz	v0,804036cc <MenuPage05+0x1bc0>
8040358c:	00000000 	nop
80403590:	8f820018 	lw	v0,24(gp)
80403594:	8c420000 	lw	v0,0(v0)
80403598:	28420003 	slti	v0,v0,3
8040359c:	1440004b 	bnez	v0,804036cc <MenuPage05+0x1bc0>
804035a0:	00000000 	nop
804035a4:	8f830068 	lw	v1,104(gp)
804035a8:	8f820068 	lw	v0,104(gp)
804035ac:	8c420000 	lw	v0,0(v0)
804035b0:	24420001 	addiu	v0,v0,1
804035b4:	ac620000 	sw	v0,0(v1)
804035b8:	8f820068 	lw	v0,104(gp)
804035bc:	8c420000 	lw	v0,0(v0)
804035c0:	28420010 	slti	v0,v0,16
804035c4:	14400004 	bnez	v0,804035d8 <MenuPage05+0x1acc>
804035c8:	00000000 	nop
804035cc:	8f830068 	lw	v1,104(gp)
804035d0:	2402000f 	li	v0,15
804035d4:	ac620000 	sw	v0,0(v1)
804035d8:	8f820018 	lw	v0,24(gp)
804035dc:	ac400000 	sw	zero,0(v0)
804035e0:	08100db3 	j	804036cc <MenuPage05+0x1bc0>
804035e4:	00000000 	nop
804035e8:	8f82000c 	lw	v0,12(gp)
804035ec:	8c420000 	lw	v0,0(v0)
804035f0:	afc20068 	sw	v0,104(s8)
804035f4:	8f83000c 	lw	v1,12(gp)
804035f8:	8fc20030 	lw	v0,48(s8)
804035fc:	ac620000 	sw	v0,0(v1)
80403600:	8f820008 	lw	v0,8(gp)
80403604:	8c420000 	lw	v0,0(v0)
80403608:	c440002c 	lwc1	$f0,44(v0)
8040360c:	e7c00070 	swc1	$f0,112(s8)
80403610:	8f820008 	lw	v0,8(gp)
80403614:	8c420000 	lw	v0,0(v0)
80403618:	c4400030 	lwc1	$f0,48(v0)
8040361c:	e7c00074 	swc1	$f0,116(s8)
80403620:	8f820008 	lw	v0,8(gp)
80403624:	8c420000 	lw	v0,0(v0)
80403628:	c4400034 	lwc1	$f0,52(v0)
8040362c:	e7c00078 	swc1	$f0,120(s8)
80403630:	8f820008 	lw	v0,8(gp)
80403634:	8c420000 	lw	v0,0(v0)
80403638:	8c420014 	lw	v0,20(v0)
8040363c:	afc20088 	sw	v0,136(s8)
80403640:	8f820008 	lw	v0,8(gp)
80403644:	8c420000 	lw	v0,0(v0)
80403648:	8c420120 	lw	v0,288(v0)
8040364c:	afc2008c 	sw	v0,140(s8)
80403650:	8f820008 	lw	v0,8(gp)
80403654:	8c420000 	lw	v0,0(v0)
80403658:	8c420218 	lw	v0,536(v0)
8040365c:	afc20090 	sw	v0,144(s8)
80403660:	8f820008 	lw	v0,8(gp)
80403664:	8c420000 	lw	v0,0(v0)
80403668:	c7c00070 	lwc1	$f0,112(s8)
8040366c:	e440002c 	swc1	$f0,44(v0)
80403670:	8f820008 	lw	v0,8(gp)
80403674:	8c420000 	lw	v0,0(v0)
80403678:	c7c00074 	lwc1	$f0,116(s8)
8040367c:	e4400030 	swc1	$f0,48(v0)
80403680:	8f820008 	lw	v0,8(gp)
80403684:	8c420000 	lw	v0,0(v0)
80403688:	c7c00078 	lwc1	$f0,120(s8)
8040368c:	e4400034 	swc1	$f0,52(v0)
80403690:	8f820008 	lw	v0,8(gp)
80403694:	8c430000 	lw	v1,0(v0)
80403698:	8fc20088 	lw	v0,136(s8)
8040369c:	ac620014 	sw	v0,20(v1)
804036a0:	8f820008 	lw	v0,8(gp)
804036a4:	8c430000 	lw	v1,0(v0)
804036a8:	8fc2008c 	lw	v0,140(s8)
804036ac:	ac620120 	sw	v0,288(v1)
804036b0:	8f820008 	lw	v0,8(gp)
804036b4:	8c430000 	lw	v1,0(v0)
804036b8:	8fc20090 	lw	v0,144(s8)
804036bc:	ac620218 	sw	v0,536(v1)
804036c0:	8f83000c 	lw	v1,12(gp)
804036c4:	8fc20068 	lw	v0,104(s8)
804036c8:	ac620000 	sw	v0,0(v1)
804036cc:	3c028033 	lui	v0,0x8033
804036d0:	3442afac 	ori	v0,v0,0xafac
804036d4:	afc2002c 	sw	v0,44(s8)
804036d8:	8fc20030 	lw	v0,48(s8)
804036dc:	8c4200c8 	lw	v0,200(v0)
804036e0:	00401821 	move	v1,v0
804036e4:	3c02b60b 	lui	v0,0xb60b
804036e8:	344260b7 	ori	v0,v0,0x60b7
804036ec:	00620018 	mult	v1,v0
804036f0:	00001010 	mfhi	v0
804036f4:	00431021 	addu	v0,v0,v1
804036f8:	000221c3 	sra	a0,v0,0x7
804036fc:	000317c3 	sra	v0,v1,0x1f
80403700:	00821023 	subu	v0,a0,v0
80403704:	244200b4 	addiu	v0,v0,180
80403708:	afc20028 	sw	v0,40(s8)
8040370c:	afc00024 	sw	zero,36(s8)
80403710:	8fc20028 	lw	v0,40(s8)
80403714:	04410002 	bgez	v0,80403720 <MenuPage05+0x1c14>
80403718:	00000000 	nop
8040371c:	afc00028 	sw	zero,40(s8)
80403720:	8fc20028 	lw	v0,40(s8)
80403724:	28420169 	slti	v0,v0,361
80403728:	14400003 	bnez	v0,80403738 <MenuPage05+0x1c2c>
8040372c:	00000000 	nop
80403730:	24020168 	li	v0,360
80403734:	afc20028 	sw	v0,40(s8)
80403738:	8fc30030 	lw	v1,48(s8)
8040373c:	3c0200ff 	lui	v0,0xff
80403740:	3442ffff 	ori	v0,v0,0xffff
80403744:	00621824 	and	v1,v1,v0
80403748:	24040014 	li	a0,20
8040374c:	24050078 	li	a1,120
80403750:	3c028040 	lui	v0,0x8040
80403754:	24467508 	addiu	a2,v0,29960
80403758:	00603821 	move	a3,v1
8040375c:	0c0b58b6 	jal	802d62d8 <PrintInt>
80403760:	00000000 	nop
80403764:	8fc30028 	lw	v1,40(s8)
80403768:	2404009b 	li	a0,155
8040376c:	24050078 	li	a1,120
80403770:	3c028040 	lui	v0,0x8040
80403774:	24467510 	addiu	a2,v0,29968
80403778:	00603821 	move	a3,v1
8040377c:	0c0b58b6 	jal	802d62d8 <PrintInt>
80403780:	00000000 	nop
80403784:	8fc20028 	lw	v0,40(s8)
80403788:	04400011 	bltz	v0,804037d0 <MenuPage05+0x1cc4>
8040378c:	00000000 	nop
80403790:	8fc20028 	lw	v0,40(s8)
80403794:	2842005a 	slti	v0,v0,90
80403798:	1040000d 	beqz	v0,804037d0 <MenuPage05+0x1cc4>
8040379c:	00000000 	nop
804037a0:	8fc20028 	lw	v0,40(s8)
804037a4:	2404010e 	li	a0,270
804037a8:	24050078 	li	a1,120
804037ac:	3c038040 	lui	v1,0x8040
804037b0:	24667518 	addiu	a2,v1,29976
804037b4:	00403821 	move	a3,v0
804037b8:	0c0b58b6 	jal	802d62d8 <PrintInt>
804037bc:	00000000 	nop
804037c0:	24020001 	li	v0,1
804037c4:	afc20024 	sw	v0,36(s8)
804037c8:	08100e2e 	j	804038b8 <MenuPage05+0x1dac>
804037cc:	00000000 	nop
804037d0:	8fc20028 	lw	v0,40(s8)
804037d4:	2842005a 	slti	v0,v0,90
804037d8:	14400011 	bnez	v0,80403820 <MenuPage05+0x1d14>
804037dc:	00000000 	nop
804037e0:	8fc20028 	lw	v0,40(s8)
804037e4:	284200b4 	slti	v0,v0,180
804037e8:	1040000d 	beqz	v0,80403820 <MenuPage05+0x1d14>
804037ec:	00000000 	nop
804037f0:	8fc20028 	lw	v0,40(s8)
804037f4:	2404010e 	li	a0,270
804037f8:	24050078 	li	a1,120
804037fc:	3c038040 	lui	v1,0x8040
80403800:	2466751c 	addiu	a2,v1,29980
80403804:	00403821 	move	a3,v0
80403808:	0c0b58b6 	jal	802d62d8 <PrintInt>
8040380c:	00000000 	nop
80403810:	24020002 	li	v0,2
80403814:	afc20024 	sw	v0,36(s8)
80403818:	08100e2e 	j	804038b8 <MenuPage05+0x1dac>
8040381c:	00000000 	nop
80403820:	8fc20028 	lw	v0,40(s8)
80403824:	284200b4 	slti	v0,v0,180
80403828:	14400011 	bnez	v0,80403870 <MenuPage05+0x1d64>
8040382c:	00000000 	nop
80403830:	8fc20028 	lw	v0,40(s8)
80403834:	2842010e 	slti	v0,v0,270
80403838:	1040000d 	beqz	v0,80403870 <MenuPage05+0x1d64>
8040383c:	00000000 	nop
80403840:	8fc20028 	lw	v0,40(s8)
80403844:	2404010e 	li	a0,270
80403848:	24050078 	li	a1,120
8040384c:	3c038040 	lui	v1,0x8040
80403850:	24667520 	addiu	a2,v1,29984
80403854:	00403821 	move	a3,v0
80403858:	0c0b58b6 	jal	802d62d8 <PrintInt>
8040385c:	00000000 	nop
80403860:	24020003 	li	v0,3
80403864:	afc20024 	sw	v0,36(s8)
80403868:	08100e2e 	j	804038b8 <MenuPage05+0x1dac>
8040386c:	00000000 	nop
80403870:	8fc20028 	lw	v0,40(s8)
80403874:	2842010e 	slti	v0,v0,270
80403878:	1440000f 	bnez	v0,804038b8 <MenuPage05+0x1dac>
8040387c:	00000000 	nop
80403880:	8fc20028 	lw	v0,40(s8)
80403884:	28420169 	slti	v0,v0,361
80403888:	1040000b 	beqz	v0,804038b8 <MenuPage05+0x1dac>
8040388c:	00000000 	nop
80403890:	8fc20028 	lw	v0,40(s8)
80403894:	2404010e 	li	a0,270
80403898:	24050078 	li	a1,120
8040389c:	3c038040 	lui	v1,0x8040
804038a0:	24667524 	addiu	a2,v1,29988
804038a4:	00403821 	move	a3,v0
804038a8:	0c0b58b6 	jal	802d62d8 <PrintInt>
804038ac:	00000000 	nop
804038b0:	24020004 	li	v0,4
804038b4:	afc20024 	sw	v0,36(s8)
804038b8:	8fc2002c 	lw	v0,44(s8)
804038bc:	c4420004 	lwc1	$f2,4(v0)
804038c0:	44800000 	mtc1	zero,$f0
804038c4:	00000000 	nop
804038c8:	46001032 	c.eq.s	$f2,$f0
804038cc:	00000000 	nop
804038d0:	45000009 	bc1f	804038f8 <MenuPage05+0x1dec>
804038d4:	00000000 	nop
804038d8:	8fc2002c 	lw	v0,44(s8)
804038dc:	c4420008 	lwc1	$f2,8(v0)
804038e0:	44800000 	mtc1	zero,$f0
804038e4:	00000000 	nop
804038e8:	46001032 	c.eq.s	$f2,$f0
804038ec:	00000000 	nop
804038f0:	4501001b 	bc1t	80403960 <MenuPage05+0x1e54>
804038f4:	00000000 	nop
804038f8:	8fc2002c 	lw	v0,44(s8)
804038fc:	8c430008 	lw	v1,8(v0)
80403900:	3c028000 	lui	v0,0x8000
80403904:	00621826 	xor	v1,v1,v0
80403908:	8fc2002c 	lw	v0,44(s8)
8040390c:	c4400004 	lwc1	$f0,4(v0)
80403910:	44836000 	mtc1	v1,$f12
80403914:	46000386 	mov.s	$f14,$f0
80403918:	0c0dea6a 	jal	8037a9a8 <_8037a9a8>
8040391c:	00000000 	nop
80403920:	00401821 	move	v1,v0
80403924:	8fc20030 	lw	v0,48(s8)
80403928:	ac4300c8 	sw	v1,200(v0)
8040392c:	8fc2002c 	lw	v0,44(s8)
80403930:	8c430008 	lw	v1,8(v0)
80403934:	3c028000 	lui	v0,0x8000
80403938:	00621826 	xor	v1,v1,v0
8040393c:	8fc2002c 	lw	v0,44(s8)
80403940:	c4400004 	lwc1	$f0,4(v0)
80403944:	44836000 	mtc1	v1,$f12
80403948:	46000386 	mov.s	$f14,$f0
8040394c:	0c0dea6a 	jal	8037a9a8 <_8037a9a8>
80403950:	00000000 	nop
80403954:	00401821 	move	v1,v0
80403958:	8fc20030 	lw	v0,48(s8)
8040395c:	ac4300d4 	sw	v1,212(v0)
80403960:	8fc20024 	lw	v0,36(s8)
80403964:	afc200cc 	sw	v0,204(s8)
80403968:	24020002 	li	v0,2
8040396c:	8fc300cc 	lw	v1,204(s8)
80403970:	10620043 	beq	v1,v0,80403a80 <MenuPage05+0x1f74>
80403974:	00000000 	nop
80403978:	8fc500cc 	lw	a1,204(s8)
8040397c:	28a20003 	slti	v0,a1,3
80403980:	10400007 	beqz	v0,804039a0 <MenuPage05+0x1e94>
80403984:	00000000 	nop
80403988:	24020001 	li	v0,1
8040398c:	8fc300cc 	lw	v1,204(s8)
80403990:	1062000d 	beq	v1,v0,804039c8 <MenuPage05+0x1ebc>
80403994:	00000000 	nop
80403998:	08100f28 	j	80403ca0 <MenuPage05+0x2194>
8040399c:	00000000 	nop
804039a0:	24020003 	li	v0,3
804039a4:	8fc500cc 	lw	a1,204(s8)
804039a8:	10a20063 	beq	a1,v0,80403b38 <MenuPage05+0x202c>
804039ac:	00000000 	nop
804039b0:	24020004 	li	v0,4
804039b4:	8fc300cc 	lw	v1,204(s8)
804039b8:	1062008d 	beq	v1,v0,80403bf0 <MenuPage05+0x20e4>
804039bc:	00000000 	nop
804039c0:	08100f28 	j	80403ca0 <MenuPage05+0x2194>
804039c4:	00000000 	nop
804039c8:	8fc20030 	lw	v0,48(s8)
804039cc:	c45400a8 	lwc1	$f20,168(v0)
804039d0:	8fc2002c 	lw	v0,44(s8)
804039d4:	c4400008 	lwc1	$f0,8(v0)
804039d8:	4600000d 	trunc.w.s	$f0,$f0
804039dc:	468000a0 	cvt.s.w	$f2,$f0
804039e0:	c7800098 	lwc1	$f0,152(gp)
804039e4:	46001582 	mul.s	$f22,$f2,$f0
804039e8:	c7c00028 	lwc1	$f0,40(s8)
804039ec:	468000a1 	cvt.d.w	$f2,$f0
804039f0:	d78000a0 	ldc1	$f0,160(gp)
804039f4:	46201082 	mul.d	$f2,$f2,$f0
804039f8:	d78000a8 	ldc1	$f0,168(gp)
804039fc:	46201003 	div.d	$f0,$f2,$f0
80403a00:	46200020 	cvt.s.d	$f0,$f0
80403a04:	46000306 	mov.s	$f12,$f0
80403a08:	0c0c94c4 	jal	80325310 <cosf>
80403a0c:	00000000 	nop
80403a10:	4600b002 	mul.s	$f0,$f22,$f0
80403a14:	4600a000 	add.s	$f0,$f20,$f0
80403a18:	8fc20030 	lw	v0,48(s8)
80403a1c:	e44000a8 	swc1	$f0,168(v0)
80403a20:	8fc20030 	lw	v0,48(s8)
80403a24:	c45400a0 	lwc1	$f20,160(v0)
80403a28:	8fc2002c 	lw	v0,44(s8)
80403a2c:	c4400008 	lwc1	$f0,8(v0)
80403a30:	4600000d 	trunc.w.s	$f0,$f0
80403a34:	468000a0 	cvt.s.w	$f2,$f0
80403a38:	c7800098 	lwc1	$f0,152(gp)
80403a3c:	46001582 	mul.s	$f22,$f2,$f0
80403a40:	c7c00028 	lwc1	$f0,40(s8)
80403a44:	468000a1 	cvt.d.w	$f2,$f0
80403a48:	d78000a0 	ldc1	$f0,160(gp)
80403a4c:	46201082 	mul.d	$f2,$f2,$f0
80403a50:	d78000a8 	ldc1	$f0,168(gp)
80403a54:	46201003 	div.d	$f0,$f2,$f0
80403a58:	46200020 	cvt.s.d	$f0,$f0
80403a5c:	46000306 	mov.s	$f12,$f0
80403a60:	0c0c9520 	jal	80325480 <sinf>
80403a64:	00000000 	nop
80403a68:	4600b002 	mul.s	$f0,$f22,$f0
80403a6c:	4600a000 	add.s	$f0,$f20,$f0
80403a70:	8fc20030 	lw	v0,48(s8)
80403a74:	e44000a0 	swc1	$f0,160(v0)
80403a78:	08100f28 	j	80403ca0 <MenuPage05+0x2194>
80403a7c:	00000000 	nop
80403a80:	8fc20030 	lw	v0,48(s8)
80403a84:	c45400a8 	lwc1	$f20,168(v0)
80403a88:	8fc2002c 	lw	v0,44(s8)
80403a8c:	c4400004 	lwc1	$f0,4(v0)
80403a90:	4600000d 	trunc.w.s	$f0,$f0
80403a94:	468000a0 	cvt.s.w	$f2,$f0
80403a98:	c78000b0 	lwc1	$f0,176(gp)
80403a9c:	46001582 	mul.s	$f22,$f2,$f0
80403aa0:	c7c00028 	lwc1	$f0,40(s8)
80403aa4:	468000a1 	cvt.d.w	$f2,$f0
80403aa8:	d78000a0 	ldc1	$f0,160(gp)
80403aac:	46201082 	mul.d	$f2,$f2,$f0
80403ab0:	d78000a8 	ldc1	$f0,168(gp)
80403ab4:	46201003 	div.d	$f0,$f2,$f0
80403ab8:	46200020 	cvt.s.d	$f0,$f0
80403abc:	46000306 	mov.s	$f12,$f0
80403ac0:	0c0c94c4 	jal	80325310 <cosf>
80403ac4:	00000000 	nop
80403ac8:	4600b002 	mul.s	$f0,$f22,$f0
80403acc:	4600a000 	add.s	$f0,$f20,$f0
80403ad0:	8fc20030 	lw	v0,48(s8)
80403ad4:	e44000a8 	swc1	$f0,168(v0)
80403ad8:	8fc20030 	lw	v0,48(s8)
80403adc:	c45400a0 	lwc1	$f20,160(v0)
80403ae0:	8fc2002c 	lw	v0,44(s8)
80403ae4:	c4400004 	lwc1	$f0,4(v0)
80403ae8:	4600000d 	trunc.w.s	$f0,$f0
80403aec:	468000a0 	cvt.s.w	$f2,$f0
80403af0:	c78000b0 	lwc1	$f0,176(gp)
80403af4:	46001582 	mul.s	$f22,$f2,$f0
80403af8:	c7c00028 	lwc1	$f0,40(s8)
80403afc:	468000a1 	cvt.d.w	$f2,$f0
80403b00:	d78000a0 	ldc1	$f0,160(gp)
80403b04:	46201082 	mul.d	$f2,$f2,$f0
80403b08:	d78000a8 	ldc1	$f0,168(gp)
80403b0c:	46201003 	div.d	$f0,$f2,$f0
80403b10:	46200020 	cvt.s.d	$f0,$f0
80403b14:	46000306 	mov.s	$f12,$f0
80403b18:	0c0c9520 	jal	80325480 <sinf>
80403b1c:	00000000 	nop
80403b20:	4600b002 	mul.s	$f0,$f22,$f0
80403b24:	4600a000 	add.s	$f0,$f20,$f0
80403b28:	8fc20030 	lw	v0,48(s8)
80403b2c:	e44000a0 	swc1	$f0,160(v0)
80403b30:	08100f28 	j	80403ca0 <MenuPage05+0x2194>
80403b34:	00000000 	nop
80403b38:	8fc20030 	lw	v0,48(s8)
80403b3c:	c45400a8 	lwc1	$f20,168(v0)
80403b40:	8fc2002c 	lw	v0,44(s8)
80403b44:	c4400008 	lwc1	$f0,8(v0)
80403b48:	4600000d 	trunc.w.s	$f0,$f0
80403b4c:	468000a0 	cvt.s.w	$f2,$f0
80403b50:	c78000b0 	lwc1	$f0,176(gp)
80403b54:	46001582 	mul.s	$f22,$f2,$f0
80403b58:	c7c00028 	lwc1	$f0,40(s8)
80403b5c:	468000a1 	cvt.d.w	$f2,$f0
80403b60:	d78000a0 	ldc1	$f0,160(gp)
80403b64:	46201082 	mul.d	$f2,$f2,$f0
80403b68:	d78000a8 	ldc1	$f0,168(gp)
80403b6c:	46201003 	div.d	$f0,$f2,$f0
80403b70:	46200020 	cvt.s.d	$f0,$f0
80403b74:	46000306 	mov.s	$f12,$f0
80403b78:	0c0c94c4 	jal	80325310 <cosf>
80403b7c:	00000000 	nop
80403b80:	4600b002 	mul.s	$f0,$f22,$f0
80403b84:	4600a000 	add.s	$f0,$f20,$f0
80403b88:	8fc20030 	lw	v0,48(s8)
80403b8c:	e44000a8 	swc1	$f0,168(v0)
80403b90:	8fc20030 	lw	v0,48(s8)
80403b94:	c45400a0 	lwc1	$f20,160(v0)
80403b98:	8fc2002c 	lw	v0,44(s8)
80403b9c:	c4400008 	lwc1	$f0,8(v0)
80403ba0:	4600000d 	trunc.w.s	$f0,$f0
80403ba4:	468000a0 	cvt.s.w	$f2,$f0
80403ba8:	c78000b0 	lwc1	$f0,176(gp)
80403bac:	46001582 	mul.s	$f22,$f2,$f0
80403bb0:	c7c00028 	lwc1	$f0,40(s8)
80403bb4:	468000a1 	cvt.d.w	$f2,$f0
80403bb8:	d78000a0 	ldc1	$f0,160(gp)
80403bbc:	46201082 	mul.d	$f2,$f2,$f0
80403bc0:	d78000a8 	ldc1	$f0,168(gp)
80403bc4:	46201003 	div.d	$f0,$f2,$f0
80403bc8:	46200020 	cvt.s.d	$f0,$f0
80403bcc:	46000306 	mov.s	$f12,$f0
80403bd0:	0c0c9520 	jal	80325480 <sinf>
80403bd4:	00000000 	nop
80403bd8:	4600b002 	mul.s	$f0,$f22,$f0
80403bdc:	4600a000 	add.s	$f0,$f20,$f0
80403be0:	8fc20030 	lw	v0,48(s8)
80403be4:	e44000a0 	swc1	$f0,160(v0)
80403be8:	08100f28 	j	80403ca0 <MenuPage05+0x2194>
80403bec:	00000000 	nop
80403bf0:	8fc20030 	lw	v0,48(s8)
80403bf4:	c45400a8 	lwc1	$f20,168(v0)
80403bf8:	8fc2002c 	lw	v0,44(s8)
80403bfc:	c4400004 	lwc1	$f0,4(v0)
80403c00:	4600000d 	trunc.w.s	$f0,$f0
80403c04:	468000a0 	cvt.s.w	$f2,$f0
80403c08:	c7800098 	lwc1	$f0,152(gp)
80403c0c:	46001582 	mul.s	$f22,$f2,$f0
80403c10:	c7c00028 	lwc1	$f0,40(s8)
80403c14:	468000a1 	cvt.d.w	$f2,$f0
80403c18:	d78000a0 	ldc1	$f0,160(gp)
80403c1c:	46201082 	mul.d	$f2,$f2,$f0
80403c20:	d78000a8 	ldc1	$f0,168(gp)
80403c24:	46201003 	div.d	$f0,$f2,$f0
80403c28:	46200020 	cvt.s.d	$f0,$f0
80403c2c:	46000306 	mov.s	$f12,$f0
80403c30:	0c0c94c4 	jal	80325310 <cosf>
80403c34:	00000000 	nop
80403c38:	4600b002 	mul.s	$f0,$f22,$f0
80403c3c:	4600a000 	add.s	$f0,$f20,$f0
80403c40:	8fc20030 	lw	v0,48(s8)
80403c44:	e44000a8 	swc1	$f0,168(v0)
80403c48:	8fc20030 	lw	v0,48(s8)
80403c4c:	c45400a0 	lwc1	$f20,160(v0)
80403c50:	8fc2002c 	lw	v0,44(s8)
80403c54:	c4400004 	lwc1	$f0,4(v0)
80403c58:	4600000d 	trunc.w.s	$f0,$f0
80403c5c:	468000a0 	cvt.s.w	$f2,$f0
80403c60:	c7800098 	lwc1	$f0,152(gp)
80403c64:	46001582 	mul.s	$f22,$f2,$f0
80403c68:	c7c00028 	lwc1	$f0,40(s8)
80403c6c:	468000a1 	cvt.d.w	$f2,$f0
80403c70:	d78000a0 	ldc1	$f0,160(gp)
80403c74:	46201082 	mul.d	$f2,$f2,$f0
80403c78:	d78000a8 	ldc1	$f0,168(gp)
80403c7c:	46201003 	div.d	$f0,$f2,$f0
80403c80:	46200020 	cvt.s.d	$f0,$f0
80403c84:	46000306 	mov.s	$f12,$f0
80403c88:	0c0c9520 	jal	80325480 <sinf>
80403c8c:	00000000 	nop
80403c90:	4600b002 	mul.s	$f0,$f22,$f0
80403c94:	4600a000 	add.s	$f0,$f20,$f0
80403c98:	8fc20030 	lw	v0,48(s8)
80403c9c:	e44000a0 	swc1	$f0,160(v0)
80403ca0:	8fc2002c 	lw	v0,44(s8)
80403ca4:	94420010 	lhu	v0,16(v0)
80403ca8:	00021400 	sll	v0,v0,0x10
80403cac:	00021403 	sra	v0,v0,0x10
80403cb0:	04410007 	bgez	v0,80403cd0 <MenuPage05+0x21c4>
80403cb4:	00000000 	nop
80403cb8:	8fc20030 	lw	v0,48(s8)
80403cbc:	c44200a4 	lwc1	$f2,164(v0)
80403cc0:	c78000b4 	lwc1	$f0,180(gp)
80403cc4:	46001000 	add.s	$f0,$f2,$f0
80403cc8:	8fc20030 	lw	v0,48(s8)
80403ccc:	e44000a4 	swc1	$f0,164(v0)
80403cd0:	8f830070 	lw	v1,112(gp)
80403cd4:	8f820070 	lw	v0,112(gp)
80403cd8:	8c420000 	lw	v0,0(v0)
80403cdc:	24420001 	addiu	v0,v0,1
80403ce0:	ac620000 	sw	v0,0(v1)
80403ce4:	8fc2002c 	lw	v0,44(s8)
80403ce8:	94420010 	lhu	v0,16(v0)
80403cec:	30424000 	andi	v0,v0,0x4000
80403cf0:	1040002a 	beqz	v0,80403d9c <MenuPage05+0x2290>
80403cf4:	00000000 	nop
80403cf8:	8f820070 	lw	v0,112(gp)
80403cfc:	8c420000 	lw	v0,0(v0)
80403d00:	28420029 	slti	v0,v0,41
80403d04:	14400025 	bnez	v0,80403d9c <MenuPage05+0x2290>
80403d08:	00000000 	nop
80403d0c:	8f82000c 	lw	v0,12(gp)
80403d10:	8c420000 	lw	v0,0(v0)
80403d14:	afc20068 	sw	v0,104(s8)
80403d18:	8f83000c 	lw	v1,12(gp)
80403d1c:	8fc20030 	lw	v0,48(s8)
80403d20:	ac620000 	sw	v0,0(v1)
80403d24:	8f820008 	lw	v0,8(gp)
80403d28:	8c420000 	lw	v0,0(v0)
80403d2c:	00402021 	move	a0,v0
80403d30:	24050090 	li	a1,144
80403d34:	3c021300 	lui	v0,0x1300
80403d38:	34461184 	ori	a2,v0,0x1184
80403d3c:	0c0a7b73 	jal	8029edcc <SpawnObj>
80403d40:	00000000 	nop
80403d44:	afc20014 	sw	v0,20(s8)
80403d48:	8fc20014 	lw	v0,20(s8)
80403d4c:	c78000b8 	lwc1	$f0,184(gp)
80403d50:	e440002c 	swc1	$f0,44(v0)
80403d54:	8fc20014 	lw	v0,20(s8)
80403d58:	c78000b8 	lwc1	$f0,184(gp)
80403d5c:	e4400030 	swc1	$f0,48(v0)
80403d60:	8fc20014 	lw	v0,20(s8)
80403d64:	c78000b8 	lwc1	$f0,184(gp)
80403d68:	e4400034 	swc1	$f0,52(v0)
80403d6c:	8fc20014 	lw	v0,20(s8)
80403d70:	c78000b4 	lwc1	$f0,180(gp)
80403d74:	e44000b8 	swc1	$f0,184(v0)
80403d78:	3c026008 	lui	v0,0x6008
80403d7c:	34446001 	ori	a0,v0,0x6001
80403d80:	0c0b2864 	jal	802ca190 <PlaySound>
80403d84:	00000000 	nop
80403d88:	8f83000c 	lw	v1,12(gp)
80403d8c:	8fc20068 	lw	v0,104(s8)
80403d90:	ac620000 	sw	v0,0(v1)
80403d94:	8f820070 	lw	v0,112(gp)
80403d98:	ac400000 	sw	zero,0(v0)
80403d9c:	8fc20030 	lw	v0,48(s8)
80403da0:	94420074 	lhu	v0,116(v0)
80403da4:	10400008 	beqz	v0,80403dc8 <MenuPage05+0x22bc>
80403da8:	00000000 	nop
80403dac:	8f820044 	lw	v0,68(gp)
80403db0:	8c420000 	lw	v0,0(v0)
80403db4:	00401821 	move	v1,v0
80403db8:	8fc20030 	lw	v0,48(s8)
80403dbc:	8c42020c 	lw	v0,524(v0)
80403dc0:	10620003 	beq	v1,v0,80403dd0 <MenuPage05+0x22c4>
80403dc4:	00000000 	nop
80403dc8:	8fc20050 	lw	v0,80(s8)
80403dcc:	ac400000 	sw	zero,0(v0)
80403dd0:	8fc40030 	lw	a0,48(s8)
80403dd4:	0c100fd9 	jal	80403f64 <CheckFireCollision>
80403dd8:	00000000 	nop
80403ddc:	8fc2002c 	lw	v0,44(s8)
80403de0:	94420010 	lhu	v0,16(v0)
80403de4:	30422000 	andi	v0,v0,0x2000
80403de8:	10400016 	beqz	v0,80403e44 <MenuPage05+0x2338>
80403dec:	00000000 	nop
80403df0:	8f820018 	lw	v0,24(gp)
80403df4:	8c420000 	lw	v0,0(v0)
80403df8:	28420010 	slti	v0,v0,16
80403dfc:	14400011 	bnez	v0,80403e44 <MenuPage05+0x2338>
80403e00:	00000000 	nop
80403e04:	8f820074 	lw	v0,116(gp)
80403e08:	8c420000 	lw	v0,0(v0)
80403e0c:	14400006 	bnez	v0,80403e28 <MenuPage05+0x231c>
80403e10:	00000000 	nop
80403e14:	8f830074 	lw	v1,116(gp)
80403e18:	24020001 	li	v0,1
80403e1c:	ac620000 	sw	v0,0(v1)
80403e20:	08100f91 	j	80403e44 <MenuPage05+0x2338>
80403e24:	00000000 	nop
80403e28:	8f820074 	lw	v0,116(gp)
80403e2c:	8c430000 	lw	v1,0(v0)
80403e30:	24020001 	li	v0,1
80403e34:	14620003 	bne	v1,v0,80403e44 <MenuPage05+0x2338>
80403e38:	00000000 	nop
80403e3c:	8f820074 	lw	v0,116(gp)
80403e40:	ac400000 	sw	zero,0(v0)
80403e44:	24040014 	li	a0,20
80403e48:	24050014 	li	a1,20
80403e4c:	3c028040 	lui	v0,0x8040
80403e50:	24467528 	addiu	a2,v0,29992
80403e54:	00003821 	move	a3,zero
80403e58:	0c0b58b6 	jal	802d62d8 <PrintInt>
80403e5c:	00000000 	nop
80403e60:	8f820074 	lw	v0,116(gp)
80403e64:	8c430000 	lw	v1,0(v0)
80403e68:	24020001 	li	v0,1
80403e6c:	1462001c 	bne	v1,v0,80403ee0 <MenuPage05+0x23d4>
80403e70:	00000000 	nop
80403e74:	8f830078 	lw	v1,120(gp)
80403e78:	8fc20030 	lw	v0,48(s8)
80403e7c:	ac620000 	sw	v0,0(v1)
80403e80:	8f820004 	lw	v0,4(gp)
80403e84:	8c420094 	lw	v0,148(v0)
80403e88:	afc20010 	sw	v0,16(s8)
80403e8c:	8fc20030 	lw	v0,48(s8)
80403e90:	c44000a0 	lwc1	$f0,160(v0)
80403e94:	8fc20010 	lw	v0,16(s8)
80403e98:	e4400004 	swc1	$f0,4(v0)
80403e9c:	8fc20030 	lw	v0,48(s8)
80403ea0:	c44000a4 	lwc1	$f0,164(v0)
80403ea4:	8fc20010 	lw	v0,16(s8)
80403ea8:	e4400008 	swc1	$f0,8(v0)
80403eac:	8fc20030 	lw	v0,48(s8)
80403eb0:	c44000a8 	lwc1	$f0,168(v0)
80403eb4:	8fc20010 	lw	v0,16(s8)
80403eb8:	e440000c 	swc1	$f0,12(v0)
80403ebc:	2404006e 	li	a0,110
80403ec0:	24050014 	li	a1,20
80403ec4:	3c028040 	lui	v0,0x8040
80403ec8:	24467530 	addiu	a2,v0,30000
80403ecc:	00003821 	move	a3,zero
80403ed0:	0c0b58b6 	jal	802d62d8 <PrintInt>
80403ed4:	00000000 	nop
80403ed8:	08100fbf 	j	80403efc <MenuPage05+0x23f0>
80403edc:	00000000 	nop
80403ee0:	2404006e 	li	a0,110
80403ee4:	24050014 	li	a1,20
80403ee8:	3c028040 	lui	v0,0x8040
80403eec:	24467534 	addiu	a2,v0,30004
80403ef0:	00003821 	move	a3,zero
80403ef4:	0c0b58b6 	jal	802d62d8 <PrintInt>
80403ef8:	00000000 	nop
80403efc:	8fc20030 	lw	v0,48(s8)
80403f00:	ac40015c 	sw	zero,348(v0)
80403f04:	8fc20030 	lw	v0,48(s8)
80403f08:	c78000bc 	lwc1	$f0,188(gp)
80403f0c:	e4400194 	swc1	$f0,404(v0)
80403f10:	8fc20030 	lw	v0,48(s8)
80403f14:	c78000bc 	lwc1	$f0,188(gp)
80403f18:	e440019c 	swc1	$f0,412(v0)
80403f1c:	08100fd0 	j	80403f40 <MenuPage05+0x2434>
80403f20:	00000000 	nop
80403f24:	2404000a 	li	a0,10
80403f28:	2405001e 	li	a1,30
80403f2c:	3c028040 	lui	v0,0x8040
80403f30:	2446753c 	addiu	a2,v0,30012
80403f34:	00003821 	move	a3,zero
80403f38:	0c0b58b6 	jal	802d62d8 <PrintInt>
80403f3c:	00000000 	nop
80403f40:	03c0e821 	move	sp,s8
80403f44:	8fbf00dc 	lw	ra,220(sp)
80403f48:	8fbe00d8 	lw	s8,216(sp)
80403f4c:	8fb000d4 	lw	s0,212(sp)
80403f50:	d7b600e8 	ldc1	$f22,232(sp)
80403f54:	d7b400e0 	ldc1	$f20,224(sp)
80403f58:	27bd00f0 	addiu	sp,sp,240
80403f5c:	03e00008 	jr	ra
80403f60:	00000000 	nop

80403f64 <CheckFireCollision>:
80403f64:	27bdffc8 	addiu	sp,sp,-56
80403f68:	afbf0034 	sw	ra,52(sp)
80403f6c:	afbe0030 	sw	s8,48(sp)
80403f70:	03a0f021 	move	s8,sp
80403f74:	afc40038 	sw	a0,56(s8)
80403f78:	8fc20038 	lw	v0,56(s8)
80403f7c:	afc20028 	sw	v0,40(s8)
80403f80:	8f82000c 	lw	v0,12(gp)
80403f84:	8c420000 	lw	v0,0(v0)
80403f88:	afc20024 	sw	v0,36(s8)
80403f8c:	8f83000c 	lw	v1,12(gp)
80403f90:	3c028033 	lui	v0,0x8033
80403f94:	3442d488 	ori	v0,v0,0xd488
80403f98:	ac620000 	sw	v0,0(v1)
80403f9c:	3c021300 	lui	v0,0x1300
80403fa0:	34441184 	ori	a0,v0,0x1184
80403fa4:	0c09dfd4 	jal	80277f50 <SegmentedToVirtual>
80403fa8:	00000000 	nop
80403fac:	afc20010 	sw	v0,16(s8)
80403fb0:	afc0001c 	sw	zero,28(s8)
80403fb4:	0810108b 	j	8040422c <CheckFireCollision+0x2c8>
80403fb8:	00000000 	nop
80403fbc:	8f820008 	lw	v0,8(gp)
80403fc0:	8c420000 	lw	v0,0(v0)
80403fc4:	8c43020c 	lw	v1,524(v0)
80403fc8:	8fc20010 	lw	v0,16(s8)
80403fcc:	1462008f 	bne	v1,v0,8040420c <CheckFireCollision+0x2a8>
80403fd0:	00000000 	nop
80403fd4:	8f82000c 	lw	v0,12(gp)
80403fd8:	8c420000 	lw	v0,0(v0)
80403fdc:	afc20020 	sw	v0,32(s8)
80403fe0:	8f82000c 	lw	v0,12(gp)
80403fe4:	8c420000 	lw	v0,0(v0)
80403fe8:	af8200d0 	sw	v0,208(gp)
80403fec:	8f83000c 	lw	v1,12(gp)
80403ff0:	3c028033 	lui	v0,0x8033
80403ff4:	3442d488 	ori	v0,v0,0xd488
80403ff8:	ac620000 	sw	v0,0(v1)
80403ffc:	afc00014 	sw	zero,20(s8)
80404000:	0810107c 	j	804041f0 <CheckFireCollision+0x28c>
80404004:	00000000 	nop
80404008:	8f820008 	lw	v0,8(gp)
8040400c:	8c420000 	lw	v0,0(v0)
80404010:	8c42003c 	lw	v0,60(v0)
80404014:	14400006 	bnez	v0,80404030 <CheckFireCollision+0xcc>
80404018:	00000000 	nop
8040401c:	8f820008 	lw	v0,8(gp)
80404020:	8c420000 	lw	v0,0(v0)
80404024:	8c420218 	lw	v0,536(v0)
80404028:	10400069 	beqz	v0,804041d0 <CheckFireCollision+0x26c>
8040402c:	00000000 	nop
80404030:	8f820008 	lw	v0,8(gp)
80404034:	8c420000 	lw	v0,0(v0)
80404038:	8c43003c 	lw	v1,60(v0)
8040403c:	3c028006 	lui	v0,0x8006
80404040:	34420030 	ori	v0,v0,0x30
80404044:	10620062 	beq	v1,v0,804041d0 <CheckFireCollision+0x26c>
80404048:	00000000 	nop
8040404c:	8f820008 	lw	v0,8(gp)
80404050:	8c420000 	lw	v0,0(v0)
80404054:	c44200a0 	lwc1	$f2,160(v0)
80404058:	8fc20038 	lw	v0,56(s8)
8040405c:	c44000a0 	lwc1	$f0,160(v0)
80404060:	46001032 	c.eq.s	$f2,$f0
80404064:	00000000 	nop
80404068:	45010059 	bc1t	804041d0 <CheckFireCollision+0x26c>
8040406c:	00000000 	nop
80404070:	8f820008 	lw	v0,8(gp)
80404074:	8c420000 	lw	v0,0(v0)
80404078:	c44400a0 	lwc1	$f4,160(v0)
8040407c:	8f8200d0 	lw	v0,208(gp)
80404080:	c44200a0 	lwc1	$f2,160(v0)
80404084:	c78000c0 	lwc1	$f0,192(gp)
80404088:	46001001 	sub.s	$f0,$f2,$f0
8040408c:	4604003c 	c.lt.s	$f0,$f4
80404090:	00000000 	nop
80404094:	4500004e 	bc1f	804041d0 <CheckFireCollision+0x26c>
80404098:	00000000 	nop
8040409c:	8f820008 	lw	v0,8(gp)
804040a0:	8c420000 	lw	v0,0(v0)
804040a4:	c44400a0 	lwc1	$f4,160(v0)
804040a8:	8f8200d0 	lw	v0,208(gp)
804040ac:	c44200a0 	lwc1	$f2,160(v0)
804040b0:	c78000c0 	lwc1	$f0,192(gp)
804040b4:	46001000 	add.s	$f0,$f2,$f0
804040b8:	4600203c 	c.lt.s	$f4,$f0
804040bc:	00000000 	nop
804040c0:	45000043 	bc1f	804041d0 <CheckFireCollision+0x26c>
804040c4:	00000000 	nop
804040c8:	8f820008 	lw	v0,8(gp)
804040cc:	8c420000 	lw	v0,0(v0)
804040d0:	c44400a4 	lwc1	$f4,164(v0)
804040d4:	8f8200d0 	lw	v0,208(gp)
804040d8:	c44200a4 	lwc1	$f2,164(v0)
804040dc:	c78000c0 	lwc1	$f0,192(gp)
804040e0:	46001001 	sub.s	$f0,$f2,$f0
804040e4:	4604003c 	c.lt.s	$f0,$f4
804040e8:	00000000 	nop
804040ec:	45000038 	bc1f	804041d0 <CheckFireCollision+0x26c>
804040f0:	00000000 	nop
804040f4:	8f820008 	lw	v0,8(gp)
804040f8:	8c420000 	lw	v0,0(v0)
804040fc:	c44400a4 	lwc1	$f4,164(v0)
80404100:	8f8200d0 	lw	v0,208(gp)
80404104:	c44200a4 	lwc1	$f2,164(v0)
80404108:	c78000c0 	lwc1	$f0,192(gp)
8040410c:	46001000 	add.s	$f0,$f2,$f0
80404110:	4600203c 	c.lt.s	$f4,$f0
80404114:	00000000 	nop
80404118:	4500002d 	bc1f	804041d0 <CheckFireCollision+0x26c>
8040411c:	00000000 	nop
80404120:	8f820008 	lw	v0,8(gp)
80404124:	8c420000 	lw	v0,0(v0)
80404128:	c44400a8 	lwc1	$f4,168(v0)
8040412c:	8f8200d0 	lw	v0,208(gp)
80404130:	c44200a8 	lwc1	$f2,168(v0)
80404134:	c78000c0 	lwc1	$f0,192(gp)
80404138:	46001001 	sub.s	$f0,$f2,$f0
8040413c:	4604003c 	c.lt.s	$f0,$f4
80404140:	00000000 	nop
80404144:	45000022 	bc1f	804041d0 <CheckFireCollision+0x26c>
80404148:	00000000 	nop
8040414c:	8f820008 	lw	v0,8(gp)
80404150:	8c420000 	lw	v0,0(v0)
80404154:	c44400a8 	lwc1	$f4,168(v0)
80404158:	8f8200d0 	lw	v0,208(gp)
8040415c:	c44200a8 	lwc1	$f2,168(v0)
80404160:	c78000c0 	lwc1	$f0,192(gp)
80404164:	46001000 	add.s	$f0,$f2,$f0
80404168:	4600203c 	c.lt.s	$f4,$f0
8040416c:	00000000 	nop
80404170:	45000017 	bc1f	804041d0 <CheckFireCollision+0x26c>
80404174:	00000000 	nop
80404178:	8f820008 	lw	v0,8(gp)
8040417c:	8c420000 	lw	v0,0(v0)
80404180:	8c430014 	lw	v1,20(v0)
80404184:	3c02800f 	lui	v0,0x800f
80404188:	34420860 	ori	v0,v0,0x860
8040418c:	10620010 	beq	v1,v0,804041d0 <CheckFireCollision+0x26c>
80404190:	00000000 	nop
80404194:	8f820008 	lw	v0,8(gp)
80404198:	8c420000 	lw	v0,0(v0)
8040419c:	00402021 	move	a0,v0
804041a0:	240500cd 	li	a1,205
804041a4:	3c021300 	lui	v0,0x1300
804041a8:	34463510 	ori	a2,v0,0x3510
804041ac:	0c0a7b73 	jal	8029edcc <SpawnObj>
804041b0:	00000000 	nop
804041b4:	8f820008 	lw	v0,8(gp)
804041b8:	8c420000 	lw	v0,0(v0)
804041bc:	a4400074 	sh	zero,116(v0)
804041c0:	8f8200d0 	lw	v0,208(gp)
804041c4:	a4400074 	sh	zero,116(v0)
804041c8:	08101080 	j	80404200 <CheckFireCollision+0x29c>
804041cc:	00000000 	nop
804041d0:	8f83000c 	lw	v1,12(gp)
804041d4:	8f820008 	lw	v0,8(gp)
804041d8:	8c420000 	lw	v0,0(v0)
804041dc:	8c420008 	lw	v0,8(v0)
804041e0:	ac620000 	sw	v0,0(v1)
804041e4:	8fc20014 	lw	v0,20(s8)
804041e8:	24420001 	addiu	v0,v0,1
804041ec:	afc20014 	sw	v0,20(s8)
804041f0:	8fc20014 	lw	v0,20(s8)
804041f4:	284200f0 	slti	v0,v0,240
804041f8:	1440ff83 	bnez	v0,80404008 <CheckFireCollision+0xa4>
804041fc:	00000000 	nop
80404200:	8f83000c 	lw	v1,12(gp)
80404204:	8fc20020 	lw	v0,32(s8)
80404208:	ac620000 	sw	v0,0(v1)
8040420c:	8f83000c 	lw	v1,12(gp)
80404210:	8f820008 	lw	v0,8(gp)
80404214:	8c420000 	lw	v0,0(v0)
80404218:	8c420008 	lw	v0,8(v0)
8040421c:	ac620000 	sw	v0,0(v1)
80404220:	8fc2001c 	lw	v0,28(s8)
80404224:	24420001 	addiu	v0,v0,1
80404228:	afc2001c 	sw	v0,28(s8)
8040422c:	8fc2001c 	lw	v0,28(s8)
80404230:	284200f0 	slti	v0,v0,240
80404234:	1440ff61 	bnez	v0,80403fbc <CheckFireCollision+0x58>
80404238:	00000000 	nop
8040423c:	8f83000c 	lw	v1,12(gp)
80404240:	8fc20024 	lw	v0,36(s8)
80404244:	ac620000 	sw	v0,0(v1)
80404248:	03c0e821 	move	sp,s8
8040424c:	8fbf0034 	lw	ra,52(sp)
80404250:	8fbe0030 	lw	s8,48(sp)
80404254:	27bd0038 	addiu	sp,sp,56
80404258:	03e00008 	jr	ra
8040425c:	00000000 	nop

80404260 <MenuPage06>:
80404260:	27bdffd0 	addiu	sp,sp,-48
80404264:	afbf002c 	sw	ra,44(sp)
80404268:	afbe0028 	sw	s8,40(sp)
8040426c:	03a0f021 	move	s8,sp
80404270:	8f820010 	lw	v0,16(gp)
80404274:	8c420000 	lw	v0,0(v0)
80404278:	14400014 	bnez	v0,804042cc <MenuPage06+0x6c>
8040427c:	00000000 	nop
80404280:	8f83001c 	lw	v1,28(gp)
80404284:	24020002 	li	v0,2
80404288:	ac620000 	sw	v0,0(v1)
8040428c:	8f83002c 	lw	v1,44(gp)
80404290:	240200c0 	li	v0,192
80404294:	ac620000 	sw	v0,0(v1)
80404298:	8f820034 	lw	v0,52(gp)
8040429c:	ac400000 	sw	zero,0(v0)
804042a0:	8f820038 	lw	v0,56(gp)
804042a4:	ac400000 	sw	zero,0(v0)
804042a8:	8f830030 	lw	v1,48(gp)
804042ac:	24020106 	li	v0,262
804042b0:	ac620000 	sw	v0,0(v1)
804042b4:	8f83003c 	lw	v1,60(gp)
804042b8:	24020064 	li	v0,100
804042bc:	ac620000 	sw	v0,0(v1)
804042c0:	8f830010 	lw	v1,16(gp)
804042c4:	24020001 	li	v0,1
804042c8:	ac620000 	sw	v0,0(v1)
804042cc:	24040002 	li	a0,2
804042d0:	24050007 	li	a1,7
804042d4:	00003021 	move	a2,zero
804042d8:	0c101c3b 	jal	804070ec <ProcessSelection>
804042dc:	00000000 	nop
804042e0:	8f82001c 	lw	v0,28(gp)
804042e4:	8c420000 	lw	v0,0(v0)
804042e8:	afc20020 	sw	v0,32(s8)
804042ec:	8fc30020 	lw	v1,32(s8)
804042f0:	2c620008 	sltiu	v0,v1,8
804042f4:	10400171 	beqz	v0,804048bc <MenuPage06+0x65c>
804042f8:	00000000 	nop
804042fc:	8fc20020 	lw	v0,32(s8)
80404300:	00021880 	sll	v1,v0,0x2
80404304:	3c028040 	lui	v0,0x8040
80404308:	244275d8 	addiu	v0,v0,30168
8040430c:	00621021 	addu	v0,v1,v0
80404310:	8c420000 	lw	v0,0(v0)
80404314:	00400008 	jr	v0
80404318:	00000000 	nop
8040431c:	8f820004 	lw	v0,4(gp)
80404320:	8c42009c 	lw	v0,156(v0)
80404324:	94420010 	lhu	v0,16(v0)
80404328:	30420200 	andi	v0,v0,0x200
8040432c:	14400007 	bnez	v0,8040434c <MenuPage06+0xec>
80404330:	00000000 	nop
80404334:	8f820004 	lw	v0,4(gp)
80404338:	8c42009c 	lw	v0,156(v0)
8040433c:	94420010 	lhu	v0,16(v0)
80404340:	30420100 	andi	v0,v0,0x100
80404344:	1040015d 	beqz	v0,804048bc <MenuPage06+0x65c>
80404348:	00000000 	nop
8040434c:	8f820018 	lw	v0,24(gp)
80404350:	8c420000 	lw	v0,0(v0)
80404354:	28420006 	slti	v0,v0,6
80404358:	14400158 	bnez	v0,804048bc <MenuPage06+0x65c>
8040435c:	00000000 	nop
80404360:	8f820008 	lw	v0,8(gp)
80404364:	8c420000 	lw	v0,0(v0)
80404368:	00403021 	move	a2,v0
8040436c:	8f82002c 	lw	v0,44(gp)
80404370:	8c420000 	lw	v0,0(v0)
80404374:	3042ffff 	andi	v0,v0,0xffff
80404378:	00402821 	move	a1,v0
8040437c:	8f820030 	lw	v0,48(gp)
80404380:	8c420000 	lw	v0,0(v0)
80404384:	3c038040 	lui	v1,0x8040
80404388:	00022080 	sll	a0,v0,0x2
8040438c:	246279b0 	addiu	v0,v1,31152
80404390:	00821021 	addu	v0,a0,v0
80404394:	8c420000 	lw	v0,0(v0)
80404398:	00c02021 	move	a0,a2
8040439c:	00403021 	move	a2,v0
804043a0:	0c0a7b73 	jal	8029edcc <SpawnObj>
804043a4:	00000000 	nop
804043a8:	afc20018 	sw	v0,24(s8)
804043ac:	8fc20018 	lw	v0,24(s8)
804043b0:	c44200a0 	lwc1	$f2,160(v0)
804043b4:	8f82003c 	lw	v0,60(gp)
804043b8:	c4400000 	lwc1	$f0,0(v0)
804043bc:	46800020 	cvt.s.w	$f0,$f0
804043c0:	46001000 	add.s	$f0,$f2,$f0
804043c4:	8fc20018 	lw	v0,24(s8)
804043c8:	e44000a0 	swc1	$f0,160(v0)
804043cc:	8fc20018 	lw	v0,24(s8)
804043d0:	c44200a8 	lwc1	$f2,168(v0)
804043d4:	8f82003c 	lw	v0,60(gp)
804043d8:	c4400000 	lwc1	$f0,0(v0)
804043dc:	46800020 	cvt.s.w	$f0,$f0
804043e0:	46001000 	add.s	$f0,$f2,$f0
804043e4:	8fc20018 	lw	v0,24(s8)
804043e8:	e44000a8 	swc1	$f0,168(v0)
804043ec:	8fc20018 	lw	v0,24(s8)
804043f0:	c44200a4 	lwc1	$f2,164(v0)
804043f4:	8f82003c 	lw	v0,60(gp)
804043f8:	8c430000 	lw	v1,0(v0)
804043fc:	000317c2 	srl	v0,v1,0x1f
80404400:	00431021 	addu	v0,v0,v1
80404404:	00021043 	sra	v0,v0,0x1
80404408:	44820000 	mtc1	v0,$f0
8040440c:	00000000 	nop
80404410:	46800020 	cvt.s.w	$f0,$f0
80404414:	46001000 	add.s	$f0,$f2,$f0
80404418:	8fc20018 	lw	v0,24(s8)
8040441c:	e44000a4 	swc1	$f0,164(v0)
80404420:	8f820034 	lw	v0,52(gp)
80404424:	8c420000 	lw	v0,0(v0)
80404428:	00401821 	move	v1,v0
8040442c:	8fc20018 	lw	v0,24(s8)
80404430:	ac430144 	sw	v1,324(v0)
80404434:	8f820038 	lw	v0,56(gp)
80404438:	8c420000 	lw	v0,0(v0)
8040443c:	00401821 	move	v1,v0
80404440:	8fc20018 	lw	v0,24(s8)
80404444:	ac430188 	sw	v1,392(v0)
80404448:	8f820018 	lw	v0,24(gp)
8040444c:	ac400000 	sw	zero,0(v0)
80404450:	0810122f 	j	804048bc <MenuPage06+0x65c>
80404454:	00000000 	nop
80404458:	8f820004 	lw	v0,4(gp)
8040445c:	8c42009c 	lw	v0,156(v0)
80404460:	94420010 	lhu	v0,16(v0)
80404464:	30420200 	andi	v0,v0,0x200
80404468:	1040002e 	beqz	v0,80404524 <MenuPage06+0x2c4>
8040446c:	00000000 	nop
80404470:	8f820018 	lw	v0,24(gp)
80404474:	8c420000 	lw	v0,0(v0)
80404478:	28420004 	slti	v0,v0,4
8040447c:	14400029 	bnez	v0,80404524 <MenuPage06+0x2c4>
80404480:	00000000 	nop
80404484:	8f83002c 	lw	v1,44(gp)
80404488:	8f82002c 	lw	v0,44(gp)
8040448c:	8c420000 	lw	v0,0(v0)
80404490:	2442ffff 	addiu	v0,v0,-1
80404494:	ac620000 	sw	v0,0(v1)
80404498:	8f82002c 	lw	v0,44(gp)
8040449c:	8c420000 	lw	v0,0(v0)
804044a0:	1c400004 	bgtz	v0,804044b4 <MenuPage06+0x254>
804044a4:	00000000 	nop
804044a8:	8f83002c 	lw	v1,44(gp)
804044ac:	24020001 	li	v0,1
804044b0:	ac620000 	sw	v0,0(v1)
804044b4:	8f82002c 	lw	v0,44(gp)
804044b8:	8c420000 	lw	v0,0(v0)
804044bc:	00401821 	move	v1,v0
804044c0:	3c02200c 	lui	v0,0x200c
804044c4:	3442ed34 	ori	v0,v0,0xed34
804044c8:	00621021 	addu	v0,v1,v0
804044cc:	00021080 	sll	v0,v0,0x2
804044d0:	afc20014 	sw	v0,20(s8)
804044d4:	8fc20014 	lw	v0,20(s8)
804044d8:	8c420000 	lw	v0,0(v0)
804044dc:	1440000f 	bnez	v0,8040451c <MenuPage06+0x2bc>
804044e0:	00000000 	nop
804044e4:	08101143 	j	8040450c <MenuPage06+0x2ac>
804044e8:	00000000 	nop
804044ec:	8fc20014 	lw	v0,20(s8)
804044f0:	24420004 	addiu	v0,v0,4
804044f4:	afc20014 	sw	v0,20(s8)
804044f8:	8f83002c 	lw	v1,44(gp)
804044fc:	8f82002c 	lw	v0,44(gp)
80404500:	8c420000 	lw	v0,0(v0)
80404504:	2442ffff 	addiu	v0,v0,-1
80404508:	ac620000 	sw	v0,0(v1)
8040450c:	8fc20014 	lw	v0,20(s8)
80404510:	8c420000 	lw	v0,0(v0)
80404514:	1040fff5 	beqz	v0,804044ec <MenuPage06+0x28c>
80404518:	00000000 	nop
8040451c:	8f820018 	lw	v0,24(gp)
80404520:	ac400000 	sw	zero,0(v0)
80404524:	8f820004 	lw	v0,4(gp)
80404528:	8c42009c 	lw	v0,156(v0)
8040452c:	94420010 	lhu	v0,16(v0)
80404530:	30420100 	andi	v0,v0,0x100
80404534:	104000e1 	beqz	v0,804048bc <MenuPage06+0x65c>
80404538:	00000000 	nop
8040453c:	8f820018 	lw	v0,24(gp)
80404540:	8c420000 	lw	v0,0(v0)
80404544:	28420004 	slti	v0,v0,4
80404548:	144000dc 	bnez	v0,804048bc <MenuPage06+0x65c>
8040454c:	00000000 	nop
80404550:	8f83002c 	lw	v1,44(gp)
80404554:	8f82002c 	lw	v0,44(gp)
80404558:	8c420000 	lw	v0,0(v0)
8040455c:	24420001 	addiu	v0,v0,1
80404560:	ac620000 	sw	v0,0(v1)
80404564:	8f82002c 	lw	v0,44(gp)
80404568:	8c420000 	lw	v0,0(v0)
8040456c:	28420100 	slti	v0,v0,256
80404570:	14400004 	bnez	v0,80404584 <MenuPage06+0x324>
80404574:	00000000 	nop
80404578:	8f83002c 	lw	v1,44(gp)
8040457c:	240200ff 	li	v0,255
80404580:	ac620000 	sw	v0,0(v1)
80404584:	8f82002c 	lw	v0,44(gp)
80404588:	8c420000 	lw	v0,0(v0)
8040458c:	00401821 	move	v1,v0
80404590:	3c02200c 	lui	v0,0x200c
80404594:	3442ed34 	ori	v0,v0,0xed34
80404598:	00621021 	addu	v0,v1,v0
8040459c:	00021080 	sll	v0,v0,0x2
804045a0:	afc20010 	sw	v0,16(s8)
804045a4:	8fc20010 	lw	v0,16(s8)
804045a8:	8c420000 	lw	v0,0(v0)
804045ac:	1440000f 	bnez	v0,804045ec <MenuPage06+0x38c>
804045b0:	00000000 	nop
804045b4:	08101177 	j	804045dc <MenuPage06+0x37c>
804045b8:	00000000 	nop
804045bc:	8f83002c 	lw	v1,44(gp)
804045c0:	8f82002c 	lw	v0,44(gp)
804045c4:	8c420000 	lw	v0,0(v0)
804045c8:	24420001 	addiu	v0,v0,1
804045cc:	ac620000 	sw	v0,0(v1)
804045d0:	8fc20010 	lw	v0,16(s8)
804045d4:	24420004 	addiu	v0,v0,4
804045d8:	afc20010 	sw	v0,16(s8)
804045dc:	8fc20010 	lw	v0,16(s8)
804045e0:	8c420000 	lw	v0,0(v0)
804045e4:	1040fff5 	beqz	v0,804045bc <MenuPage06+0x35c>
804045e8:	00000000 	nop
804045ec:	8f820018 	lw	v0,24(gp)
804045f0:	ac400000 	sw	zero,0(v0)
804045f4:	0810122f 	j	804048bc <MenuPage06+0x65c>
804045f8:	00000000 	nop
804045fc:	8f820004 	lw	v0,4(gp)
80404600:	8c42009c 	lw	v0,156(v0)
80404604:	94420010 	lhu	v0,16(v0)
80404608:	30420200 	andi	v0,v0,0x200
8040460c:	10400013 	beqz	v0,8040465c <MenuPage06+0x3fc>
80404610:	00000000 	nop
80404614:	8f820018 	lw	v0,24(gp)
80404618:	8c420000 	lw	v0,0(v0)
8040461c:	28420003 	slti	v0,v0,3
80404620:	1440000e 	bnez	v0,8040465c <MenuPage06+0x3fc>
80404624:	00000000 	nop
80404628:	8f830030 	lw	v1,48(gp)
8040462c:	8f820030 	lw	v0,48(gp)
80404630:	8c420000 	lw	v0,0(v0)
80404634:	2442ffff 	addiu	v0,v0,-1
80404638:	ac620000 	sw	v0,0(v1)
8040463c:	8f820030 	lw	v0,48(gp)
80404640:	8c420000 	lw	v0,0(v0)
80404644:	04410003 	bgez	v0,80404654 <MenuPage06+0x3f4>
80404648:	00000000 	nop
8040464c:	8f820030 	lw	v0,48(gp)
80404650:	ac400000 	sw	zero,0(v0)
80404654:	8f820018 	lw	v0,24(gp)
80404658:	ac400000 	sw	zero,0(v0)
8040465c:	8f820004 	lw	v0,4(gp)
80404660:	8c42009c 	lw	v0,156(v0)
80404664:	94420010 	lhu	v0,16(v0)
80404668:	30420100 	andi	v0,v0,0x100
8040466c:	10400093 	beqz	v0,804048bc <MenuPage06+0x65c>
80404670:	00000000 	nop
80404674:	8f820018 	lw	v0,24(gp)
80404678:	8c420000 	lw	v0,0(v0)
8040467c:	28420003 	slti	v0,v0,3
80404680:	1440008e 	bnez	v0,804048bc <MenuPage06+0x65c>
80404684:	00000000 	nop
80404688:	8f830030 	lw	v1,48(gp)
8040468c:	8f820030 	lw	v0,48(gp)
80404690:	8c420000 	lw	v0,0(v0)
80404694:	24420001 	addiu	v0,v0,1
80404698:	ac620000 	sw	v0,0(v1)
8040469c:	8f820030 	lw	v0,48(gp)
804046a0:	8c420000 	lw	v0,0(v0)
804046a4:	28420208 	slti	v0,v0,520
804046a8:	14400004 	bnez	v0,804046bc <MenuPage06+0x45c>
804046ac:	00000000 	nop
804046b0:	8f830030 	lw	v1,48(gp)
804046b4:	24020207 	li	v0,519
804046b8:	ac620000 	sw	v0,0(v1)
804046bc:	8f820018 	lw	v0,24(gp)
804046c0:	ac400000 	sw	zero,0(v0)
804046c4:	0810122f 	j	804048bc <MenuPage06+0x65c>
804046c8:	00000000 	nop
804046cc:	8f820004 	lw	v0,4(gp)
804046d0:	8c42009c 	lw	v0,156(v0)
804046d4:	94420010 	lhu	v0,16(v0)
804046d8:	30420200 	andi	v0,v0,0x200
804046dc:	10400013 	beqz	v0,8040472c <MenuPage06+0x4cc>
804046e0:	00000000 	nop
804046e4:	8f820018 	lw	v0,24(gp)
804046e8:	8c420000 	lw	v0,0(v0)
804046ec:	28420004 	slti	v0,v0,4
804046f0:	1440000e 	bnez	v0,8040472c <MenuPage06+0x4cc>
804046f4:	00000000 	nop
804046f8:	8f830038 	lw	v1,56(gp)
804046fc:	8f820038 	lw	v0,56(gp)
80404700:	8c420000 	lw	v0,0(v0)
80404704:	2442ffff 	addiu	v0,v0,-1
80404708:	ac620000 	sw	v0,0(v1)
8040470c:	8f820038 	lw	v0,56(gp)
80404710:	8c420000 	lw	v0,0(v0)
80404714:	04410003 	bgez	v0,80404724 <MenuPage06+0x4c4>
80404718:	00000000 	nop
8040471c:	8f820038 	lw	v0,56(gp)
80404720:	ac400000 	sw	zero,0(v0)
80404724:	8f820018 	lw	v0,24(gp)
80404728:	ac400000 	sw	zero,0(v0)
8040472c:	8f820004 	lw	v0,4(gp)
80404730:	8c42009c 	lw	v0,156(v0)
80404734:	94420010 	lhu	v0,16(v0)
80404738:	30420100 	andi	v0,v0,0x100
8040473c:	1040005f 	beqz	v0,804048bc <MenuPage06+0x65c>
80404740:	00000000 	nop
80404744:	8f820018 	lw	v0,24(gp)
80404748:	8c420000 	lw	v0,0(v0)
8040474c:	28420004 	slti	v0,v0,4
80404750:	1440005a 	bnez	v0,804048bc <MenuPage06+0x65c>
80404754:	00000000 	nop
80404758:	8f830038 	lw	v1,56(gp)
8040475c:	8f820038 	lw	v0,56(gp)
80404760:	8c420000 	lw	v0,0(v0)
80404764:	24420001 	addiu	v0,v0,1
80404768:	ac620000 	sw	v0,0(v1)
8040476c:	8f820018 	lw	v0,24(gp)
80404770:	ac400000 	sw	zero,0(v0)
80404774:	0810122f 	j	804048bc <MenuPage06+0x65c>
80404778:	00000000 	nop
8040477c:	8f820004 	lw	v0,4(gp)
80404780:	8c42009c 	lw	v0,156(v0)
80404784:	94420010 	lhu	v0,16(v0)
80404788:	30420200 	andi	v0,v0,0x200
8040478c:	10400013 	beqz	v0,804047dc <MenuPage06+0x57c>
80404790:	00000000 	nop
80404794:	8f820018 	lw	v0,24(gp)
80404798:	8c420000 	lw	v0,0(v0)
8040479c:	28420004 	slti	v0,v0,4
804047a0:	1440000e 	bnez	v0,804047dc <MenuPage06+0x57c>
804047a4:	00000000 	nop
804047a8:	8f830034 	lw	v1,52(gp)
804047ac:	8f820034 	lw	v0,52(gp)
804047b0:	8c420000 	lw	v0,0(v0)
804047b4:	2442ffff 	addiu	v0,v0,-1
804047b8:	ac620000 	sw	v0,0(v1)
804047bc:	8f820034 	lw	v0,52(gp)
804047c0:	8c420000 	lw	v0,0(v0)
804047c4:	04410003 	bgez	v0,804047d4 <MenuPage06+0x574>
804047c8:	00000000 	nop
804047cc:	8f820034 	lw	v0,52(gp)
804047d0:	ac400000 	sw	zero,0(v0)
804047d4:	8f820018 	lw	v0,24(gp)
804047d8:	ac400000 	sw	zero,0(v0)
804047dc:	8f820004 	lw	v0,4(gp)
804047e0:	8c42009c 	lw	v0,156(v0)
804047e4:	94420010 	lhu	v0,16(v0)
804047e8:	30420100 	andi	v0,v0,0x100
804047ec:	10400033 	beqz	v0,804048bc <MenuPage06+0x65c>
804047f0:	00000000 	nop
804047f4:	8f820018 	lw	v0,24(gp)
804047f8:	8c420000 	lw	v0,0(v0)
804047fc:	28420004 	slti	v0,v0,4
80404800:	1440002e 	bnez	v0,804048bc <MenuPage06+0x65c>
80404804:	00000000 	nop
80404808:	8f830034 	lw	v1,52(gp)
8040480c:	8f820034 	lw	v0,52(gp)
80404810:	8c420000 	lw	v0,0(v0)
80404814:	24420001 	addiu	v0,v0,1
80404818:	ac620000 	sw	v0,0(v1)
8040481c:	8f820018 	lw	v0,24(gp)
80404820:	ac400000 	sw	zero,0(v0)
80404824:	0810122f 	j	804048bc <MenuPage06+0x65c>
80404828:	00000000 	nop
8040482c:	8f820004 	lw	v0,4(gp)
80404830:	8c42009c 	lw	v0,156(v0)
80404834:	94420010 	lhu	v0,16(v0)
80404838:	30420200 	andi	v0,v0,0x200
8040483c:	1040000d 	beqz	v0,80404874 <MenuPage06+0x614>
80404840:	00000000 	nop
80404844:	8f820018 	lw	v0,24(gp)
80404848:	8c420000 	lw	v0,0(v0)
8040484c:	28420004 	slti	v0,v0,4
80404850:	14400008 	bnez	v0,80404874 <MenuPage06+0x614>
80404854:	00000000 	nop
80404858:	8f83003c 	lw	v1,60(gp)
8040485c:	8f82003c 	lw	v0,60(gp)
80404860:	8c420000 	lw	v0,0(v0)
80404864:	2442ffe2 	addiu	v0,v0,-30
80404868:	ac620000 	sw	v0,0(v1)
8040486c:	8f820018 	lw	v0,24(gp)
80404870:	ac400000 	sw	zero,0(v0)
80404874:	8f820004 	lw	v0,4(gp)
80404878:	8c42009c 	lw	v0,156(v0)
8040487c:	94420010 	lhu	v0,16(v0)
80404880:	30420100 	andi	v0,v0,0x100
80404884:	1040000d 	beqz	v0,804048bc <MenuPage06+0x65c>
80404888:	00000000 	nop
8040488c:	8f820018 	lw	v0,24(gp)
80404890:	8c420000 	lw	v0,0(v0)
80404894:	28420004 	slti	v0,v0,4
80404898:	14400008 	bnez	v0,804048bc <MenuPage06+0x65c>
8040489c:	00000000 	nop
804048a0:	8f83003c 	lw	v1,60(gp)
804048a4:	8f82003c 	lw	v0,60(gp)
804048a8:	8c420000 	lw	v0,0(v0)
804048ac:	2442001e 	addiu	v0,v0,30
804048b0:	ac620000 	sw	v0,0(v1)
804048b4:	8f820018 	lw	v0,24(gp)
804048b8:	ac400000 	sw	zero,0(v0)
804048bc:	3c028033 	lui	v0,0x8033
804048c0:	3442d270 	ori	v0,v0,0xd270
804048c4:	afc2001c 	sw	v0,28(s8)
804048c8:	8fc2001c 	lw	v0,28(s8)
804048cc:	8c420000 	lw	v0,0(v0)
804048d0:	28420079 	slti	v0,v0,121
804048d4:	14400008 	bnez	v0,804048f8 <MenuPage06+0x698>
804048d8:	00000000 	nop
804048dc:	24040019 	li	a0,25
804048e0:	240500a0 	li	a1,160
804048e4:	3c028040 	lui	v0,0x8040
804048e8:	24467590 	addiu	a2,v0,30096
804048ec:	00003821 	move	a3,zero
804048f0:	0c0b58b6 	jal	802d62d8 <PrintInt>
804048f4:	00000000 	nop
804048f8:	8f82001c 	lw	v0,28(gp)
804048fc:	8c420000 	lw	v0,0(v0)
80404900:	00021880 	sll	v1,v0,0x2
80404904:	00031080 	sll	v0,v1,0x2
80404908:	00621021 	addu	v0,v1,v0
8040490c:	3042ffff 	andi	v0,v0,0xffff
80404910:	2404000a 	li	a0,10
80404914:	00402821 	move	a1,v0
80404918:	3c028040 	lui	v0,0x8040
8040491c:	244672d0 	addiu	a2,v0,29392
80404920:	00003821 	move	a3,zero
80404924:	0c0b58b6 	jal	802d62d8 <PrintInt>
80404928:	00000000 	nop
8040492c:	8f82003c 	lw	v0,60(gp)
80404930:	8c420000 	lw	v0,0(v0)
80404934:	00401821 	move	v1,v0
80404938:	24040019 	li	a0,25
8040493c:	2405008c 	li	a1,140
80404940:	3c028040 	lui	v0,0x8040
80404944:	244674ec 	addiu	a2,v0,29932
80404948:	00603821 	move	a3,v1
8040494c:	0c0b58b6 	jal	802d62d8 <PrintInt>
80404950:	00000000 	nop
80404954:	8f820034 	lw	v0,52(gp)
80404958:	8c420000 	lw	v0,0(v0)
8040495c:	00401821 	move	v1,v0
80404960:	24040019 	li	a0,25
80404964:	24050078 	li	a1,120
80404968:	3c028040 	lui	v0,0x8040
8040496c:	244675a8 	addiu	a2,v0,30120
80404970:	00603821 	move	a3,v1
80404974:	0c0b58b6 	jal	802d62d8 <PrintInt>
80404978:	00000000 	nop
8040497c:	8f820038 	lw	v0,56(gp)
80404980:	8c420000 	lw	v0,0(v0)
80404984:	00401821 	move	v1,v0
80404988:	24040019 	li	a0,25
8040498c:	24050064 	li	a1,100
80404990:	3c028040 	lui	v0,0x8040
80404994:	244675b4 	addiu	a2,v0,30132
80404998:	00603821 	move	a3,v1
8040499c:	0c0b58b6 	jal	802d62d8 <PrintInt>
804049a0:	00000000 	nop
804049a4:	8f820030 	lw	v0,48(gp)
804049a8:	8c420000 	lw	v0,0(v0)
804049ac:	3c038040 	lui	v1,0x8040
804049b0:	00022080 	sll	a0,v0,0x2
804049b4:	246279b0 	addiu	v0,v1,31152
804049b8:	00821021 	addu	v0,a0,v0
804049bc:	8c420000 	lw	v0,0(v0)
804049c0:	3043ffff 	andi	v1,v0,0xffff
804049c4:	24040019 	li	a0,25
804049c8:	24050050 	li	a1,80
804049cc:	3c028040 	lui	v0,0x8040
804049d0:	244675c0 	addiu	a2,v0,30144
804049d4:	00603821 	move	a3,v1
804049d8:	0c0b58b6 	jal	802d62d8 <PrintInt>
804049dc:	00000000 	nop
804049e0:	8f82002c 	lw	v0,44(gp)
804049e4:	8c420000 	lw	v0,0(v0)
804049e8:	00401821 	move	v1,v0
804049ec:	24040019 	li	a0,25
804049f0:	2405003c 	li	a1,60
804049f4:	3c028040 	lui	v0,0x8040
804049f8:	244675c8 	addiu	a2,v0,30152
804049fc:	00603821 	move	a3,v1
80404a00:	0c0b58b6 	jal	802d62d8 <PrintInt>
80404a04:	00000000 	nop
80404a08:	24040019 	li	a0,25
80404a0c:	24050028 	li	a1,40
80404a10:	3c028040 	lui	v0,0x8040
80404a14:	244675d0 	addiu	a2,v0,30160
80404a18:	00003821 	move	a3,zero
80404a1c:	0c0b58b6 	jal	802d62d8 <PrintInt>
80404a20:	00000000 	nop
80404a24:	03c0e821 	move	sp,s8
80404a28:	8fbf002c 	lw	ra,44(sp)
80404a2c:	8fbe0028 	lw	s8,40(sp)
80404a30:	27bd0030 	addiu	sp,sp,48
80404a34:	03e00008 	jr	ra
80404a38:	00000000 	nop

80404a3c <MenuPage07>:
80404a3c:	27bdffd8 	addiu	sp,sp,-40
80404a40:	afbf0024 	sw	ra,36(sp)
80404a44:	afbe0020 	sw	s8,32(sp)
80404a48:	03a0f021 	move	s8,sp
80404a4c:	8f820004 	lw	v0,4(gp)
80404a50:	8c420094 	lw	v0,148(v0)
80404a54:	afc20014 	sw	v0,20(s8)
80404a58:	8f820010 	lw	v0,16(gp)
80404a5c:	8c420000 	lw	v0,0(v0)
80404a60:	14400007 	bnez	v0,80404a80 <MenuPage07+0x44>
80404a64:	00000000 	nop
80404a68:	8f83001c 	lw	v1,28(gp)
80404a6c:	24020002 	li	v0,2
80404a70:	ac620000 	sw	v0,0(v1)
80404a74:	8f830010 	lw	v1,16(gp)
80404a78:	24020001 	li	v0,1
80404a7c:	ac620000 	sw	v0,0(v1)
80404a80:	24040001 	li	a0,1
80404a84:	24050007 	li	a1,7
80404a88:	00003021 	move	a2,zero
80404a8c:	0c101c3b 	jal	804070ec <ProcessSelection>
80404a90:	00000000 	nop
80404a94:	8f82001c 	lw	v0,28(gp)
80404a98:	8c420000 	lw	v0,0(v0)
80404a9c:	00021880 	sll	v1,v0,0x2
80404aa0:	00031080 	sll	v0,v1,0x2
80404aa4:	00621021 	addu	v0,v1,v0
80404aa8:	3042ffff 	andi	v0,v0,0xffff
80404aac:	2404000a 	li	a0,10
80404ab0:	00402821 	move	a1,v0
80404ab4:	3c028040 	lui	v0,0x8040
80404ab8:	244672d0 	addiu	a2,v0,29392
80404abc:	00003821 	move	a3,zero
80404ac0:	0c0b58b6 	jal	802d62d8 <PrintInt>
80404ac4:	00000000 	nop
80404ac8:	3c028033 	lui	v0,0x8033
80404acc:	3442c698 	ori	v0,v0,0xc698
80404ad0:	afc20010 	sw	v0,16(s8)
80404ad4:	8fc20010 	lw	v0,16(s8)
80404ad8:	c4400000 	lwc1	$f0,0(v0)
80404adc:	4600000d 	trunc.w.s	$f0,$f0
80404ae0:	44030000 	mfc1	v1,$f0
80404ae4:	24040019 	li	a0,25
80404ae8:	240500c8 	li	a1,200
80404aec:	3c028040 	lui	v0,0x8040
80404af0:	244675f8 	addiu	a2,v0,30200
80404af4:	00603821 	move	a3,v1
80404af8:	0c0b58b6 	jal	802d62d8 <PrintInt>
80404afc:	00000000 	nop
80404b00:	8fc20010 	lw	v0,16(s8)
80404b04:	24420004 	addiu	v0,v0,4
80404b08:	afc20010 	sw	v0,16(s8)
80404b0c:	8fc20010 	lw	v0,16(s8)
80404b10:	c4400000 	lwc1	$f0,0(v0)
80404b14:	4600000d 	trunc.w.s	$f0,$f0
80404b18:	44030000 	mfc1	v1,$f0
80404b1c:	24040019 	li	a0,25
80404b20:	240500b4 	li	a1,180
80404b24:	3c028040 	lui	v0,0x8040
80404b28:	24467600 	addiu	a2,v0,30208
80404b2c:	00603821 	move	a3,v1
80404b30:	0c0b58b6 	jal	802d62d8 <PrintInt>
80404b34:	00000000 	nop
80404b38:	8fc20010 	lw	v0,16(s8)
80404b3c:	24420004 	addiu	v0,v0,4
80404b40:	afc20010 	sw	v0,16(s8)
80404b44:	8fc20010 	lw	v0,16(s8)
80404b48:	c4400000 	lwc1	$f0,0(v0)
80404b4c:	4600000d 	trunc.w.s	$f0,$f0
80404b50:	44030000 	mfc1	v1,$f0
80404b54:	24040019 	li	a0,25
80404b58:	240500a0 	li	a1,160
80404b5c:	3c028040 	lui	v0,0x8040
80404b60:	24467608 	addiu	a2,v0,30216
80404b64:	00603821 	move	a3,v1
80404b68:	0c0b58b6 	jal	802d62d8 <PrintInt>
80404b6c:	00000000 	nop
80404b70:	8fc20010 	lw	v0,16(s8)
80404b74:	24420004 	addiu	v0,v0,4
80404b78:	afc20010 	sw	v0,16(s8)
80404b7c:	8fc20010 	lw	v0,16(s8)
80404b80:	c4400000 	lwc1	$f0,0(v0)
80404b84:	4600000d 	trunc.w.s	$f0,$f0
80404b88:	44030000 	mfc1	v1,$f0
80404b8c:	24040096 	li	a0,150
80404b90:	240500c8 	li	a1,200
80404b94:	3c028040 	lui	v0,0x8040
80404b98:	24467610 	addiu	a2,v0,30224
80404b9c:	00603821 	move	a3,v1
80404ba0:	0c0b58b6 	jal	802d62d8 <PrintInt>
80404ba4:	00000000 	nop
80404ba8:	8fc20010 	lw	v0,16(s8)
80404bac:	24420004 	addiu	v0,v0,4
80404bb0:	afc20010 	sw	v0,16(s8)
80404bb4:	8fc20010 	lw	v0,16(s8)
80404bb8:	c4400000 	lwc1	$f0,0(v0)
80404bbc:	4600000d 	trunc.w.s	$f0,$f0
80404bc0:	44030000 	mfc1	v1,$f0
80404bc4:	24040096 	li	a0,150
80404bc8:	240500b4 	li	a1,180
80404bcc:	3c028040 	lui	v0,0x8040
80404bd0:	24467618 	addiu	a2,v0,30232
80404bd4:	00603821 	move	a3,v1
80404bd8:	0c0b58b6 	jal	802d62d8 <PrintInt>
80404bdc:	00000000 	nop
80404be0:	8fc20010 	lw	v0,16(s8)
80404be4:	24420004 	addiu	v0,v0,4
80404be8:	afc20010 	sw	v0,16(s8)
80404bec:	8fc20010 	lw	v0,16(s8)
80404bf0:	c4400000 	lwc1	$f0,0(v0)
80404bf4:	4600000d 	trunc.w.s	$f0,$f0
80404bf8:	44030000 	mfc1	v1,$f0
80404bfc:	24040096 	li	a0,150
80404c00:	240500a0 	li	a1,160
80404c04:	3c028040 	lui	v0,0x8040
80404c08:	24467620 	addiu	a2,v0,30240
80404c0c:	00603821 	move	a3,v1
80404c10:	0c0b58b6 	jal	802d62d8 <PrintInt>
80404c14:	00000000 	nop
80404c18:	8f82005c 	lw	v0,92(gp)
80404c1c:	c4400000 	lwc1	$f0,0(v0)
80404c20:	4600000d 	trunc.w.s	$f0,$f0
80404c24:	44030000 	mfc1	v1,$f0
80404c28:	24040019 	li	a0,25
80404c2c:	2405008c 	li	a1,140
80404c30:	3c028040 	lui	v0,0x8040
80404c34:	244674ec 	addiu	a2,v0,29932
80404c38:	00603821 	move	a3,v1
80404c3c:	0c0b58b6 	jal	802d62d8 <PrintInt>
80404c40:	00000000 	nop
80404c44:	8f820054 	lw	v0,84(gp)
80404c48:	8c420000 	lw	v0,0(v0)
80404c4c:	1440000a 	bnez	v0,80404c78 <MenuPage07+0x23c>
80404c50:	00000000 	nop
80404c54:	24040019 	li	a0,25
80404c58:	24050078 	li	a1,120
80404c5c:	3c028040 	lui	v0,0x8040
80404c60:	24467628 	addiu	a2,v0,30248
80404c64:	00003821 	move	a3,zero
80404c68:	0c0b58b6 	jal	802d62d8 <PrintInt>
80404c6c:	00000000 	nop
80404c70:	08101325 	j	80404c94 <MenuPage07+0x258>
80404c74:	00000000 	nop
80404c78:	24040019 	li	a0,25
80404c7c:	24050078 	li	a1,120
80404c80:	3c028040 	lui	v0,0x8040
80404c84:	24467630 	addiu	a2,v0,30256
80404c88:	00003821 	move	a3,zero
80404c8c:	0c0b58b6 	jal	802d62d8 <PrintInt>
80404c90:	00000000 	nop
80404c94:	8f820060 	lw	v0,96(gp)
80404c98:	8c420000 	lw	v0,0(v0)
80404c9c:	00401821 	move	v1,v0
80404ca0:	24040019 	li	a0,25
80404ca4:	24050064 	li	a1,100
80404ca8:	3c028040 	lui	v0,0x8040
80404cac:	2446763c 	addiu	a2,v0,30268
80404cb0:	00603821 	move	a3,v1
80404cb4:	0c0b58b6 	jal	802d62d8 <PrintInt>
80404cb8:	00000000 	nop
80404cbc:	8fc20014 	lw	v0,20(s8)
80404cc0:	94420012 	lhu	v0,18(v0)
80404cc4:	00021882 	srl	v1,v0,0x2
80404cc8:	3c0216c1 	lui	v0,0x16c1
80404ccc:	34426c17 	ori	v0,v0,0x6c17
80404cd0:	00620019 	multu	v1,v0
80404cd4:	00001010 	mfhi	v0
80404cd8:	00021082 	srl	v0,v0,0x2
80404cdc:	3042ffff 	andi	v0,v0,0xffff
80404ce0:	00401821 	move	v1,v0
80404ce4:	24040019 	li	a0,25
80404ce8:	24050050 	li	a1,80
80404cec:	3c028040 	lui	v0,0x8040
80404cf0:	2446764c 	addiu	a2,v0,30284
80404cf4:	00603821 	move	a3,v1
80404cf8:	0c0b58b6 	jal	802d62d8 <PrintInt>
80404cfc:	00000000 	nop
80404d00:	8fc20014 	lw	v0,20(s8)
80404d04:	c4400004 	lwc1	$f0,4(v0)
80404d08:	4600000d 	trunc.w.s	$f0,$f0
80404d0c:	44030000 	mfc1	v1,$f0
80404d10:	24040019 	li	a0,25
80404d14:	2405003c 	li	a1,60
80404d18:	3c028040 	lui	v0,0x8040
80404d1c:	24467654 	addiu	a2,v0,30292
80404d20:	00603821 	move	a3,v1
80404d24:	0c0b58b6 	jal	802d62d8 <PrintInt>
80404d28:	00000000 	nop
80404d2c:	8fc20014 	lw	v0,20(s8)
80404d30:	c4400008 	lwc1	$f0,8(v0)
80404d34:	4600000d 	trunc.w.s	$f0,$f0
80404d38:	44030000 	mfc1	v1,$f0
80404d3c:	24040019 	li	a0,25
80404d40:	24050028 	li	a1,40
80404d44:	3c028040 	lui	v0,0x8040
80404d48:	2446765c 	addiu	a2,v0,30300
80404d4c:	00603821 	move	a3,v1
80404d50:	0c0b58b6 	jal	802d62d8 <PrintInt>
80404d54:	00000000 	nop
80404d58:	8fc20014 	lw	v0,20(s8)
80404d5c:	c440000c 	lwc1	$f0,12(v0)
80404d60:	4600000d 	trunc.w.s	$f0,$f0
80404d64:	44030000 	mfc1	v1,$f0
80404d68:	24040019 	li	a0,25
80404d6c:	24050014 	li	a1,20
80404d70:	3c028040 	lui	v0,0x8040
80404d74:	24467664 	addiu	a2,v0,30308
80404d78:	00603821 	move	a3,v1
80404d7c:	0c0b58b6 	jal	802d62d8 <PrintInt>
80404d80:	00000000 	nop
80404d84:	8f82001c 	lw	v0,28(gp)
80404d88:	8c420000 	lw	v0,0(v0)
80404d8c:	afc20018 	sw	v0,24(s8)
80404d90:	8fc30018 	lw	v1,24(s8)
80404d94:	2c620008 	sltiu	v0,v1,8
80404d98:	1040011a 	beqz	v0,80405204 <MenuPage07+0x7c8>
80404d9c:	00000000 	nop
80404da0:	8fc20018 	lw	v0,24(s8)
80404da4:	00021880 	sll	v1,v0,0x2
80404da8:	3c028040 	lui	v0,0x8040
80404dac:	2442766c 	addiu	v0,v0,30316
80404db0:	00621021 	addu	v0,v1,v0
80404db4:	8c420000 	lw	v0,0(v0)
80404db8:	00400008 	jr	v0
80404dbc:	00000000 	nop
80404dc0:	8f820004 	lw	v0,4(gp)
80404dc4:	8c42009c 	lw	v0,156(v0)
80404dc8:	94420010 	lhu	v0,16(v0)
80404dcc:	30420200 	andi	v0,v0,0x200
80404dd0:	1040000e 	beqz	v0,80404e0c <MenuPage07+0x3d0>
80404dd4:	00000000 	nop
80404dd8:	8f820018 	lw	v0,24(gp)
80404ddc:	8c420000 	lw	v0,0(v0)
80404de0:	28420004 	slti	v0,v0,4
80404de4:	14400009 	bnez	v0,80404e0c <MenuPage07+0x3d0>
80404de8:	00000000 	nop
80404dec:	8f830050 	lw	v1,80(gp)
80404df0:	8f820050 	lw	v0,80(gp)
80404df4:	c4420000 	lwc1	$f2,0(v0)
80404df8:	c78000c4 	lwc1	$f0,196(gp)
80404dfc:	46001001 	sub.s	$f0,$f2,$f0
80404e00:	e4600000 	swc1	$f0,0(v1)
80404e04:	8f820018 	lw	v0,24(gp)
80404e08:	ac400000 	sw	zero,0(v0)
80404e0c:	8f820004 	lw	v0,4(gp)
80404e10:	8c42009c 	lw	v0,156(v0)
80404e14:	94420010 	lhu	v0,16(v0)
80404e18:	30420100 	andi	v0,v0,0x100
80404e1c:	104000f9 	beqz	v0,80405204 <MenuPage07+0x7c8>
80404e20:	00000000 	nop
80404e24:	8f820018 	lw	v0,24(gp)
80404e28:	8c420000 	lw	v0,0(v0)
80404e2c:	28420004 	slti	v0,v0,4
80404e30:	144000f4 	bnez	v0,80405204 <MenuPage07+0x7c8>
80404e34:	00000000 	nop
80404e38:	8f830050 	lw	v1,80(gp)
80404e3c:	8f820050 	lw	v0,80(gp)
80404e40:	c4420000 	lwc1	$f2,0(v0)
80404e44:	c78000c4 	lwc1	$f0,196(gp)
80404e48:	46001000 	add.s	$f0,$f2,$f0
80404e4c:	e4600000 	swc1	$f0,0(v1)
80404e50:	8f820018 	lw	v0,24(gp)
80404e54:	ac400000 	sw	zero,0(v0)
80404e58:	08101481 	j	80405204 <MenuPage07+0x7c8>
80404e5c:	00000000 	nop
80404e60:	8f820004 	lw	v0,4(gp)
80404e64:	8c42009c 	lw	v0,156(v0)
80404e68:	94420010 	lhu	v0,16(v0)
80404e6c:	30420200 	andi	v0,v0,0x200
80404e70:	1040000e 	beqz	v0,80404eac <MenuPage07+0x470>
80404e74:	00000000 	nop
80404e78:	8f820018 	lw	v0,24(gp)
80404e7c:	8c420000 	lw	v0,0(v0)
80404e80:	28420004 	slti	v0,v0,4
80404e84:	14400009 	bnez	v0,80404eac <MenuPage07+0x470>
80404e88:	00000000 	nop
80404e8c:	8f83004c 	lw	v1,76(gp)
80404e90:	8f82004c 	lw	v0,76(gp)
80404e94:	c4420000 	lwc1	$f2,0(v0)
80404e98:	c78000c4 	lwc1	$f0,196(gp)
80404e9c:	46001001 	sub.s	$f0,$f2,$f0
80404ea0:	e4600000 	swc1	$f0,0(v1)
80404ea4:	8f820018 	lw	v0,24(gp)
80404ea8:	ac400000 	sw	zero,0(v0)
80404eac:	8f820004 	lw	v0,4(gp)
80404eb0:	8c42009c 	lw	v0,156(v0)
80404eb4:	94420010 	lhu	v0,16(v0)
80404eb8:	30420100 	andi	v0,v0,0x100
80404ebc:	104000d1 	beqz	v0,80405204 <MenuPage07+0x7c8>
80404ec0:	00000000 	nop
80404ec4:	8f820018 	lw	v0,24(gp)
80404ec8:	8c420000 	lw	v0,0(v0)
80404ecc:	28420004 	slti	v0,v0,4
80404ed0:	144000cc 	bnez	v0,80405204 <MenuPage07+0x7c8>
80404ed4:	00000000 	nop
80404ed8:	8f83004c 	lw	v1,76(gp)
80404edc:	8f82004c 	lw	v0,76(gp)
80404ee0:	c4420000 	lwc1	$f2,0(v0)
80404ee4:	c78000c4 	lwc1	$f0,196(gp)
80404ee8:	46001000 	add.s	$f0,$f2,$f0
80404eec:	e4600000 	swc1	$f0,0(v1)
80404ef0:	8f820018 	lw	v0,24(gp)
80404ef4:	ac400000 	sw	zero,0(v0)
80404ef8:	08101481 	j	80405204 <MenuPage07+0x7c8>
80404efc:	00000000 	nop
80404f00:	8f820004 	lw	v0,4(gp)
80404f04:	8c42009c 	lw	v0,156(v0)
80404f08:	94420010 	lhu	v0,16(v0)
80404f0c:	30420200 	andi	v0,v0,0x200
80404f10:	1040000e 	beqz	v0,80404f4c <MenuPage07+0x510>
80404f14:	00000000 	nop
80404f18:	8f820018 	lw	v0,24(gp)
80404f1c:	8c420000 	lw	v0,0(v0)
80404f20:	28420004 	slti	v0,v0,4
80404f24:	14400009 	bnez	v0,80404f4c <MenuPage07+0x510>
80404f28:	00000000 	nop
80404f2c:	8f830048 	lw	v1,72(gp)
80404f30:	8f820048 	lw	v0,72(gp)
80404f34:	c4420000 	lwc1	$f2,0(v0)
80404f38:	c78000c4 	lwc1	$f0,196(gp)
80404f3c:	46001001 	sub.s	$f0,$f2,$f0
80404f40:	e4600000 	swc1	$f0,0(v1)
80404f44:	8f820018 	lw	v0,24(gp)
80404f48:	ac400000 	sw	zero,0(v0)
80404f4c:	8f820004 	lw	v0,4(gp)
80404f50:	8c42009c 	lw	v0,156(v0)
80404f54:	94420010 	lhu	v0,16(v0)
80404f58:	30420100 	andi	v0,v0,0x100
80404f5c:	104000a9 	beqz	v0,80405204 <MenuPage07+0x7c8>
80404f60:	00000000 	nop
80404f64:	8f820018 	lw	v0,24(gp)
80404f68:	8c420000 	lw	v0,0(v0)
80404f6c:	28420004 	slti	v0,v0,4
80404f70:	144000a4 	bnez	v0,80405204 <MenuPage07+0x7c8>
80404f74:	00000000 	nop
80404f78:	8f830048 	lw	v1,72(gp)
80404f7c:	8f820048 	lw	v0,72(gp)
80404f80:	c4420000 	lwc1	$f2,0(v0)
80404f84:	c78000c4 	lwc1	$f0,196(gp)
80404f88:	46001000 	add.s	$f0,$f2,$f0
80404f8c:	e4600000 	swc1	$f0,0(v1)
80404f90:	8f820018 	lw	v0,24(gp)
80404f94:	ac400000 	sw	zero,0(v0)
80404f98:	08101481 	j	80405204 <MenuPage07+0x7c8>
80404f9c:	00000000 	nop
80404fa0:	8f820004 	lw	v0,4(gp)
80404fa4:	8c42009c 	lw	v0,156(v0)
80404fa8:	94420010 	lhu	v0,16(v0)
80404fac:	30420200 	andi	v0,v0,0x200
80404fb0:	10400013 	beqz	v0,80405000 <MenuPage07+0x5c4>
80404fb4:	00000000 	nop
80404fb8:	8f820018 	lw	v0,24(gp)
80404fbc:	8c420000 	lw	v0,0(v0)
80404fc0:	28420004 	slti	v0,v0,4
80404fc4:	1440000e 	bnez	v0,80405000 <MenuPage07+0x5c4>
80404fc8:	00000000 	nop
80404fcc:	8f830060 	lw	v1,96(gp)
80404fd0:	8f820060 	lw	v0,96(gp)
80404fd4:	8c420000 	lw	v0,0(v0)
80404fd8:	2442ffff 	addiu	v0,v0,-1
80404fdc:	ac620000 	sw	v0,0(v1)
80404fe0:	8f820060 	lw	v0,96(gp)
80404fe4:	8c420000 	lw	v0,0(v0)
80404fe8:	04410003 	bgez	v0,80404ff8 <MenuPage07+0x5bc>
80404fec:	00000000 	nop
80404ff0:	8f820060 	lw	v0,96(gp)
80404ff4:	ac400000 	sw	zero,0(v0)
80404ff8:	8f820018 	lw	v0,24(gp)
80404ffc:	ac400000 	sw	zero,0(v0)
80405000:	8f820004 	lw	v0,4(gp)
80405004:	8c42009c 	lw	v0,156(v0)
80405008:	94420010 	lhu	v0,16(v0)
8040500c:	30420100 	andi	v0,v0,0x100
80405010:	1040000d 	beqz	v0,80405048 <MenuPage07+0x60c>
80405014:	00000000 	nop
80405018:	8f820018 	lw	v0,24(gp)
8040501c:	8c420000 	lw	v0,0(v0)
80405020:	28420004 	slti	v0,v0,4
80405024:	14400008 	bnez	v0,80405048 <MenuPage07+0x60c>
80405028:	00000000 	nop
8040502c:	8f830060 	lw	v1,96(gp)
80405030:	8f820060 	lw	v0,96(gp)
80405034:	8c420000 	lw	v0,0(v0)
80405038:	24420001 	addiu	v0,v0,1
8040503c:	ac620000 	sw	v0,0(v1)
80405040:	8f820018 	lw	v0,24(gp)
80405044:	ac400000 	sw	zero,0(v0)
80405048:	8f820004 	lw	v0,4(gp)
8040504c:	8c42009c 	lw	v0,156(v0)
80405050:	94420010 	lhu	v0,16(v0)
80405054:	30420020 	andi	v0,v0,0x20
80405058:	1040006a 	beqz	v0,80405204 <MenuPage07+0x7c8>
8040505c:	00000000 	nop
80405060:	8f820018 	lw	v0,24(gp)
80405064:	8c420000 	lw	v0,0(v0)
80405068:	28420004 	slti	v0,v0,4
8040506c:	14400065 	bnez	v0,80405204 <MenuPage07+0x7c8>
80405070:	00000000 	nop
80405074:	8f820060 	lw	v0,96(gp)
80405078:	8c420000 	lw	v0,0(v0)
8040507c:	3043ffff 	andi	v1,v0,0xffff
80405080:	8fc20014 	lw	v0,20(s8)
80405084:	a443001e 	sh	v1,30(v0)
80405088:	8f820018 	lw	v0,24(gp)
8040508c:	ac400000 	sw	zero,0(v0)
80405090:	08101481 	j	80405204 <MenuPage07+0x7c8>
80405094:	00000000 	nop
80405098:	8f820004 	lw	v0,4(gp)
8040509c:	8c42009c 	lw	v0,156(v0)
804050a0:	94420010 	lhu	v0,16(v0)
804050a4:	30420200 	andi	v0,v0,0x200
804050a8:	10400013 	beqz	v0,804050f8 <MenuPage07+0x6bc>
804050ac:	00000000 	nop
804050b0:	8f820018 	lw	v0,24(gp)
804050b4:	8c420000 	lw	v0,0(v0)
804050b8:	28420004 	slti	v0,v0,4
804050bc:	1440000e 	bnez	v0,804050f8 <MenuPage07+0x6bc>
804050c0:	00000000 	nop
804050c4:	8f820054 	lw	v0,84(gp)
804050c8:	8c430000 	lw	v1,0(v0)
804050cc:	24020001 	li	v0,1
804050d0:	14620007 	bne	v1,v0,804050f0 <MenuPage07+0x6b4>
804050d4:	00000000 	nop
804050d8:	8f820054 	lw	v0,84(gp)
804050dc:	ac400000 	sw	zero,0(v0)
804050e0:	8f830004 	lw	v1,4(gp)
804050e4:	3c028033 	lui	v0,0x8033
804050e8:	3442c520 	ori	v0,v0,0xc520
804050ec:	ac620094 	sw	v0,148(v1)
804050f0:	8f820018 	lw	v0,24(gp)
804050f4:	ac400000 	sw	zero,0(v0)
804050f8:	8f820004 	lw	v0,4(gp)
804050fc:	8c42009c 	lw	v0,156(v0)
80405100:	94420010 	lhu	v0,16(v0)
80405104:	30420100 	andi	v0,v0,0x100
80405108:	1040003e 	beqz	v0,80405204 <MenuPage07+0x7c8>
8040510c:	00000000 	nop
80405110:	8f820018 	lw	v0,24(gp)
80405114:	8c420000 	lw	v0,0(v0)
80405118:	28420004 	slti	v0,v0,4
8040511c:	14400039 	bnez	v0,80405204 <MenuPage07+0x7c8>
80405120:	00000000 	nop
80405124:	8f820054 	lw	v0,84(gp)
80405128:	8c420000 	lw	v0,0(v0)
8040512c:	14400007 	bnez	v0,8040514c <MenuPage07+0x710>
80405130:	00000000 	nop
80405134:	8f830054 	lw	v1,84(gp)
80405138:	24020001 	li	v0,1
8040513c:	ac620000 	sw	v0,0(v1)
80405140:	8f830004 	lw	v1,4(gp)
80405144:	3c02807c 	lui	v0,0x807c
80405148:	ac620094 	sw	v0,148(v1)
8040514c:	8f820018 	lw	v0,24(gp)
80405150:	ac400000 	sw	zero,0(v0)
80405154:	08101481 	j	80405204 <MenuPage07+0x7c8>
80405158:	00000000 	nop
8040515c:	8f820004 	lw	v0,4(gp)
80405160:	8c42009c 	lw	v0,156(v0)
80405164:	94420010 	lhu	v0,16(v0)
80405168:	30420200 	andi	v0,v0,0x200
8040516c:	10400010 	beqz	v0,804051b0 <MenuPage07+0x774>
80405170:	00000000 	nop
80405174:	8f820018 	lw	v0,24(gp)
80405178:	8c420000 	lw	v0,0(v0)
8040517c:	2842000d 	slti	v0,v0,13
80405180:	1440000b 	bnez	v0,804051b0 <MenuPage07+0x774>
80405184:	00000000 	nop
80405188:	8f830058 	lw	v1,88(gp)
8040518c:	8f820058 	lw	v0,88(gp)
80405190:	c4400000 	lwc1	$f0,0(v0)
80405194:	460000a1 	cvt.d.s	$f2,$f0
80405198:	d78000c8 	ldc1	$f0,200(gp)
8040519c:	46201001 	sub.d	$f0,$f2,$f0
804051a0:	46200020 	cvt.s.d	$f0,$f0
804051a4:	e4600000 	swc1	$f0,0(v1)
804051a8:	8f820018 	lw	v0,24(gp)
804051ac:	ac400000 	sw	zero,0(v0)
804051b0:	8f820004 	lw	v0,4(gp)
804051b4:	8c42009c 	lw	v0,156(v0)
804051b8:	94420010 	lhu	v0,16(v0)
804051bc:	30420100 	andi	v0,v0,0x100
804051c0:	10400010 	beqz	v0,80405204 <MenuPage07+0x7c8>
804051c4:	00000000 	nop
804051c8:	8f820018 	lw	v0,24(gp)
804051cc:	8c420000 	lw	v0,0(v0)
804051d0:	2842000d 	slti	v0,v0,13
804051d4:	1440000b 	bnez	v0,80405204 <MenuPage07+0x7c8>
804051d8:	00000000 	nop
804051dc:	8f830058 	lw	v1,88(gp)
804051e0:	8f820058 	lw	v0,88(gp)
804051e4:	c4400000 	lwc1	$f0,0(v0)
804051e8:	460000a1 	cvt.d.s	$f2,$f0
804051ec:	d78000c8 	ldc1	$f0,200(gp)
804051f0:	46201000 	add.d	$f0,$f2,$f0
804051f4:	46200020 	cvt.s.d	$f0,$f0
804051f8:	e4600000 	swc1	$f0,0(v1)
804051fc:	8f820018 	lw	v0,24(gp)
80405200:	ac400000 	sw	zero,0(v0)
80405204:	03c0e821 	move	sp,s8
80405208:	8fbf0024 	lw	ra,36(sp)
8040520c:	8fbe0020 	lw	s8,32(sp)
80405210:	27bd0028 	addiu	sp,sp,40
80405214:	03e00008 	jr	ra
80405218:	00000000 	nop

8040521c <MenuPage09>:
8040521c:	27bdffe0 	addiu	sp,sp,-32
80405220:	afbf001c 	sw	ra,28(sp)
80405224:	afbe0018 	sw	s8,24(sp)
80405228:	03a0f021 	move	s8,sp
8040522c:	3c028033 	lui	v0,0x8033
80405230:	3442afac 	ori	v0,v0,0xafac
80405234:	afc20010 	sw	v0,16(s8)
80405238:	2404000f 	li	a0,15
8040523c:	240500a0 	li	a1,160
80405240:	3c028040 	lui	v0,0x8040
80405244:	2446768c 	addiu	a2,v0,30348
80405248:	00003821 	move	a3,zero
8040524c:	0c0b58b6 	jal	802d62d8 <PrintInt>
80405250:	00000000 	nop
80405254:	8fc20010 	lw	v0,16(s8)
80405258:	8c430008 	lw	v1,8(v0)
8040525c:	3c028000 	lui	v0,0x8000
80405260:	00621826 	xor	v1,v1,v0
80405264:	8fc20010 	lw	v0,16(s8)
80405268:	c4400004 	lwc1	$f0,4(v0)
8040526c:	44836000 	mtc1	v1,$f12
80405270:	46000386 	mov.s	$f14,$f0
80405274:	0c0dea6a 	jal	8037a9a8 <_8037a9a8>
80405278:	00000000 	nop
8040527c:	00401821 	move	v1,v0
80405280:	3c02b60b 	lui	v0,0xb60b
80405284:	344260b7 	ori	v0,v0,0x60b7
80405288:	00620018 	mult	v1,v0
8040528c:	00001010 	mfhi	v0
80405290:	00431021 	addu	v0,v0,v1
80405294:	000221c3 	sra	a0,v0,0x7
80405298:	000317c3 	sra	v0,v1,0x1f
8040529c:	00821023 	subu	v0,a0,v0
804052a0:	00021400 	sll	v0,v0,0x10
804052a4:	00021403 	sra	v0,v0,0x10
804052a8:	00401821 	move	v1,v0
804052ac:	2404000f 	li	a0,15
804052b0:	240500b4 	li	a1,180
804052b4:	3c028040 	lui	v0,0x8040
804052b8:	244676a0 	addiu	a2,v0,30368
804052bc:	00603821 	move	a3,v1
804052c0:	0c0b58b6 	jal	802d62d8 <PrintInt>
804052c4:	00000000 	nop
804052c8:	8fc20010 	lw	v0,16(s8)
804052cc:	94420012 	lhu	v0,18(v0)
804052d0:	00401821 	move	v1,v0
804052d4:	2404000f 	li	a0,15
804052d8:	2405008c 	li	a1,140
804052dc:	3c028040 	lui	v0,0x8040
804052e0:	244676ac 	addiu	a2,v0,30380
804052e4:	00603821 	move	a3,v1
804052e8:	0c0b58b6 	jal	802d62d8 <PrintInt>
804052ec:	00000000 	nop
804052f0:	8fc20010 	lw	v0,16(s8)
804052f4:	94420010 	lhu	v0,16(v0)
804052f8:	00401821 	move	v1,v0
804052fc:	2404000f 	li	a0,15
80405300:	24050078 	li	a1,120
80405304:	3c028040 	lui	v0,0x8040
80405308:	244676b4 	addiu	a2,v0,30388
8040530c:	00603821 	move	a3,v1
80405310:	0c0b58b6 	jal	802d62d8 <PrintInt>
80405314:	00000000 	nop
80405318:	8fc20010 	lw	v0,16(s8)
8040531c:	c440000c 	lwc1	$f0,12(v0)
80405320:	4600000d 	trunc.w.s	$f0,$f0
80405324:	44030000 	mfc1	v1,$f0
80405328:	2404000f 	li	a0,15
8040532c:	24050064 	li	a1,100
80405330:	3c028040 	lui	v0,0x8040
80405334:	244676bc 	addiu	a2,v0,30396
80405338:	00603821 	move	a3,v1
8040533c:	0c0b58b6 	jal	802d62d8 <PrintInt>
80405340:	00000000 	nop
80405344:	8fc20010 	lw	v0,16(s8)
80405348:	c4400008 	lwc1	$f0,8(v0)
8040534c:	4600000d 	trunc.w.s	$f0,$f0
80405350:	44030000 	mfc1	v1,$f0
80405354:	2404000f 	li	a0,15
80405358:	24050050 	li	a1,80
8040535c:	3c028040 	lui	v0,0x8040
80405360:	244676c4 	addiu	a2,v0,30404
80405364:	00603821 	move	a3,v1
80405368:	0c0b58b6 	jal	802d62d8 <PrintInt>
8040536c:	00000000 	nop
80405370:	8fc20010 	lw	v0,16(s8)
80405374:	c4400004 	lwc1	$f0,4(v0)
80405378:	4600000d 	trunc.w.s	$f0,$f0
8040537c:	44030000 	mfc1	v1,$f0
80405380:	2404000f 	li	a0,15
80405384:	2405003c 	li	a1,60
80405388:	3c028040 	lui	v0,0x8040
8040538c:	244676cc 	addiu	a2,v0,30412
80405390:	00603821 	move	a3,v1
80405394:	0c0b58b6 	jal	802d62d8 <PrintInt>
80405398:	00000000 	nop
8040539c:	8fc20010 	lw	v0,16(s8)
804053a0:	84420002 	lh	v0,2(v0)
804053a4:	00401821 	move	v1,v0
804053a8:	2404000f 	li	a0,15
804053ac:	24050028 	li	a1,40
804053b0:	3c028040 	lui	v0,0x8040
804053b4:	244676d4 	addiu	a2,v0,30420
804053b8:	00603821 	move	a3,v1
804053bc:	0c0b58b6 	jal	802d62d8 <PrintInt>
804053c0:	00000000 	nop
804053c4:	8fc20010 	lw	v0,16(s8)
804053c8:	84420000 	lh	v0,0(v0)
804053cc:	00401821 	move	v1,v0
804053d0:	2404000f 	li	a0,15
804053d4:	24050014 	li	a1,20
804053d8:	3c028040 	lui	v0,0x8040
804053dc:	244676e0 	addiu	a2,v0,30432
804053e0:	00603821 	move	a3,v1
804053e4:	0c0b58b6 	jal	802d62d8 <PrintInt>
804053e8:	00000000 	nop
804053ec:	03c0e821 	move	sp,s8
804053f0:	8fbf001c 	lw	ra,28(sp)
804053f4:	8fbe0018 	lw	s8,24(sp)
804053f8:	27bd0020 	addiu	sp,sp,32
804053fc:	03e00008 	jr	ra
80405400:	00000000 	nop

80405404 <MenuPage08>:
80405404:	27bdffd8 	addiu	sp,sp,-40
80405408:	afbf0024 	sw	ra,36(sp)
8040540c:	afbe0020 	sw	s8,32(sp)
80405410:	afb0001c 	sw	s0,28(sp)
80405414:	03a0f021 	move	s8,sp
80405418:	8f820010 	lw	v0,16(gp)
8040541c:	8c420000 	lw	v0,0(v0)
80405420:	14400031 	bnez	v0,804054e8 <MenuPage08+0xe4>
80405424:	00000000 	nop
80405428:	24020001 	li	v0,1
8040542c:	afc20010 	sw	v0,16(s8)
80405430:	0810152d 	j	804054b4 <MenuPage08+0xb0>
80405434:	00000000 	nop
80405438:	8fc50010 	lw	a1,16(s8)
8040543c:	8fc30010 	lw	v1,16(s8)
80405440:	3c022018 	lui	v0,0x2018
80405444:	34422c00 	ori	v0,v0,0x2c00
80405448:	00621021 	addu	v0,v1,v0
8040544c:	00021080 	sll	v0,v0,0x2
80405450:	00402021 	move	a0,v0
80405454:	3c028041 	lui	v0,0x8041
80405458:	00051880 	sll	v1,a1,0x2
8040545c:	244282e4 	addiu	v0,v0,-32028
80405460:	00621021 	addu	v0,v1,v0
80405464:	ac440000 	sw	a0,0(v0)
80405468:	8fc20010 	lw	v0,16(s8)
8040546c:	3c038041 	lui	v1,0x8041
80405470:	00022080 	sll	a0,v0,0x2
80405474:	246282e4 	addiu	v0,v1,-32028
80405478:	00821021 	addu	v0,a0,v0
8040547c:	8c500000 	lw	s0,0(v0)
80405480:	8fc20010 	lw	v0,16(s8)
80405484:	00021600 	sll	v0,v0,0x18
80405488:	00402021 	move	a0,v0
8040548c:	0c09dfd4 	jal	80277f50 <SegmentedToVirtual>
80405490:	00000000 	nop
80405494:	00401821 	move	v1,v0
80405498:	3c0200ff 	lui	v0,0xff
8040549c:	3442ffff 	ori	v0,v0,0xffff
804054a0:	00621024 	and	v0,v1,v0
804054a4:	ae020000 	sw	v0,0(s0)
804054a8:	8fc20010 	lw	v0,16(s8)
804054ac:	24420001 	addiu	v0,v0,1
804054b0:	afc20010 	sw	v0,16(s8)
804054b4:	8fc20010 	lw	v0,16(s8)
804054b8:	28420018 	slti	v0,v0,24
804054bc:	1440ffde 	bnez	v0,80405438 <MenuPage08+0x34>
804054c0:	00000000 	nop
804054c4:	8f83006c 	lw	v1,108(gp)
804054c8:	3c028041 	lui	v0,0x8041
804054cc:	244282e4 	addiu	v0,v0,-32028
804054d0:	8c42001c 	lw	v0,28(v0)
804054d4:	8c420000 	lw	v0,0(v0)
804054d8:	ac620000 	sw	v0,0(v1)
804054dc:	8f830010 	lw	v1,16(gp)
804054e0:	24020001 	li	v0,1
804054e4:	ac620000 	sw	v0,0(v1)
804054e8:	3c028041 	lui	v0,0x8041
804054ec:	244282e4 	addiu	v0,v0,-32028
804054f0:	8c50001c 	lw	s0,28(v0)
804054f4:	3c040700 	lui	a0,0x700
804054f8:	0c09dfd4 	jal	80277f50 <SegmentedToVirtual>
804054fc:	00000000 	nop
80405500:	00401821 	move	v1,v0
80405504:	3c0200ff 	lui	v0,0xff
80405508:	3442ffff 	ori	v0,v0,0xffff
8040550c:	00621024 	and	v0,v1,v0
80405510:	ae020000 	sw	v0,0(s0)
80405514:	3c028041 	lui	v0,0x8041
80405518:	244282e4 	addiu	v0,v0,-32028
8040551c:	8c44001c 	lw	a0,28(v0)
80405520:	3c028041 	lui	v0,0x8041
80405524:	244282e4 	addiu	v0,v0,-32028
80405528:	8c42001c 	lw	v0,28(v0)
8040552c:	8c430000 	lw	v1,0(v0)
80405530:	8f82006c 	lw	v0,108(gp)
80405534:	8c420000 	lw	v0,0(v0)
80405538:	00621025 	or	v0,v1,v0
8040553c:	ac820000 	sw	v0,0(a0)
80405540:	8c820000 	lw	v0,0(a0)
80405544:	10400003 	beqz	v0,80405554 <MenuPage08+0x150>
80405548:	00000000 	nop
8040554c:	8f820010 	lw	v0,16(gp)
80405550:	ac400000 	sw	zero,0(v0)
80405554:	3c028041 	lui	v0,0x8041
80405558:	244282e4 	addiu	v0,v0,-32028
8040555c:	8c420004 	lw	v0,4(v0)
80405560:	8c420000 	lw	v0,0(v0)
80405564:	00401821 	move	v1,v0
80405568:	2404000f 	li	a0,15
8040556c:	240500dc 	li	a1,220
80405570:	3c028040 	lui	v0,0x8040
80405574:	244676ec 	addiu	a2,v0,30444
80405578:	00603821 	move	a3,v1
8040557c:	0c0b58b6 	jal	802d62d8 <PrintInt>
80405580:	00000000 	nop
80405584:	3c028041 	lui	v0,0x8041
80405588:	244282e4 	addiu	v0,v0,-32028
8040558c:	8c420008 	lw	v0,8(v0)
80405590:	8c420000 	lw	v0,0(v0)
80405594:	00401821 	move	v1,v0
80405598:	2404000f 	li	a0,15
8040559c:	240500c8 	li	a1,200
804055a0:	3c028040 	lui	v0,0x8040
804055a4:	244676f4 	addiu	a2,v0,30452
804055a8:	00603821 	move	a3,v1
804055ac:	0c0b58b6 	jal	802d62d8 <PrintInt>
804055b0:	00000000 	nop
804055b4:	3c028041 	lui	v0,0x8041
804055b8:	244282e4 	addiu	v0,v0,-32028
804055bc:	8c42000c 	lw	v0,12(v0)
804055c0:	8c420000 	lw	v0,0(v0)
804055c4:	00401821 	move	v1,v0
804055c8:	2404000f 	li	a0,15
804055cc:	240500b4 	li	a1,180
804055d0:	3c028040 	lui	v0,0x8040
804055d4:	244676fc 	addiu	a2,v0,30460
804055d8:	00603821 	move	a3,v1
804055dc:	0c0b58b6 	jal	802d62d8 <PrintInt>
804055e0:	00000000 	nop
804055e4:	3c028041 	lui	v0,0x8041
804055e8:	244282e4 	addiu	v0,v0,-32028
804055ec:	8c420010 	lw	v0,16(v0)
804055f0:	8c420000 	lw	v0,0(v0)
804055f4:	00401821 	move	v1,v0
804055f8:	2404000f 	li	a0,15
804055fc:	240500a0 	li	a1,160
80405600:	3c028040 	lui	v0,0x8040
80405604:	24467704 	addiu	a2,v0,30468
80405608:	00603821 	move	a3,v1
8040560c:	0c0b58b6 	jal	802d62d8 <PrintInt>
80405610:	00000000 	nop
80405614:	3c028041 	lui	v0,0x8041
80405618:	244282e4 	addiu	v0,v0,-32028
8040561c:	8c420014 	lw	v0,20(v0)
80405620:	8c420000 	lw	v0,0(v0)
80405624:	00401821 	move	v1,v0
80405628:	2404000f 	li	a0,15
8040562c:	2405008c 	li	a1,140
80405630:	3c028040 	lui	v0,0x8040
80405634:	2446770c 	addiu	a2,v0,30476
80405638:	00603821 	move	a3,v1
8040563c:	0c0b58b6 	jal	802d62d8 <PrintInt>
80405640:	00000000 	nop
80405644:	3c028041 	lui	v0,0x8041
80405648:	244282e4 	addiu	v0,v0,-32028
8040564c:	8c420018 	lw	v0,24(v0)
80405650:	8c420000 	lw	v0,0(v0)
80405654:	00401821 	move	v1,v0
80405658:	2404000f 	li	a0,15
8040565c:	24050078 	li	a1,120
80405660:	3c028040 	lui	v0,0x8040
80405664:	24467714 	addiu	a2,v0,30484
80405668:	00603821 	move	a3,v1
8040566c:	0c0b58b6 	jal	802d62d8 <PrintInt>
80405670:	00000000 	nop
80405674:	3c028041 	lui	v0,0x8041
80405678:	244282e4 	addiu	v0,v0,-32028
8040567c:	8c42001c 	lw	v0,28(v0)
80405680:	8c420000 	lw	v0,0(v0)
80405684:	00401821 	move	v1,v0
80405688:	2404000f 	li	a0,15
8040568c:	24050064 	li	a1,100
80405690:	3c028040 	lui	v0,0x8040
80405694:	2446771c 	addiu	a2,v0,30492
80405698:	00603821 	move	a3,v1
8040569c:	0c0b58b6 	jal	802d62d8 <PrintInt>
804056a0:	00000000 	nop
804056a4:	3c028041 	lui	v0,0x8041
804056a8:	244282e4 	addiu	v0,v0,-32028
804056ac:	8c420020 	lw	v0,32(v0)
804056b0:	8c420000 	lw	v0,0(v0)
804056b4:	00401821 	move	v1,v0
804056b8:	2404000f 	li	a0,15
804056bc:	24050050 	li	a1,80
804056c0:	3c028040 	lui	v0,0x8040
804056c4:	24467724 	addiu	a2,v0,30500
804056c8:	00603821 	move	a3,v1
804056cc:	0c0b58b6 	jal	802d62d8 <PrintInt>
804056d0:	00000000 	nop
804056d4:	3c028041 	lui	v0,0x8041
804056d8:	244282e4 	addiu	v0,v0,-32028
804056dc:	8c420024 	lw	v0,36(v0)
804056e0:	8c420000 	lw	v0,0(v0)
804056e4:	00401821 	move	v1,v0
804056e8:	2404000f 	li	a0,15
804056ec:	2405003c 	li	a1,60
804056f0:	3c028040 	lui	v0,0x8040
804056f4:	2446772c 	addiu	a2,v0,30508
804056f8:	00603821 	move	a3,v1
804056fc:	0c0b58b6 	jal	802d62d8 <PrintInt>
80405700:	00000000 	nop
80405704:	3c028041 	lui	v0,0x8041
80405708:	244282e4 	addiu	v0,v0,-32028
8040570c:	8c420028 	lw	v0,40(v0)
80405710:	8c420000 	lw	v0,0(v0)
80405714:	00401821 	move	v1,v0
80405718:	2404000f 	li	a0,15
8040571c:	24050028 	li	a1,40
80405720:	3c028040 	lui	v0,0x8040
80405724:	24467734 	addiu	a2,v0,30516
80405728:	00603821 	move	a3,v1
8040572c:	0c0b58b6 	jal	802d62d8 <PrintInt>
80405730:	00000000 	nop
80405734:	3c028041 	lui	v0,0x8041
80405738:	244282e4 	addiu	v0,v0,-32028
8040573c:	8c42002c 	lw	v0,44(v0)
80405740:	8c420000 	lw	v0,0(v0)
80405744:	00401821 	move	v1,v0
80405748:	2404000f 	li	a0,15
8040574c:	24050014 	li	a1,20
80405750:	3c028040 	lui	v0,0x8040
80405754:	2446773c 	addiu	a2,v0,30524
80405758:	00603821 	move	a3,v1
8040575c:	0c0b58b6 	jal	802d62d8 <PrintInt>
80405760:	00000000 	nop
80405764:	3c028041 	lui	v0,0x8041
80405768:	244282e4 	addiu	v0,v0,-32028
8040576c:	8c420030 	lw	v0,48(v0)
80405770:	8c420000 	lw	v0,0(v0)
80405774:	00401821 	move	v1,v0
80405778:	24040091 	li	a0,145
8040577c:	240500dc 	li	a1,220
80405780:	3c028040 	lui	v0,0x8040
80405784:	24467744 	addiu	a2,v0,30532
80405788:	00603821 	move	a3,v1
8040578c:	0c0b58b6 	jal	802d62d8 <PrintInt>
80405790:	00000000 	nop
80405794:	3c028041 	lui	v0,0x8041
80405798:	244282e4 	addiu	v0,v0,-32028
8040579c:	8c420034 	lw	v0,52(v0)
804057a0:	8c420000 	lw	v0,0(v0)
804057a4:	00401821 	move	v1,v0
804057a8:	24040091 	li	a0,145
804057ac:	240500c8 	li	a1,200
804057b0:	3c028040 	lui	v0,0x8040
804057b4:	24467750 	addiu	a2,v0,30544
804057b8:	00603821 	move	a3,v1
804057bc:	0c0b58b6 	jal	802d62d8 <PrintInt>
804057c0:	00000000 	nop
804057c4:	3c028041 	lui	v0,0x8041
804057c8:	244282e4 	addiu	v0,v0,-32028
804057cc:	8c420038 	lw	v0,56(v0)
804057d0:	8c420000 	lw	v0,0(v0)
804057d4:	00401821 	move	v1,v0
804057d8:	24040091 	li	a0,145
804057dc:	240500b4 	li	a1,180
804057e0:	3c028040 	lui	v0,0x8040
804057e4:	2446775c 	addiu	a2,v0,30556
804057e8:	00603821 	move	a3,v1
804057ec:	0c0b58b6 	jal	802d62d8 <PrintInt>
804057f0:	00000000 	nop
804057f4:	3c028041 	lui	v0,0x8041
804057f8:	244282e4 	addiu	v0,v0,-32028
804057fc:	8c42003c 	lw	v0,60(v0)
80405800:	8c420000 	lw	v0,0(v0)
80405804:	00401821 	move	v1,v0
80405808:	24040091 	li	a0,145
8040580c:	240500a0 	li	a1,160
80405810:	3c028040 	lui	v0,0x8040
80405814:	24467768 	addiu	a2,v0,30568
80405818:	00603821 	move	a3,v1
8040581c:	0c0b58b6 	jal	802d62d8 <PrintInt>
80405820:	00000000 	nop
80405824:	3c028041 	lui	v0,0x8041
80405828:	244282e4 	addiu	v0,v0,-32028
8040582c:	8c420040 	lw	v0,64(v0)
80405830:	8c420000 	lw	v0,0(v0)
80405834:	00401821 	move	v1,v0
80405838:	24040091 	li	a0,145
8040583c:	2405008c 	li	a1,140
80405840:	3c028040 	lui	v0,0x8040
80405844:	24467774 	addiu	a2,v0,30580
80405848:	00603821 	move	a3,v1
8040584c:	0c0b58b6 	jal	802d62d8 <PrintInt>
80405850:	00000000 	nop
80405854:	3c028041 	lui	v0,0x8041
80405858:	244282e4 	addiu	v0,v0,-32028
8040585c:	8c420044 	lw	v0,68(v0)
80405860:	8c420000 	lw	v0,0(v0)
80405864:	00401821 	move	v1,v0
80405868:	24040091 	li	a0,145
8040586c:	24050078 	li	a1,120
80405870:	3c028040 	lui	v0,0x8040
80405874:	24467780 	addiu	a2,v0,30592
80405878:	00603821 	move	a3,v1
8040587c:	0c0b58b6 	jal	802d62d8 <PrintInt>
80405880:	00000000 	nop
80405884:	3c028041 	lui	v0,0x8041
80405888:	244282e4 	addiu	v0,v0,-32028
8040588c:	8c420048 	lw	v0,72(v0)
80405890:	8c420000 	lw	v0,0(v0)
80405894:	00401821 	move	v1,v0
80405898:	24040091 	li	a0,145
8040589c:	24050064 	li	a1,100
804058a0:	3c028040 	lui	v0,0x8040
804058a4:	2446778c 	addiu	a2,v0,30604
804058a8:	00603821 	move	a3,v1
804058ac:	0c0b58b6 	jal	802d62d8 <PrintInt>
804058b0:	00000000 	nop
804058b4:	3c028041 	lui	v0,0x8041
804058b8:	244282e4 	addiu	v0,v0,-32028
804058bc:	8c42004c 	lw	v0,76(v0)
804058c0:	8c420000 	lw	v0,0(v0)
804058c4:	00401821 	move	v1,v0
804058c8:	24040091 	li	a0,145
804058cc:	24050050 	li	a1,80
804058d0:	3c028040 	lui	v0,0x8040
804058d4:	24467798 	addiu	a2,v0,30616
804058d8:	00603821 	move	a3,v1
804058dc:	0c0b58b6 	jal	802d62d8 <PrintInt>
804058e0:	00000000 	nop
804058e4:	3c028041 	lui	v0,0x8041
804058e8:	244282e4 	addiu	v0,v0,-32028
804058ec:	8c420050 	lw	v0,80(v0)
804058f0:	8c420000 	lw	v0,0(v0)
804058f4:	00401821 	move	v1,v0
804058f8:	24040091 	li	a0,145
804058fc:	2405003c 	li	a1,60
80405900:	3c028040 	lui	v0,0x8040
80405904:	244677a4 	addiu	a2,v0,30628
80405908:	00603821 	move	a3,v1
8040590c:	0c0b58b6 	jal	802d62d8 <PrintInt>
80405910:	00000000 	nop
80405914:	3c028041 	lui	v0,0x8041
80405918:	244282e4 	addiu	v0,v0,-32028
8040591c:	8c420054 	lw	v0,84(v0)
80405920:	8c420000 	lw	v0,0(v0)
80405924:	00401821 	move	v1,v0
80405928:	24040091 	li	a0,145
8040592c:	24050028 	li	a1,40
80405930:	3c028040 	lui	v0,0x8040
80405934:	244677b0 	addiu	a2,v0,30640
80405938:	00603821 	move	a3,v1
8040593c:	0c0b58b6 	jal	802d62d8 <PrintInt>
80405940:	00000000 	nop
80405944:	3c028041 	lui	v0,0x8041
80405948:	244282e4 	addiu	v0,v0,-32028
8040594c:	8c420058 	lw	v0,88(v0)
80405950:	8c420000 	lw	v0,0(v0)
80405954:	00401821 	move	v1,v0
80405958:	24040091 	li	a0,145
8040595c:	24050014 	li	a1,20
80405960:	3c028040 	lui	v0,0x8040
80405964:	244677bc 	addiu	a2,v0,30652
80405968:	00603821 	move	a3,v1
8040596c:	0c0b58b6 	jal	802d62d8 <PrintInt>
80405970:	00000000 	nop
80405974:	03c0e821 	move	sp,s8
80405978:	8fbf0024 	lw	ra,36(sp)
8040597c:	8fbe0020 	lw	s8,32(sp)
80405980:	8fb0001c 	lw	s0,28(sp)
80405984:	27bd0028 	addiu	sp,sp,40
80405988:	03e00008 	jr	ra
8040598c:	00000000 	nop

80405990 <PongOfDeath>:
80405990:	27bdff40 	addiu	sp,sp,-192
80405994:	afbf00bc 	sw	ra,188(sp)
80405998:	afbe00b8 	sw	s8,184(sp)
8040599c:	03a0f021 	move	s8,sp
804059a0:	3c028032 	lui	v0,0x8032
804059a4:	3442ddf8 	ori	v0,v0,0xddf8
804059a8:	afc2007c 	sw	v0,124(s8)
804059ac:	3c028033 	lui	v0,0x8033
804059b0:	3442afa0 	ori	v0,v0,0xafa0
804059b4:	afc20078 	sw	v0,120(s8)
804059b8:	3c028060 	lui	v0,0x8060
804059bc:	34424000 	ori	v0,v0,0x4000
804059c0:	afc20074 	sw	v0,116(s8)
804059c4:	3c028060 	lui	v0,0x8060
804059c8:	34424002 	ori	v0,v0,0x4002
804059cc:	afc20070 	sw	v0,112(s8)
804059d0:	3c028060 	lui	v0,0x8060
804059d4:	34424004 	ori	v0,v0,0x4004
804059d8:	afc2006c 	sw	v0,108(s8)
804059dc:	3c028060 	lui	v0,0x8060
804059e0:	3442400c 	ori	v0,v0,0x400c
804059e4:	afc20068 	sw	v0,104(s8)
804059e8:	3c028060 	lui	v0,0x8060
804059ec:	34424010 	ori	v0,v0,0x4010
804059f0:	afc20064 	sw	v0,100(s8)
804059f4:	3c028060 	lui	v0,0x8060
804059f8:	34424014 	ori	v0,v0,0x4014
804059fc:	afc20060 	sw	v0,96(s8)
80405a00:	3c028060 	lui	v0,0x8060
80405a04:	34424018 	ori	v0,v0,0x4018
80405a08:	afc2005c 	sw	v0,92(s8)
80405a0c:	3c028060 	lui	v0,0x8060
80405a10:	3442401c 	ori	v0,v0,0x401c
80405a14:	afc20058 	sw	v0,88(s8)
80405a18:	3c028060 	lui	v0,0x8060
80405a1c:	34424020 	ori	v0,v0,0x4020
80405a20:	afc20054 	sw	v0,84(s8)
80405a24:	3c028060 	lui	v0,0x8060
80405a28:	34424024 	ori	v0,v0,0x4024
80405a2c:	afc20050 	sw	v0,80(s8)
80405a30:	3c028060 	lui	v0,0x8060
80405a34:	34424028 	ori	v0,v0,0x4028
80405a38:	afc2004c 	sw	v0,76(s8)
80405a3c:	3c028060 	lui	v0,0x8060
80405a40:	3442402c 	ori	v0,v0,0x402c
80405a44:	afc20048 	sw	v0,72(s8)
80405a48:	3c028060 	lui	v0,0x8060
80405a4c:	3442402d 	ori	v0,v0,0x402d
80405a50:	afc20044 	sw	v0,68(s8)
80405a54:	3c028060 	lui	v0,0x8060
80405a58:	3442402e 	ori	v0,v0,0x402e
80405a5c:	afc20040 	sw	v0,64(s8)
80405a60:	3c028060 	lui	v0,0x8060
80405a64:	3442402f 	ori	v0,v0,0x402f
80405a68:	afc2003c 	sw	v0,60(s8)
80405a6c:	3c028060 	lui	v0,0x8060
80405a70:	34424030 	ori	v0,v0,0x4030
80405a74:	afc20038 	sw	v0,56(s8)
80405a78:	3c028033 	lui	v0,0x8033
80405a7c:	3442b26a 	ori	v0,v0,0xb26a
80405a80:	afc20034 	sw	v0,52(s8)
80405a84:	3c028060 	lui	v0,0x8060
80405a88:	34424034 	ori	v0,v0,0x4034
80405a8c:	afc20030 	sw	v0,48(s8)
80405a90:	3c028060 	lui	v0,0x8060
80405a94:	34424038 	ori	v0,v0,0x4038
80405a98:	afc2002c 	sw	v0,44(s8)
80405a9c:	3c028060 	lui	v0,0x8060
80405aa0:	3442403c 	ori	v0,v0,0x403c
80405aa4:	afc20028 	sw	v0,40(s8)
80405aa8:	8fc2002c 	lw	v0,44(s8)
80405aac:	8c420000 	lw	v0,0(v0)
80405ab0:	14400009 	bnez	v0,80405ad8 <PongOfDeath+0x148>
80405ab4:	00000000 	nop
80405ab8:	8fc30044 	lw	v1,68(s8)
80405abc:	24020001 	li	v0,1
80405ac0:	a0620000 	sb	v0,0(v1)
80405ac4:	8fc3002c 	lw	v1,44(s8)
80405ac8:	24020001 	li	v0,1
80405acc:	ac620000 	sw	v0,0(v1)
80405ad0:	8fc20040 	lw	v0,64(s8)
80405ad4:	a0400000 	sb	zero,0(v0)
80405ad8:	8fc20044 	lw	v0,68(s8)
80405adc:	90420000 	lbu	v0,0(v0)
80405ae0:	144004e7 	bnez	v0,80406e80 <PongOfDeath+0x14f0>
80405ae4:	00000000 	nop
80405ae8:	8fc2006c 	lw	v0,108(s8)
80405aec:	8c420000 	lw	v0,0(v0)
80405af0:	24430003 	addiu	v1,v0,3
80405af4:	8fc2006c 	lw	v0,108(s8)
80405af8:	ac430000 	sw	v1,0(v0)
80405afc:	8fc20034 	lw	v0,52(s8)
80405b00:	a4400000 	sh	zero,0(v0)
80405b04:	8fc20048 	lw	v0,72(s8)
80405b08:	90420000 	lbu	v0,0(v0)
80405b0c:	14400035 	bnez	v0,80405be4 <PongOfDeath+0x254>
80405b10:	00000000 	nop
80405b14:	8fc30068 	lw	v1,104(s8)
80405b18:	2402006e 	li	v0,110
80405b1c:	ac620000 	sw	v0,0(v1)
80405b20:	8fc30064 	lw	v1,100(s8)
80405b24:	2402006e 	li	v0,110
80405b28:	ac620000 	sw	v0,0(v1)
80405b2c:	8fc30048 	lw	v1,72(s8)
80405b30:	24020001 	li	v0,1
80405b34:	a0620000 	sb	v0,0(v1)
80405b38:	8fc20060 	lw	v0,96(s8)
80405b3c:	ac400000 	sw	zero,0(v0)
80405b40:	8fc20038 	lw	v0,56(s8)
80405b44:	ac400000 	sw	zero,0(v0)
80405b48:	8fc3004c 	lw	v1,76(s8)
80405b4c:	24020004 	li	v0,4
80405b50:	ac620000 	sw	v0,0(v1)
80405b54:	8fc3003c 	lw	v1,60(s8)
80405b58:	24020002 	li	v0,2
80405b5c:	a0620000 	sb	v0,0(v1)
80405b60:	8fc20074 	lw	v0,116(s8)
80405b64:	a4400000 	sh	zero,0(v0)
80405b68:	8fc20070 	lw	v0,112(s8)
80405b6c:	a4400000 	sh	zero,0(v0)
80405b70:	8fc20030 	lw	v0,48(s8)
80405b74:	ac400000 	sw	zero,0(v0)
80405b78:	8fc20040 	lw	v0,64(s8)
80405b7c:	90420000 	lbu	v0,0(v0)
80405b80:	24420001 	addiu	v0,v0,1
80405b84:	304300ff 	andi	v1,v0,0xff
80405b88:	8fc20040 	lw	v0,64(s8)
80405b8c:	a0430000 	sb	v1,0(v0)
80405b90:	8fc20040 	lw	v0,64(s8)
80405b94:	90420000 	lbu	v0,0(v0)
80405b98:	2c420003 	sltiu	v0,v0,3
80405b9c:	14400009 	bnez	v0,80405bc4 <PongOfDeath+0x234>
80405ba0:	00000000 	nop
80405ba4:	8fc2004c 	lw	v0,76(s8)
80405ba8:	8c430000 	lw	v1,0(v0)
80405bac:	8fc20040 	lw	v0,64(s8)
80405bb0:	90420000 	lbu	v0,0(v0)
80405bb4:	00621021 	addu	v0,v1,v0
80405bb8:	2443fffd 	addiu	v1,v0,-3
80405bbc:	8fc2004c 	lw	v0,76(s8)
80405bc0:	ac430000 	sw	v1,0(v0)
80405bc4:	8fc20040 	lw	v0,64(s8)
80405bc8:	90420000 	lbu	v0,0(v0)
80405bcc:	2c420008 	sltiu	v0,v0,8
80405bd0:	14400004 	bnez	v0,80405be4 <PongOfDeath+0x254>
80405bd4:	00000000 	nop
80405bd8:	8fc3004c 	lw	v1,76(s8)
80405bdc:	24020009 	li	v0,9
80405be0:	ac620000 	sw	v0,0(v1)
80405be4:	8fc20060 	lw	v0,96(s8)
80405be8:	8c420000 	lw	v0,0(v0)
80405bec:	144000bb 	bnez	v0,80405edc <PongOfDeath+0x54c>
80405bf0:	00000000 	nop
80405bf4:	8fc20054 	lw	v0,84(s8)
80405bf8:	8c420000 	lw	v0,0(v0)
80405bfc:	10400006 	beqz	v0,80405c18 <PongOfDeath+0x288>
80405c00:	00000000 	nop
80405c04:	8fc20054 	lw	v0,84(s8)
80405c08:	8c430000 	lw	v1,0(v0)
80405c0c:	24020002 	li	v0,2
80405c10:	14620008 	bne	v1,v0,80405c34 <PongOfDeath+0x2a4>
80405c14:	00000000 	nop
80405c18:	8fc2005c 	lw	v0,92(s8)
80405c1c:	24030032 	li	v1,50
80405c20:	ac430000 	sw	v1,0(v0)
80405c24:	8fc20054 	lw	v0,84(s8)
80405c28:	ac400000 	sw	zero,0(v0)
80405c2c:	0810171d 	j	80405c74 <PongOfDeath+0x2e4>
80405c30:	00000000 	nop
80405c34:	8fc20054 	lw	v0,84(s8)
80405c38:	8c430000 	lw	v1,0(v0)
80405c3c:	24020001 	li	v0,1
80405c40:	10620006 	beq	v1,v0,80405c5c <PongOfDeath+0x2cc>
80405c44:	00000000 	nop
80405c48:	8fc20054 	lw	v0,84(s8)
80405c4c:	8c430000 	lw	v1,0(v0)
80405c50:	24020003 	li	v0,3
80405c54:	14620007 	bne	v1,v0,80405c74 <PongOfDeath+0x2e4>
80405c58:	00000000 	nop
80405c5c:	8fc3005c 	lw	v1,92(s8)
80405c60:	240200fa 	li	v0,250
80405c64:	ac620000 	sw	v0,0(v1)
80405c68:	8fc30054 	lw	v1,84(s8)
80405c6c:	24020001 	li	v0,1
80405c70:	ac620000 	sw	v0,0(v1)
80405c74:	8fc20050 	lw	v0,80(s8)
80405c78:	8c430000 	lw	v1,0(v0)
80405c7c:	24020002 	li	v0,2
80405c80:	14620003 	bne	v1,v0,80405c90 <PongOfDeath+0x300>
80405c84:	00000000 	nop
80405c88:	8fc20050 	lw	v0,80(s8)
80405c8c:	ac400000 	sw	zero,0(v0)
80405c90:	8fc20050 	lw	v0,80(s8)
80405c94:	8c430000 	lw	v1,0(v0)
80405c98:	24020003 	li	v0,3
80405c9c:	14620004 	bne	v1,v0,80405cb0 <PongOfDeath+0x320>
80405ca0:	00000000 	nop
80405ca4:	8fc30050 	lw	v1,80(s8)
80405ca8:	24020001 	li	v0,1
80405cac:	ac620000 	sw	v0,0(v1)
80405cb0:	8fc30058 	lw	v1,88(s8)
80405cb4:	2402006e 	li	v0,110
80405cb8:	ac620000 	sw	v0,0(v1)
80405cbc:	8fc20038 	lw	v0,56(s8)
80405cc0:	ac400000 	sw	zero,0(v0)
80405cc4:	8fc20070 	lw	v0,112(s8)
80405cc8:	94420000 	lhu	v0,0(v0)
80405ccc:	2c42000a 	sltiu	v0,v0,10
80405cd0:	1440000a 	bnez	v0,80405cfc <PongOfDeath+0x36c>
80405cd4:	00000000 	nop
80405cd8:	8fc30044 	lw	v1,68(s8)
80405cdc:	24020001 	li	v0,1
80405ce0:	a0620000 	sb	v0,0(v1)
80405ce4:	8fc20040 	lw	v0,64(s8)
80405ce8:	a0400000 	sb	zero,0(v0)
80405cec:	8f820004 	lw	v0,4(gp)
80405cf0:	a44000ae 	sh	zero,174(v0)
80405cf4:	081017b2 	j	80405ec8 <PongOfDeath+0x538>
80405cf8:	00000000 	nop
80405cfc:	8fc20074 	lw	v0,116(s8)
80405d00:	94420000 	lhu	v0,0(v0)
80405d04:	2c42000a 	sltiu	v0,v0,10
80405d08:	1440006f 	bnez	v0,80405ec8 <PongOfDeath+0x538>
80405d0c:	00000000 	nop
80405d10:	3c028036 	lui	v0,0x8036
80405d14:	34421160 	ori	v0,v0,0x1160
80405d18:	afc20024 	sw	v0,36(s8)
80405d1c:	8fc20024 	lw	v0,36(s8)
80405d20:	8c420000 	lw	v0,0(v0)
80405d24:	afc20020 	sw	v0,32(s8)
80405d28:	8fc2007c 	lw	v0,124(s8)
80405d2c:	94430000 	lhu	v1,0(v0)
80405d30:	24020006 	li	v0,6
80405d34:	10620061 	beq	v1,v0,80405ebc <PongOfDeath+0x52c>
80405d38:	00000000 	nop
80405d3c:	8fc2006c 	lw	v0,108(s8)
80405d40:	8c430000 	lw	v1,0(v0)
80405d44:	3c02cccc 	lui	v0,0xcccc
80405d48:	3442cccd 	ori	v0,v0,0xcccd
80405d4c:	00620019 	multu	v1,v0
80405d50:	00001010 	mfhi	v0
80405d54:	00021082 	srl	v0,v0,0x2
80405d58:	afc200b0 	sw	v0,176(s8)
80405d5c:	8fc200b0 	lw	v0,176(s8)
80405d60:	00021080 	sll	v0,v0,0x2
80405d64:	8fc400b0 	lw	a0,176(s8)
80405d68:	00441021 	addu	v0,v0,a0
80405d6c:	00621023 	subu	v0,v1,v0
80405d70:	afc200b0 	sw	v0,176(s8)
80405d74:	24020002 	li	v0,2
80405d78:	8fc300b0 	lw	v1,176(s8)
80405d7c:	1462000c 	bne	v1,v0,80405db0 <PongOfDeath+0x420>
80405d80:	00000000 	nop
80405d84:	8f820008 	lw	v0,8(gp)
80405d88:	8c420000 	lw	v0,0(v0)
80405d8c:	00402021 	move	a0,v0
80405d90:	240500be 	li	a1,190
80405d94:	3c021300 	lui	v0,0x1300
80405d98:	34461f3c 	ori	a2,v0,0x1f3c
80405d9c:	0c0a7b73 	jal	8029edcc <SpawnObj>
80405da0:	00000000 	nop
80405da4:	afc2001c 	sw	v0,28(s8)
80405da8:	081017af 	j	80405ebc <PongOfDeath+0x52c>
80405dac:	00000000 	nop
80405db0:	8fc2006c 	lw	v0,108(s8)
80405db4:	8c430000 	lw	v1,0(v0)
80405db8:	3c02cccc 	lui	v0,0xcccc
80405dbc:	3442cccd 	ori	v0,v0,0xcccd
80405dc0:	00620019 	multu	v1,v0
80405dc4:	00001010 	mfhi	v0
80405dc8:	00021082 	srl	v0,v0,0x2
80405dcc:	afc200ac 	sw	v0,172(s8)
80405dd0:	8fc200ac 	lw	v0,172(s8)
80405dd4:	00021080 	sll	v0,v0,0x2
80405dd8:	8fc400ac 	lw	a0,172(s8)
80405ddc:	00441021 	addu	v0,v0,a0
80405de0:	00621023 	subu	v0,v1,v0
80405de4:	afc200ac 	sw	v0,172(s8)
80405de8:	24020003 	li	v0,3
80405dec:	8fc300ac 	lw	v1,172(s8)
80405df0:	1462000c 	bne	v1,v0,80405e24 <PongOfDeath+0x494>
80405df4:	00000000 	nop
80405df8:	8f820008 	lw	v0,8(gp)
80405dfc:	8c420000 	lw	v0,0(v0)
80405e00:	00402021 	move	a0,v0
80405e04:	24050088 	li	a1,136
80405e08:	3c021300 	lui	v0,0x1300
80405e0c:	34463dd8 	ori	a2,v0,0x3dd8
80405e10:	0c0a7b73 	jal	8029edcc <SpawnObj>
80405e14:	00000000 	nop
80405e18:	afc20018 	sw	v0,24(s8)
80405e1c:	081017af 	j	80405ebc <PongOfDeath+0x52c>
80405e20:	00000000 	nop
80405e24:	8fc2006c 	lw	v0,108(s8)
80405e28:	8c430000 	lw	v1,0(v0)
80405e2c:	3c02cccc 	lui	v0,0xcccc
80405e30:	3442cccd 	ori	v0,v0,0xcccd
80405e34:	00620019 	multu	v1,v0
80405e38:	00001010 	mfhi	v0
80405e3c:	00021082 	srl	v0,v0,0x2
80405e40:	afc200a8 	sw	v0,168(s8)
80405e44:	8fc200a8 	lw	v0,168(s8)
80405e48:	00021080 	sll	v0,v0,0x2
80405e4c:	8fc400a8 	lw	a0,168(s8)
80405e50:	00441021 	addu	v0,v0,a0
80405e54:	00621023 	subu	v0,v1,v0
80405e58:	afc200a8 	sw	v0,168(s8)
80405e5c:	24020001 	li	v0,1
80405e60:	8fc300a8 	lw	v1,168(s8)
80405e64:	1462000c 	bne	v1,v0,80405e98 <PongOfDeath+0x508>
80405e68:	00000000 	nop
80405e6c:	8f820008 	lw	v0,8(gp)
80405e70:	8c420000 	lw	v0,0(v0)
80405e74:	00402021 	move	a0,v0
80405e78:	24050086 	li	a1,134
80405e7c:	3c021300 	lui	v0,0x1300
80405e80:	34463db8 	ori	a2,v0,0x3db8
80405e84:	0c0a7b73 	jal	8029edcc <SpawnObj>
80405e88:	00000000 	nop
80405e8c:	afc20014 	sw	v0,20(s8)
80405e90:	081017af 	j	80405ebc <PongOfDeath+0x52c>
80405e94:	00000000 	nop
80405e98:	8f820008 	lw	v0,8(gp)
80405e9c:	8c420000 	lw	v0,0(v0)
80405ea0:	00402021 	move	a0,v0
80405ea4:	240500d4 	li	a1,212
80405ea8:	3c021300 	lui	v0,0x1300
80405eac:	34463fdc 	ori	a2,v0,0x3fdc
80405eb0:	0c0a7b73 	jal	8029edcc <SpawnObj>
80405eb4:	00000000 	nop
80405eb8:	afc20010 	sw	v0,16(s8)
80405ebc:	8fc30044 	lw	v1,68(s8)
80405ec0:	24020001 	li	v0,1
80405ec4:	a0620000 	sb	v0,0(v1)
80405ec8:	8fc20060 	lw	v0,96(s8)
80405ecc:	24030001 	li	v1,1
80405ed0:	ac430000 	sw	v1,0(v0)
80405ed4:	8fc20028 	lw	v0,40(s8)
80405ed8:	ac400000 	sw	zero,0(v0)
80405edc:	8fc20074 	lw	v0,116(s8)
80405ee0:	94420000 	lhu	v0,0(v0)
80405ee4:	00401821 	move	v1,v0
80405ee8:	24040005 	li	a0,5
80405eec:	240500d7 	li	a1,215
80405ef0:	3c028040 	lui	v0,0x8040
80405ef4:	24467340 	addiu	a2,v0,29504
80405ef8:	00603821 	move	a3,v1
80405efc:	0c0b58b6 	jal	802d62d8 <PrintInt>
80405f00:	00000000 	nop
80405f04:	8fc20070 	lw	v0,112(s8)
80405f08:	94420000 	lhu	v0,0(v0)
80405f0c:	00401821 	move	v1,v0
80405f10:	24040131 	li	a0,305
80405f14:	240500d7 	li	a1,215
80405f18:	3c028040 	lui	v0,0x8040
80405f1c:	24467340 	addiu	a2,v0,29504
80405f20:	00603821 	move	a3,v1
80405f24:	0c0b58b6 	jal	802d62d8 <PrintInt>
80405f28:	00000000 	nop
80405f2c:	8fc20068 	lw	v0,104(s8)
80405f30:	8c420000 	lw	v0,0(v0)
80405f34:	3042ffff 	andi	v0,v0,0xffff
80405f38:	24040019 	li	a0,25
80405f3c:	00402821 	move	a1,v0
80405f40:	3c028040 	lui	v0,0x8040
80405f44:	244677c8 	addiu	a2,v0,30664
80405f48:	0c0b59b0 	jal	802d66c0 <PrintXY>
80405f4c:	00000000 	nop
80405f50:	8fc20068 	lw	v0,104(s8)
80405f54:	8c420000 	lw	v0,0(v0)
80405f58:	3042ffff 	andi	v0,v0,0xffff
80405f5c:	24420005 	addiu	v0,v0,5
80405f60:	3042ffff 	andi	v0,v0,0xffff
80405f64:	24040019 	li	a0,25
80405f68:	00402821 	move	a1,v0
80405f6c:	3c028040 	lui	v0,0x8040
80405f70:	244677c8 	addiu	a2,v0,30664
80405f74:	0c0b59b0 	jal	802d66c0 <PrintXY>
80405f78:	00000000 	nop
80405f7c:	8fc20068 	lw	v0,104(s8)
80405f80:	8c420000 	lw	v0,0(v0)
80405f84:	3042ffff 	andi	v0,v0,0xffff
80405f88:	2442000a 	addiu	v0,v0,10
80405f8c:	3042ffff 	andi	v0,v0,0xffff
80405f90:	24040019 	li	a0,25
80405f94:	00402821 	move	a1,v0
80405f98:	3c028040 	lui	v0,0x8040
80405f9c:	244677c8 	addiu	a2,v0,30664
80405fa0:	0c0b59b0 	jal	802d66c0 <PrintXY>
80405fa4:	00000000 	nop
80405fa8:	8fc20068 	lw	v0,104(s8)
80405fac:	8c420000 	lw	v0,0(v0)
80405fb0:	3042ffff 	andi	v0,v0,0xffff
80405fb4:	2442000f 	addiu	v0,v0,15
80405fb8:	3042ffff 	andi	v0,v0,0xffff
80405fbc:	24040019 	li	a0,25
80405fc0:	00402821 	move	a1,v0
80405fc4:	3c028040 	lui	v0,0x8040
80405fc8:	244677c8 	addiu	a2,v0,30664
80405fcc:	0c0b59b0 	jal	802d66c0 <PrintXY>
80405fd0:	00000000 	nop
80405fd4:	8fc20064 	lw	v0,100(s8)
80405fd8:	8c420000 	lw	v0,0(v0)
80405fdc:	3042ffff 	andi	v0,v0,0xffff
80405fe0:	24040113 	li	a0,275
80405fe4:	00402821 	move	a1,v0
80405fe8:	3c028040 	lui	v0,0x8040
80405fec:	244677c8 	addiu	a2,v0,30664
80405ff0:	0c0b59b0 	jal	802d66c0 <PrintXY>
80405ff4:	00000000 	nop
80405ff8:	8fc20064 	lw	v0,100(s8)
80405ffc:	8c420000 	lw	v0,0(v0)
80406000:	3042ffff 	andi	v0,v0,0xffff
80406004:	24420005 	addiu	v0,v0,5
80406008:	3042ffff 	andi	v0,v0,0xffff
8040600c:	24040113 	li	a0,275
80406010:	00402821 	move	a1,v0
80406014:	3c028040 	lui	v0,0x8040
80406018:	244677c8 	addiu	a2,v0,30664
8040601c:	0c0b59b0 	jal	802d66c0 <PrintXY>
80406020:	00000000 	nop
80406024:	8fc20064 	lw	v0,100(s8)
80406028:	8c420000 	lw	v0,0(v0)
8040602c:	3042ffff 	andi	v0,v0,0xffff
80406030:	2442000a 	addiu	v0,v0,10
80406034:	3042ffff 	andi	v0,v0,0xffff
80406038:	24040113 	li	a0,275
8040603c:	00402821 	move	a1,v0
80406040:	3c028040 	lui	v0,0x8040
80406044:	244677c8 	addiu	a2,v0,30664
80406048:	0c0b59b0 	jal	802d66c0 <PrintXY>
8040604c:	00000000 	nop
80406050:	8fc20064 	lw	v0,100(s8)
80406054:	8c420000 	lw	v0,0(v0)
80406058:	3042ffff 	andi	v0,v0,0xffff
8040605c:	2442000f 	addiu	v0,v0,15
80406060:	3042ffff 	andi	v0,v0,0xffff
80406064:	24040113 	li	a0,275
80406068:	00402821 	move	a1,v0
8040606c:	3c028040 	lui	v0,0x8040
80406070:	244677c8 	addiu	a2,v0,30664
80406074:	0c0b59b0 	jal	802d66c0 <PrintXY>
80406078:	00000000 	nop
8040607c:	8fc2005c 	lw	v0,92(s8)
80406080:	8c420000 	lw	v0,0(v0)
80406084:	3042ffff 	andi	v0,v0,0xffff
80406088:	00401821 	move	v1,v0
8040608c:	8fc20058 	lw	v0,88(s8)
80406090:	8c420000 	lw	v0,0(v0)
80406094:	3042ffff 	andi	v0,v0,0xffff
80406098:	00602021 	move	a0,v1
8040609c:	00402821 	move	a1,v0
804060a0:	3c028040 	lui	v0,0x8040
804060a4:	244677cc 	addiu	a2,v0,30668
804060a8:	0c0b59b0 	jal	802d66c0 <PrintXY>
804060ac:	00000000 	nop
804060b0:	8fc20038 	lw	v0,56(s8)
804060b4:	8c420000 	lw	v0,0(v0)
804060b8:	24430001 	addiu	v1,v0,1
804060bc:	8fc20038 	lw	v0,56(s8)
804060c0:	ac430000 	sw	v1,0(v0)
804060c4:	8fc20038 	lw	v0,56(s8)
804060c8:	8c420000 	lw	v0,0(v0)
804060cc:	2c42001f 	sltiu	v0,v0,31
804060d0:	14400097 	bnez	v0,80406330 <PongOfDeath+0x9a0>
804060d4:	00000000 	nop
804060d8:	8fc20054 	lw	v0,84(s8)
804060dc:	8c420000 	lw	v0,0(v0)
804060e0:	1440000a 	bnez	v0,8040610c <PongOfDeath+0x77c>
804060e4:	00000000 	nop
804060e8:	8fc2005c 	lw	v0,92(s8)
804060ec:	8c430000 	lw	v1,0(v0)
804060f0:	8fc2004c 	lw	v0,76(s8)
804060f4:	8c420000 	lw	v0,0(v0)
804060f8:	00621821 	addu	v1,v1,v0
804060fc:	8fc2005c 	lw	v0,92(s8)
80406100:	ac430000 	sw	v1,0(v0)
80406104:	0810186d 	j	804061b4 <PongOfDeath+0x824>
80406108:	00000000 	nop
8040610c:	8fc20054 	lw	v0,84(s8)
80406110:	8c430000 	lw	v1,0(v0)
80406114:	24020001 	li	v0,1
80406118:	1462000a 	bne	v1,v0,80406144 <PongOfDeath+0x7b4>
8040611c:	00000000 	nop
80406120:	8fc2005c 	lw	v0,92(s8)
80406124:	8c430000 	lw	v1,0(v0)
80406128:	8fc2004c 	lw	v0,76(s8)
8040612c:	8c420000 	lw	v0,0(v0)
80406130:	00621823 	subu	v1,v1,v0
80406134:	8fc2005c 	lw	v0,92(s8)
80406138:	ac430000 	sw	v1,0(v0)
8040613c:	0810186d 	j	804061b4 <PongOfDeath+0x824>
80406140:	00000000 	nop
80406144:	8fc20054 	lw	v0,84(s8)
80406148:	8c430000 	lw	v1,0(v0)
8040614c:	24020002 	li	v0,2
80406150:	1462000b 	bne	v1,v0,80406180 <PongOfDeath+0x7f0>
80406154:	00000000 	nop
80406158:	8fc2005c 	lw	v0,92(s8)
8040615c:	8c430000 	lw	v1,0(v0)
80406160:	8fc2004c 	lw	v0,76(s8)
80406164:	8c420000 	lw	v0,0(v0)
80406168:	00621021 	addu	v0,v1,v0
8040616c:	24430002 	addiu	v1,v0,2
80406170:	8fc2005c 	lw	v0,92(s8)
80406174:	ac430000 	sw	v1,0(v0)
80406178:	0810186d 	j	804061b4 <PongOfDeath+0x824>
8040617c:	00000000 	nop
80406180:	8fc20054 	lw	v0,84(s8)
80406184:	8c430000 	lw	v1,0(v0)
80406188:	24020003 	li	v0,3
8040618c:	14620009 	bne	v1,v0,804061b4 <PongOfDeath+0x824>
80406190:	00000000 	nop
80406194:	8fc2005c 	lw	v0,92(s8)
80406198:	8c430000 	lw	v1,0(v0)
8040619c:	8fc2004c 	lw	v0,76(s8)
804061a0:	8c420000 	lw	v0,0(v0)
804061a4:	00621023 	subu	v0,v1,v0
804061a8:	2443fffe 	addiu	v1,v0,-2
804061ac:	8fc2005c 	lw	v0,92(s8)
804061b0:	ac430000 	sw	v1,0(v0)
804061b4:	8fc20050 	lw	v0,80(s8)
804061b8:	8c420000 	lw	v0,0(v0)
804061bc:	1440000a 	bnez	v0,804061e8 <PongOfDeath+0x858>
804061c0:	00000000 	nop
804061c4:	8fc20058 	lw	v0,88(s8)
804061c8:	8c430000 	lw	v1,0(v0)
804061cc:	8fc2004c 	lw	v0,76(s8)
804061d0:	8c420000 	lw	v0,0(v0)
804061d4:	00621821 	addu	v1,v1,v0
804061d8:	8fc20058 	lw	v0,88(s8)
804061dc:	ac430000 	sw	v1,0(v0)
804061e0:	081018a4 	j	80406290 <PongOfDeath+0x900>
804061e4:	00000000 	nop
804061e8:	8fc20050 	lw	v0,80(s8)
804061ec:	8c430000 	lw	v1,0(v0)
804061f0:	24020001 	li	v0,1
804061f4:	1462000a 	bne	v1,v0,80406220 <PongOfDeath+0x890>
804061f8:	00000000 	nop
804061fc:	8fc20058 	lw	v0,88(s8)
80406200:	8c430000 	lw	v1,0(v0)
80406204:	8fc2004c 	lw	v0,76(s8)
80406208:	8c420000 	lw	v0,0(v0)
8040620c:	00621823 	subu	v1,v1,v0
80406210:	8fc20058 	lw	v0,88(s8)
80406214:	ac430000 	sw	v1,0(v0)
80406218:	081018a4 	j	80406290 <PongOfDeath+0x900>
8040621c:	00000000 	nop
80406220:	8fc20050 	lw	v0,80(s8)
80406224:	8c430000 	lw	v1,0(v0)
80406228:	24020002 	li	v0,2
8040622c:	1462000b 	bne	v1,v0,8040625c <PongOfDeath+0x8cc>
80406230:	00000000 	nop
80406234:	8fc20058 	lw	v0,88(s8)
80406238:	8c430000 	lw	v1,0(v0)
8040623c:	8fc2004c 	lw	v0,76(s8)
80406240:	8c420000 	lw	v0,0(v0)
80406244:	00621021 	addu	v0,v1,v0
80406248:	24430002 	addiu	v1,v0,2
8040624c:	8fc20058 	lw	v0,88(s8)
80406250:	ac430000 	sw	v1,0(v0)
80406254:	081018a4 	j	80406290 <PongOfDeath+0x900>
80406258:	00000000 	nop
8040625c:	8fc20050 	lw	v0,80(s8)
80406260:	8c430000 	lw	v1,0(v0)
80406264:	24020003 	li	v0,3
80406268:	14620009 	bne	v1,v0,80406290 <PongOfDeath+0x900>
8040626c:	00000000 	nop
80406270:	8fc20058 	lw	v0,88(s8)
80406274:	8c430000 	lw	v1,0(v0)
80406278:	8fc2004c 	lw	v0,76(s8)
8040627c:	8c420000 	lw	v0,0(v0)
80406280:	00621023 	subu	v0,v1,v0
80406284:	2443fffe 	addiu	v1,v0,-2
80406288:	8fc20058 	lw	v0,88(s8)
8040628c:	ac430000 	sw	v1,0(v0)
80406290:	8fc20028 	lw	v0,40(s8)
80406294:	8c430000 	lw	v1,0(v0)
80406298:	24020001 	li	v0,1
8040629c:	14620024 	bne	v1,v0,80406330 <PongOfDeath+0x9a0>
804062a0:	00000000 	nop
804062a4:	8fc20054 	lw	v0,84(s8)
804062a8:	8c420000 	lw	v0,0(v0)
804062ac:	10400006 	beqz	v0,804062c8 <PongOfDeath+0x938>
804062b0:	00000000 	nop
804062b4:	8fc20054 	lw	v0,84(s8)
804062b8:	8c430000 	lw	v1,0(v0)
804062bc:	24020002 	li	v0,2
804062c0:	14620006 	bne	v1,v0,804062dc <PongOfDeath+0x94c>
804062c4:	00000000 	nop
804062c8:	8fc2005c 	lw	v0,92(s8)
804062cc:	8c420000 	lw	v0,0(v0)
804062d0:	24430004 	addiu	v1,v0,4
804062d4:	8fc2005c 	lw	v0,92(s8)
804062d8:	ac430000 	sw	v1,0(v0)
804062dc:	8fc20054 	lw	v0,84(s8)
804062e0:	8c430000 	lw	v1,0(v0)
804062e4:	24020001 	li	v0,1
804062e8:	10620006 	beq	v1,v0,80406304 <PongOfDeath+0x974>
804062ec:	00000000 	nop
804062f0:	8fc20054 	lw	v0,84(s8)
804062f4:	8c430000 	lw	v1,0(v0)
804062f8:	24020003 	li	v0,3
804062fc:	14620006 	bne	v1,v0,80406318 <PongOfDeath+0x988>
80406300:	00000000 	nop
80406304:	8fc2005c 	lw	v0,92(s8)
80406308:	8c420000 	lw	v0,0(v0)
8040630c:	2443fffc 	addiu	v1,v0,-4
80406310:	8fc2005c 	lw	v0,92(s8)
80406314:	ac430000 	sw	v1,0(v0)
80406318:	24040096 	li	a0,150
8040631c:	24050064 	li	a1,100
80406320:	3c028040 	lui	v0,0x8040
80406324:	244677d0 	addiu	a2,v0,30672
80406328:	0c0b59b0 	jal	802d66c0 <PrintXY>
8040632c:	00000000 	nop
80406330:	8fc2005c 	lw	v0,92(s8)
80406334:	8c420000 	lw	v0,0(v0)
80406338:	2c420106 	sltiu	v0,v0,262
8040633c:	144000f2 	bnez	v0,80406708 <PongOfDeath+0xd78>
80406340:	00000000 	nop
80406344:	8fc20064 	lw	v0,100(s8)
80406348:	8c420000 	lw	v0,0(v0)
8040634c:	24430014 	addiu	v1,v0,20
80406350:	8fc20058 	lw	v0,88(s8)
80406354:	8c420000 	lw	v0,0(v0)
80406358:	2442fff8 	addiu	v0,v0,-8
8040635c:	0062102b 	sltu	v0,v1,v0
80406360:	144000d7 	bnez	v0,804066c0 <PongOfDeath+0xd30>
80406364:	00000000 	nop
80406368:	8fc20064 	lw	v0,100(s8)
8040636c:	8c420000 	lw	v0,0(v0)
80406370:	2443fff8 	addiu	v1,v0,-8
80406374:	8fc20058 	lw	v0,88(s8)
80406378:	8c420000 	lw	v0,0(v0)
8040637c:	24420008 	addiu	v0,v0,8
80406380:	0043102b 	sltu	v0,v0,v1
80406384:	144000ce 	bnez	v0,804066c0 <PongOfDeath+0xd30>
80406388:	00000000 	nop
8040638c:	8fc2006c 	lw	v0,108(s8)
80406390:	8c440000 	lw	a0,0(v0)
80406394:	3c02446f 	lui	v0,0x446f
80406398:	34428657 	ori	v0,v0,0x8657
8040639c:	00820019 	multu	a0,v0
804063a0:	00001810 	mfhi	v1
804063a4:	00831023 	subu	v0,a0,v1
804063a8:	00021042 	srl	v0,v0,0x1
804063ac:	00621021 	addu	v0,v1,v0
804063b0:	00021182 	srl	v0,v0,0x6
804063b4:	afc200a4 	sw	v0,164(s8)
804063b8:	8fc200a4 	lw	v0,164(s8)
804063bc:	00021080 	sll	v0,v0,0x2
804063c0:	00021880 	sll	v1,v0,0x2
804063c4:	00431021 	addu	v0,v0,v1
804063c8:	00021880 	sll	v1,v0,0x2
804063cc:	00431021 	addu	v0,v0,v1
804063d0:	8fc300a4 	lw	v1,164(s8)
804063d4:	00431021 	addu	v0,v0,v1
804063d8:	00821023 	subu	v0,a0,v0
804063dc:	afc200a4 	sw	v0,164(s8)
804063e0:	8fc400a4 	lw	a0,164(s8)
804063e4:	24820001 	addiu	v0,a0,1
804063e8:	2c420029 	sltiu	v0,v0,41
804063ec:	14400016 	bnez	v0,80406448 <PongOfDeath+0xab8>
804063f0:	00000000 	nop
804063f4:	8fc20054 	lw	v0,84(s8)
804063f8:	8c420000 	lw	v0,0(v0)
804063fc:	14400006 	bnez	v0,80406418 <PongOfDeath+0xa88>
80406400:	00000000 	nop
80406404:	8fc30054 	lw	v1,84(s8)
80406408:	24020001 	li	v0,1
8040640c:	ac620000 	sw	v0,0(v1)
80406410:	0810190e 	j	80406438 <PongOfDeath+0xaa8>
80406414:	00000000 	nop
80406418:	8fc20054 	lw	v0,84(s8)
8040641c:	8c430000 	lw	v1,0(v0)
80406420:	24020002 	li	v0,2
80406424:	14620004 	bne	v1,v0,80406438 <PongOfDeath+0xaa8>
80406428:	00000000 	nop
8040642c:	8fc30054 	lw	v1,84(s8)
80406430:	24020001 	li	v0,1
80406434:	ac620000 	sw	v0,0(v1)
80406438:	8fc20028 	lw	v0,40(s8)
8040643c:	ac400000 	sw	zero,0(v0)
80406440:	0810193f 	j	804064fc <PongOfDeath+0xb6c>
80406444:	00000000 	nop
80406448:	8fc2006c 	lw	v0,108(s8)
8040644c:	8c440000 	lw	a0,0(v0)
80406450:	3c02446f 	lui	v0,0x446f
80406454:	34428657 	ori	v0,v0,0x8657
80406458:	00820019 	multu	a0,v0
8040645c:	00001810 	mfhi	v1
80406460:	00831023 	subu	v0,a0,v1
80406464:	00021042 	srl	v0,v0,0x1
80406468:	00621021 	addu	v0,v1,v0
8040646c:	00021182 	srl	v0,v0,0x6
80406470:	afc200a0 	sw	v0,160(s8)
80406474:	8fc200a0 	lw	v0,160(s8)
80406478:	00021080 	sll	v0,v0,0x2
8040647c:	00021880 	sll	v1,v0,0x2
80406480:	00431021 	addu	v0,v0,v1
80406484:	00021880 	sll	v1,v0,0x2
80406488:	00431021 	addu	v0,v0,v1
8040648c:	8fc300a0 	lw	v1,160(s8)
80406490:	00431021 	addu	v0,v0,v1
80406494:	00821023 	subu	v0,a0,v0
80406498:	afc200a0 	sw	v0,160(s8)
8040649c:	8fc400a0 	lw	a0,160(s8)
804064a0:	24820001 	addiu	v0,a0,1
804064a4:	2c420028 	sltiu	v0,v0,40
804064a8:	10400014 	beqz	v0,804064fc <PongOfDeath+0xb6c>
804064ac:	00000000 	nop
804064b0:	8fc20054 	lw	v0,84(s8)
804064b4:	8c420000 	lw	v0,0(v0)
804064b8:	14400006 	bnez	v0,804064d4 <PongOfDeath+0xb44>
804064bc:	00000000 	nop
804064c0:	8fc30054 	lw	v1,84(s8)
804064c4:	24020003 	li	v0,3
804064c8:	ac620000 	sw	v0,0(v1)
804064cc:	0810193d 	j	804064f4 <PongOfDeath+0xb64>
804064d0:	00000000 	nop
804064d4:	8fc20054 	lw	v0,84(s8)
804064d8:	8c430000 	lw	v1,0(v0)
804064dc:	24020002 	li	v0,2
804064e0:	14620004 	bne	v1,v0,804064f4 <PongOfDeath+0xb64>
804064e4:	00000000 	nop
804064e8:	8fc30054 	lw	v1,84(s8)
804064ec:	24020003 	li	v0,3
804064f0:	ac620000 	sw	v0,0(v1)
804064f4:	8fc20028 	lw	v0,40(s8)
804064f8:	ac400000 	sw	zero,0(v0)
804064fc:	8fc2006c 	lw	v0,108(s8)
80406500:	8c440000 	lw	a0,0(v0)
80406504:	3c02446f 	lui	v0,0x446f
80406508:	34428657 	ori	v0,v0,0x8657
8040650c:	00820019 	multu	a0,v0
80406510:	00001810 	mfhi	v1
80406514:	00831023 	subu	v0,a0,v1
80406518:	00021042 	srl	v0,v0,0x1
8040651c:	00621021 	addu	v0,v1,v0
80406520:	00021182 	srl	v0,v0,0x6
80406524:	afc2009c 	sw	v0,156(s8)
80406528:	8fc2009c 	lw	v0,156(s8)
8040652c:	00021080 	sll	v0,v0,0x2
80406530:	00021880 	sll	v1,v0,0x2
80406534:	00431021 	addu	v0,v0,v1
80406538:	00021880 	sll	v1,v0,0x2
8040653c:	00431021 	addu	v0,v0,v1
80406540:	8fc3009c 	lw	v1,156(s8)
80406544:	00431021 	addu	v0,v0,v1
80406548:	00821023 	subu	v0,a0,v0
8040654c:	afc2009c 	sw	v0,156(s8)
80406550:	8fc4009c 	lw	a0,156(s8)
80406554:	24820001 	addiu	v0,a0,1
80406558:	2c420005 	sltiu	v0,v0,5
8040655c:	10400004 	beqz	v0,80406570 <PongOfDeath+0xbe0>
80406560:	00000000 	nop
80406564:	8fc30028 	lw	v1,40(s8)
80406568:	24020001 	li	v0,1
8040656c:	ac620000 	sw	v0,0(v1)
80406570:	8fc20038 	lw	v0,56(s8)
80406574:	8c440000 	lw	a0,0(v0)
80406578:	3c0251eb 	lui	v0,0x51eb
8040657c:	3442851f 	ori	v0,v0,0x851f
80406580:	00820019 	multu	a0,v0
80406584:	00001010 	mfhi	v0
80406588:	00021142 	srl	v0,v0,0x5
8040658c:	afc20098 	sw	v0,152(s8)
80406590:	8fc20098 	lw	v0,152(s8)
80406594:	00021080 	sll	v0,v0,0x2
80406598:	00021880 	sll	v1,v0,0x2
8040659c:	00431021 	addu	v0,v0,v1
804065a0:	00021880 	sll	v1,v0,0x2
804065a4:	00431021 	addu	v0,v0,v1
804065a8:	00821023 	subu	v0,a0,v0
804065ac:	afc20098 	sw	v0,152(s8)
804065b0:	8fc30098 	lw	v1,152(s8)
804065b4:	24620001 	addiu	v0,v1,1
804065b8:	2c42001f 	sltiu	v0,v0,31
804065bc:	14400014 	bnez	v0,80406610 <PongOfDeath+0xc80>
804065c0:	00000000 	nop
804065c4:	8fc20050 	lw	v0,80(s8)
804065c8:	8c430000 	lw	v1,0(v0)
804065cc:	24020002 	li	v0,2
804065d0:	14620005 	bne	v1,v0,804065e8 <PongOfDeath+0xc58>
804065d4:	00000000 	nop
804065d8:	8fc20050 	lw	v0,80(s8)
804065dc:	ac400000 	sw	zero,0(v0)
804065e0:	081019aa 	j	804066a8 <PongOfDeath+0xd18>
804065e4:	00000000 	nop
804065e8:	8fc20050 	lw	v0,80(s8)
804065ec:	8c430000 	lw	v1,0(v0)
804065f0:	24020003 	li	v0,3
804065f4:	1462002c 	bne	v1,v0,804066a8 <PongOfDeath+0xd18>
804065f8:	00000000 	nop
804065fc:	8fc30050 	lw	v1,80(s8)
80406600:	24020001 	li	v0,1
80406604:	ac620000 	sw	v0,0(v1)
80406608:	081019aa 	j	804066a8 <PongOfDeath+0xd18>
8040660c:	00000000 	nop
80406610:	8fc20038 	lw	v0,56(s8)
80406614:	8c440000 	lw	a0,0(v0)
80406618:	3c0251eb 	lui	v0,0x51eb
8040661c:	3442851f 	ori	v0,v0,0x851f
80406620:	00820019 	multu	a0,v0
80406624:	00001010 	mfhi	v0
80406628:	00021142 	srl	v0,v0,0x5
8040662c:	afc20094 	sw	v0,148(s8)
80406630:	8fc20094 	lw	v0,148(s8)
80406634:	00021080 	sll	v0,v0,0x2
80406638:	00021880 	sll	v1,v0,0x2
8040663c:	00431021 	addu	v0,v0,v1
80406640:	00021880 	sll	v1,v0,0x2
80406644:	00431021 	addu	v0,v0,v1
80406648:	00821023 	subu	v0,a0,v0
8040664c:	afc20094 	sw	v0,148(s8)
80406650:	8fc30094 	lw	v1,148(s8)
80406654:	24620001 	addiu	v0,v1,1
80406658:	2c42001e 	sltiu	v0,v0,30
8040665c:	10400012 	beqz	v0,804066a8 <PongOfDeath+0xd18>
80406660:	00000000 	nop
80406664:	8fc20050 	lw	v0,80(s8)
80406668:	8c420000 	lw	v0,0(v0)
8040666c:	14400006 	bnez	v0,80406688 <PongOfDeath+0xcf8>
80406670:	00000000 	nop
80406674:	8fc30050 	lw	v1,80(s8)
80406678:	24020002 	li	v0,2
8040667c:	ac620000 	sw	v0,0(v1)
80406680:	081019aa 	j	804066a8 <PongOfDeath+0xd18>
80406684:	00000000 	nop
80406688:	8fc20050 	lw	v0,80(s8)
8040668c:	8c430000 	lw	v1,0(v0)
80406690:	24020001 	li	v0,1
80406694:	14620004 	bne	v1,v0,804066a8 <PongOfDeath+0xd18>
80406698:	00000000 	nop
8040669c:	8fc30050 	lw	v1,80(s8)
804066a0:	24020003 	li	v0,3
804066a4:	ac620000 	sw	v0,0(v1)
804066a8:	3c024002 	lui	v0,0x4002
804066ac:	34440001 	ori	a0,v0,0x1
804066b0:	0c0b2864 	jal	802ca190 <PlaySound>
804066b4:	00000000 	nop
804066b8:	08101ab3 	j	80406acc <PongOfDeath+0x113c>
804066bc:	00000000 	nop
804066c0:	8fc2005c 	lw	v0,92(s8)
804066c4:	8c420000 	lw	v0,0(v0)
804066c8:	2c42010e 	sltiu	v0,v0,270
804066cc:	144000ff 	bnez	v0,80406acc <PongOfDeath+0x113c>
804066d0:	00000000 	nop
804066d4:	8fc20074 	lw	v0,116(s8)
804066d8:	94420000 	lhu	v0,0(v0)
804066dc:	24420001 	addiu	v0,v0,1
804066e0:	3043ffff 	andi	v1,v0,0xffff
804066e4:	8fc20074 	lw	v0,116(s8)
804066e8:	a4430000 	sh	v1,0(v0)
804066ec:	8fc30054 	lw	v1,84(s8)
804066f0:	24020001 	li	v0,1
804066f4:	ac620000 	sw	v0,0(v1)
804066f8:	8fc20060 	lw	v0,96(s8)
804066fc:	ac400000 	sw	zero,0(v0)
80406700:	08101ab3 	j	80406acc <PongOfDeath+0x113c>
80406704:	00000000 	nop
80406708:	8fc2005c 	lw	v0,92(s8)
8040670c:	8c420000 	lw	v0,0(v0)
80406710:	2c420022 	sltiu	v0,v0,34
80406714:	104000ed 	beqz	v0,80406acc <PongOfDeath+0x113c>
80406718:	00000000 	nop
8040671c:	8fc20068 	lw	v0,104(s8)
80406720:	8c420000 	lw	v0,0(v0)
80406724:	24430014 	addiu	v1,v0,20
80406728:	8fc20058 	lw	v0,88(s8)
8040672c:	8c420000 	lw	v0,0(v0)
80406730:	2442fff8 	addiu	v0,v0,-8
80406734:	0062102b 	sltu	v0,v1,v0
80406738:	144000d7 	bnez	v0,80406a98 <PongOfDeath+0x1108>
8040673c:	00000000 	nop
80406740:	8fc20068 	lw	v0,104(s8)
80406744:	8c420000 	lw	v0,0(v0)
80406748:	2443fff8 	addiu	v1,v0,-8
8040674c:	8fc20058 	lw	v0,88(s8)
80406750:	8c420000 	lw	v0,0(v0)
80406754:	24420008 	addiu	v0,v0,8
80406758:	0043102b 	sltu	v0,v0,v1
8040675c:	144000ce 	bnez	v0,80406a98 <PongOfDeath+0x1108>
80406760:	00000000 	nop
80406764:	8fc2006c 	lw	v0,108(s8)
80406768:	8c440000 	lw	a0,0(v0)
8040676c:	3c02446f 	lui	v0,0x446f
80406770:	34428657 	ori	v0,v0,0x8657
80406774:	00820019 	multu	a0,v0
80406778:	00001810 	mfhi	v1
8040677c:	00831023 	subu	v0,a0,v1
80406780:	00021042 	srl	v0,v0,0x1
80406784:	00621021 	addu	v0,v1,v0
80406788:	00021182 	srl	v0,v0,0x6
8040678c:	afc20090 	sw	v0,144(s8)
80406790:	8fc20090 	lw	v0,144(s8)
80406794:	00021080 	sll	v0,v0,0x2
80406798:	00021880 	sll	v1,v0,0x2
8040679c:	00431021 	addu	v0,v0,v1
804067a0:	00021880 	sll	v1,v0,0x2
804067a4:	00431021 	addu	v0,v0,v1
804067a8:	8fc30090 	lw	v1,144(s8)
804067ac:	00431021 	addu	v0,v0,v1
804067b0:	00821023 	subu	v0,a0,v0
804067b4:	afc20090 	sw	v0,144(s8)
804067b8:	8fc40090 	lw	a0,144(s8)
804067bc:	24820001 	addiu	v0,a0,1
804067c0:	2c420029 	sltiu	v0,v0,41
804067c4:	14400015 	bnez	v0,8040681c <PongOfDeath+0xe8c>
804067c8:	00000000 	nop
804067cc:	8fc20054 	lw	v0,84(s8)
804067d0:	8c430000 	lw	v1,0(v0)
804067d4:	24020001 	li	v0,1
804067d8:	14620005 	bne	v1,v0,804067f0 <PongOfDeath+0xe60>
804067dc:	00000000 	nop
804067e0:	8fc20054 	lw	v0,84(s8)
804067e4:	ac400000 	sw	zero,0(v0)
804067e8:	08101a03 	j	8040680c <PongOfDeath+0xe7c>
804067ec:	00000000 	nop
804067f0:	8fc20054 	lw	v0,84(s8)
804067f4:	8c430000 	lw	v1,0(v0)
804067f8:	24020003 	li	v0,3
804067fc:	14620003 	bne	v1,v0,8040680c <PongOfDeath+0xe7c>
80406800:	00000000 	nop
80406804:	8fc20054 	lw	v0,84(s8)
80406808:	ac400000 	sw	zero,0(v0)
8040680c:	8fc20028 	lw	v0,40(s8)
80406810:	ac400000 	sw	zero,0(v0)
80406814:	08101a35 	j	804068d4 <PongOfDeath+0xf44>
80406818:	00000000 	nop
8040681c:	8fc2006c 	lw	v0,108(s8)
80406820:	8c440000 	lw	a0,0(v0)
80406824:	3c02446f 	lui	v0,0x446f
80406828:	34428657 	ori	v0,v0,0x8657
8040682c:	00820019 	multu	a0,v0
80406830:	00001810 	mfhi	v1
80406834:	00831023 	subu	v0,a0,v1
80406838:	00021042 	srl	v0,v0,0x1
8040683c:	00621021 	addu	v0,v1,v0
80406840:	00021182 	srl	v0,v0,0x6
80406844:	afc2008c 	sw	v0,140(s8)
80406848:	8fc2008c 	lw	v0,140(s8)
8040684c:	00021080 	sll	v0,v0,0x2
80406850:	00021880 	sll	v1,v0,0x2
80406854:	00431021 	addu	v0,v0,v1
80406858:	00021880 	sll	v1,v0,0x2
8040685c:	00431021 	addu	v0,v0,v1
80406860:	8fc3008c 	lw	v1,140(s8)
80406864:	00431021 	addu	v0,v0,v1
80406868:	00821023 	subu	v0,a0,v0
8040686c:	afc2008c 	sw	v0,140(s8)
80406870:	8fc4008c 	lw	a0,140(s8)
80406874:	24820001 	addiu	v0,a0,1
80406878:	2c420028 	sltiu	v0,v0,40
8040687c:	10400015 	beqz	v0,804068d4 <PongOfDeath+0xf44>
80406880:	00000000 	nop
80406884:	8fc20054 	lw	v0,84(s8)
80406888:	8c430000 	lw	v1,0(v0)
8040688c:	24020001 	li	v0,1
80406890:	14620006 	bne	v1,v0,804068ac <PongOfDeath+0xf1c>
80406894:	00000000 	nop
80406898:	8fc30054 	lw	v1,84(s8)
8040689c:	24020002 	li	v0,2
804068a0:	ac620000 	sw	v0,0(v1)
804068a4:	08101a33 	j	804068cc <PongOfDeath+0xf3c>
804068a8:	00000000 	nop
804068ac:	8fc20054 	lw	v0,84(s8)
804068b0:	8c430000 	lw	v1,0(v0)
804068b4:	24020003 	li	v0,3
804068b8:	14620004 	bne	v1,v0,804068cc <PongOfDeath+0xf3c>
804068bc:	00000000 	nop
804068c0:	8fc30054 	lw	v1,84(s8)
804068c4:	24020002 	li	v0,2
804068c8:	ac620000 	sw	v0,0(v1)
804068cc:	8fc20028 	lw	v0,40(s8)
804068d0:	ac400000 	sw	zero,0(v0)
804068d4:	8fc2006c 	lw	v0,108(s8)
804068d8:	8c440000 	lw	a0,0(v0)
804068dc:	3c02446f 	lui	v0,0x446f
804068e0:	34428657 	ori	v0,v0,0x8657
804068e4:	00820019 	multu	a0,v0
804068e8:	00001810 	mfhi	v1
804068ec:	00831023 	subu	v0,a0,v1
804068f0:	00021042 	srl	v0,v0,0x1
804068f4:	00621021 	addu	v0,v1,v0
804068f8:	00021182 	srl	v0,v0,0x6
804068fc:	afc20088 	sw	v0,136(s8)
80406900:	8fc20088 	lw	v0,136(s8)
80406904:	00021080 	sll	v0,v0,0x2
80406908:	00021880 	sll	v1,v0,0x2
8040690c:	00431021 	addu	v0,v0,v1
80406910:	00021880 	sll	v1,v0,0x2
80406914:	00431021 	addu	v0,v0,v1
80406918:	8fc30088 	lw	v1,136(s8)
8040691c:	00431021 	addu	v0,v0,v1
80406920:	00821023 	subu	v0,a0,v0
80406924:	afc20088 	sw	v0,136(s8)
80406928:	8fc40088 	lw	a0,136(s8)
8040692c:	24820001 	addiu	v0,a0,1
80406930:	2c420004 	sltiu	v0,v0,4
80406934:	10400004 	beqz	v0,80406948 <PongOfDeath+0xfb8>
80406938:	00000000 	nop
8040693c:	8fc30028 	lw	v1,40(s8)
80406940:	24020001 	li	v0,1
80406944:	ac620000 	sw	v0,0(v1)
80406948:	8fc20038 	lw	v0,56(s8)
8040694c:	8c440000 	lw	a0,0(v0)
80406950:	3c0251eb 	lui	v0,0x51eb
80406954:	3442851f 	ori	v0,v0,0x851f
80406958:	00820019 	multu	a0,v0
8040695c:	00001010 	mfhi	v0
80406960:	00021142 	srl	v0,v0,0x5
80406964:	afc20084 	sw	v0,132(s8)
80406968:	8fc20084 	lw	v0,132(s8)
8040696c:	00021080 	sll	v0,v0,0x2
80406970:	00021880 	sll	v1,v0,0x2
80406974:	00431021 	addu	v0,v0,v1
80406978:	00021880 	sll	v1,v0,0x2
8040697c:	00431021 	addu	v0,v0,v1
80406980:	00821023 	subu	v0,a0,v0
80406984:	afc20084 	sw	v0,132(s8)
80406988:	8fc30084 	lw	v1,132(s8)
8040698c:	24620001 	addiu	v0,v1,1
80406990:	2c42001f 	sltiu	v0,v0,31
80406994:	14400014 	bnez	v0,804069e8 <PongOfDeath+0x1058>
80406998:	00000000 	nop
8040699c:	8fc20050 	lw	v0,80(s8)
804069a0:	8c430000 	lw	v1,0(v0)
804069a4:	24020002 	li	v0,2
804069a8:	14620005 	bne	v1,v0,804069c0 <PongOfDeath+0x1030>
804069ac:	00000000 	nop
804069b0:	8fc20050 	lw	v0,80(s8)
804069b4:	ac400000 	sw	zero,0(v0)
804069b8:	08101aa0 	j	80406a80 <PongOfDeath+0x10f0>
804069bc:	00000000 	nop
804069c0:	8fc20050 	lw	v0,80(s8)
804069c4:	8c430000 	lw	v1,0(v0)
804069c8:	24020003 	li	v0,3
804069cc:	1462002c 	bne	v1,v0,80406a80 <PongOfDeath+0x10f0>
804069d0:	00000000 	nop
804069d4:	8fc30050 	lw	v1,80(s8)
804069d8:	24020001 	li	v0,1
804069dc:	ac620000 	sw	v0,0(v1)
804069e0:	08101aa0 	j	80406a80 <PongOfDeath+0x10f0>
804069e4:	00000000 	nop
804069e8:	8fc20038 	lw	v0,56(s8)
804069ec:	8c440000 	lw	a0,0(v0)
804069f0:	3c0251eb 	lui	v0,0x51eb
804069f4:	3442851f 	ori	v0,v0,0x851f
804069f8:	00820019 	multu	a0,v0
804069fc:	00001010 	mfhi	v0
80406a00:	00021142 	srl	v0,v0,0x5
80406a04:	afc20080 	sw	v0,128(s8)
80406a08:	8fc20080 	lw	v0,128(s8)
80406a0c:	00021080 	sll	v0,v0,0x2
80406a10:	00021880 	sll	v1,v0,0x2
80406a14:	00431021 	addu	v0,v0,v1
80406a18:	00021880 	sll	v1,v0,0x2
80406a1c:	00431021 	addu	v0,v0,v1
80406a20:	00821023 	subu	v0,a0,v0
80406a24:	afc20080 	sw	v0,128(s8)
80406a28:	8fc30080 	lw	v1,128(s8)
80406a2c:	24620001 	addiu	v0,v1,1
80406a30:	2c42001e 	sltiu	v0,v0,30
80406a34:	10400012 	beqz	v0,80406a80 <PongOfDeath+0x10f0>
80406a38:	00000000 	nop
80406a3c:	8fc20050 	lw	v0,80(s8)
80406a40:	8c420000 	lw	v0,0(v0)
80406a44:	14400006 	bnez	v0,80406a60 <PongOfDeath+0x10d0>
80406a48:	00000000 	nop
80406a4c:	8fc30050 	lw	v1,80(s8)
80406a50:	24020002 	li	v0,2
80406a54:	ac620000 	sw	v0,0(v1)
80406a58:	08101aa0 	j	80406a80 <PongOfDeath+0x10f0>
80406a5c:	00000000 	nop
80406a60:	8fc20050 	lw	v0,80(s8)
80406a64:	8c430000 	lw	v1,0(v0)
80406a68:	24020001 	li	v0,1
80406a6c:	14620004 	bne	v1,v0,80406a80 <PongOfDeath+0x10f0>
80406a70:	00000000 	nop
80406a74:	8fc30050 	lw	v1,80(s8)
80406a78:	24020003 	li	v0,3
80406a7c:	ac620000 	sw	v0,0(v1)
80406a80:	3c024002 	lui	v0,0x4002
80406a84:	34440001 	ori	a0,v0,0x1
80406a88:	0c0b2864 	jal	802ca190 <PlaySound>
80406a8c:	00000000 	nop
80406a90:	08101ab3 	j	80406acc <PongOfDeath+0x113c>
80406a94:	00000000 	nop
80406a98:	8fc2005c 	lw	v0,92(s8)
80406a9c:	8c420000 	lw	v0,0(v0)
80406aa0:	2c42001c 	sltiu	v0,v0,28
80406aa4:	10400009 	beqz	v0,80406acc <PongOfDeath+0x113c>
80406aa8:	00000000 	nop
80406aac:	8fc20070 	lw	v0,112(s8)
80406ab0:	94420000 	lhu	v0,0(v0)
80406ab4:	24420001 	addiu	v0,v0,1
80406ab8:	3043ffff 	andi	v1,v0,0xffff
80406abc:	8fc20070 	lw	v0,112(s8)
80406ac0:	a4430000 	sh	v1,0(v0)
80406ac4:	8fc20060 	lw	v0,96(s8)
80406ac8:	ac400000 	sw	zero,0(v0)
80406acc:	8fc20058 	lw	v0,88(s8)
80406ad0:	8c420000 	lw	v0,0(v0)
80406ad4:	2c4200d7 	sltiu	v0,v0,215
80406ad8:	14400014 	bnez	v0,80406b2c <PongOfDeath+0x119c>
80406adc:	00000000 	nop
80406ae0:	8fc20050 	lw	v0,80(s8)
80406ae4:	8c420000 	lw	v0,0(v0)
80406ae8:	14400006 	bnez	v0,80406b04 <PongOfDeath+0x1174>
80406aec:	00000000 	nop
80406af0:	8fc30050 	lw	v1,80(s8)
80406af4:	24020001 	li	v0,1
80406af8:	ac620000 	sw	v0,0(v1)
80406afc:	08101ae1 	j	80406b84 <PongOfDeath+0x11f4>
80406b00:	00000000 	nop
80406b04:	8fc20050 	lw	v0,80(s8)
80406b08:	8c430000 	lw	v1,0(v0)
80406b0c:	24020002 	li	v0,2
80406b10:	1462001c 	bne	v1,v0,80406b84 <PongOfDeath+0x11f4>
80406b14:	00000000 	nop
80406b18:	8fc30050 	lw	v1,80(s8)
80406b1c:	24020003 	li	v0,3
80406b20:	ac620000 	sw	v0,0(v1)
80406b24:	08101ae1 	j	80406b84 <PongOfDeath+0x11f4>
80406b28:	00000000 	nop
80406b2c:	8fc20058 	lw	v0,88(s8)
80406b30:	8c420000 	lw	v0,0(v0)
80406b34:	2c420009 	sltiu	v0,v0,9
80406b38:	10400012 	beqz	v0,80406b84 <PongOfDeath+0x11f4>
80406b3c:	00000000 	nop
80406b40:	8fc20050 	lw	v0,80(s8)
80406b44:	8c430000 	lw	v1,0(v0)
80406b48:	24020001 	li	v0,1
80406b4c:	14620005 	bne	v1,v0,80406b64 <PongOfDeath+0x11d4>
80406b50:	00000000 	nop
80406b54:	8fc20050 	lw	v0,80(s8)
80406b58:	ac400000 	sw	zero,0(v0)
80406b5c:	08101ae1 	j	80406b84 <PongOfDeath+0x11f4>
80406b60:	00000000 	nop
80406b64:	8fc20050 	lw	v0,80(s8)
80406b68:	8c430000 	lw	v1,0(v0)
80406b6c:	24020003 	li	v0,3
80406b70:	14620004 	bne	v1,v0,80406b84 <PongOfDeath+0x11f4>
80406b74:	00000000 	nop
80406b78:	8fc30050 	lw	v1,80(s8)
80406b7c:	24020002 	li	v0,2
80406b80:	ac620000 	sw	v0,0(v1)
80406b84:	8f820004 	lw	v0,4(gp)
80406b88:	8c42009c 	lw	v0,156(v0)
80406b8c:	94420010 	lhu	v0,16(v0)
80406b90:	30420800 	andi	v0,v0,0x800
80406b94:	1040000e 	beqz	v0,80406bd0 <PongOfDeath+0x1240>
80406b98:	00000000 	nop
80406b9c:	8fc20068 	lw	v0,104(s8)
80406ba0:	8c420000 	lw	v0,0(v0)
80406ba4:	2c4200c8 	sltiu	v0,v0,200
80406ba8:	10400009 	beqz	v0,80406bd0 <PongOfDeath+0x1240>
80406bac:	00000000 	nop
80406bb0:	8fc20068 	lw	v0,104(s8)
80406bb4:	8c430000 	lw	v1,0(v0)
80406bb8:	8fc2003c 	lw	v0,60(s8)
80406bbc:	90420000 	lbu	v0,0(v0)
80406bc0:	00621021 	addu	v0,v1,v0
80406bc4:	24430003 	addiu	v1,v0,3
80406bc8:	8fc20068 	lw	v0,104(s8)
80406bcc:	ac430000 	sw	v1,0(v0)
80406bd0:	8f820004 	lw	v0,4(gp)
80406bd4:	8c42009c 	lw	v0,156(v0)
80406bd8:	94420010 	lhu	v0,16(v0)
80406bdc:	30420400 	andi	v0,v0,0x400
80406be0:	1040000e 	beqz	v0,80406c1c <PongOfDeath+0x128c>
80406be4:	00000000 	nop
80406be8:	8fc20068 	lw	v0,104(s8)
80406bec:	8c420000 	lw	v0,0(v0)
80406bf0:	2c42000b 	sltiu	v0,v0,11
80406bf4:	14400009 	bnez	v0,80406c1c <PongOfDeath+0x128c>
80406bf8:	00000000 	nop
80406bfc:	8fc20068 	lw	v0,104(s8)
80406c00:	8c430000 	lw	v1,0(v0)
80406c04:	8fc2003c 	lw	v0,60(s8)
80406c08:	90420000 	lbu	v0,0(v0)
80406c0c:	00621023 	subu	v0,v1,v0
80406c10:	2443fffd 	addiu	v1,v0,-3
80406c14:	8fc20068 	lw	v0,104(s8)
80406c18:	ac430000 	sw	v1,0(v0)
80406c1c:	8fc2005c 	lw	v0,92(s8)
80406c20:	8c430000 	lw	v1,0(v0)
80406c24:	8fc20040 	lw	v0,64(s8)
80406c28:	90420000 	lbu	v0,0(v0)
80406c2c:	000210c0 	sll	v0,v0,0x3
80406c30:	00021023 	negu	v0,v0
80406c34:	2442008c 	addiu	v0,v0,140
80406c38:	0062102b 	sltu	v0,v1,v0
80406c3c:	144000d6 	bnez	v0,80406f98 <PongOfDeath+0x1608>
80406c40:	00000000 	nop
80406c44:	8fc20050 	lw	v0,80(s8)
80406c48:	8c420000 	lw	v0,0(v0)
80406c4c:	10400006 	beqz	v0,80406c68 <PongOfDeath+0x12d8>
80406c50:	00000000 	nop
80406c54:	8fc20050 	lw	v0,80(s8)
80406c58:	8c430000 	lw	v1,0(v0)
80406c5c:	24020002 	li	v0,2
80406c60:	14620037 	bne	v1,v0,80406d40 <PongOfDeath+0x13b0>
80406c64:	00000000 	nop
80406c68:	8fc20064 	lw	v0,100(s8)
80406c6c:	8c420000 	lw	v0,0(v0)
80406c70:	2c4200c8 	sltiu	v0,v0,200
80406c74:	10400008 	beqz	v0,80406c98 <PongOfDeath+0x1308>
80406c78:	00000000 	nop
80406c7c:	8fc20064 	lw	v0,100(s8)
80406c80:	8c430000 	lw	v1,0(v0)
80406c84:	8fc2004c 	lw	v0,76(s8)
80406c88:	8c420000 	lw	v0,0(v0)
80406c8c:	00621821 	addu	v1,v1,v0
80406c90:	8fc20064 	lw	v0,100(s8)
80406c94:	ac430000 	sw	v1,0(v0)
80406c98:	8fc2005c 	lw	v0,92(s8)
80406c9c:	8c430000 	lw	v1,0(v0)
80406ca0:	8fc20040 	lw	v0,64(s8)
80406ca4:	90420000 	lbu	v0,0(v0)
80406ca8:	00021040 	sll	v0,v0,0x1
80406cac:	00021023 	negu	v0,v0
80406cb0:	244200d7 	addiu	v0,v0,215
80406cb4:	0043102b 	sltu	v0,v0,v1
80406cb8:	1040005f 	beqz	v0,80406e38 <PongOfDeath+0x14a8>
80406cbc:	00000000 	nop
80406cc0:	8fc20064 	lw	v0,100(s8)
80406cc4:	8c430000 	lw	v1,0(v0)
80406cc8:	8fc20058 	lw	v0,88(s8)
80406ccc:	8c420000 	lw	v0,0(v0)
80406cd0:	0043102b 	sltu	v0,v0,v1
80406cd4:	10400058 	beqz	v0,80406e38 <PongOfDeath+0x14a8>
80406cd8:	00000000 	nop
80406cdc:	8fc20064 	lw	v0,100(s8)
80406ce0:	8c420000 	lw	v0,0(v0)
80406ce4:	2c42000b 	sltiu	v0,v0,11
80406ce8:	14400053 	bnez	v0,80406e38 <PongOfDeath+0x14a8>
80406cec:	00000000 	nop
80406cf0:	8fc20054 	lw	v0,84(s8)
80406cf4:	8c430000 	lw	v1,0(v0)
80406cf8:	24020001 	li	v0,1
80406cfc:	1062004e 	beq	v1,v0,80406e38 <PongOfDeath+0x14a8>
80406d00:	00000000 	nop
80406d04:	8fc20054 	lw	v0,84(s8)
80406d08:	8c430000 	lw	v1,0(v0)
80406d0c:	24020003 	li	v0,3
80406d10:	10620049 	beq	v1,v0,80406e38 <PongOfDeath+0x14a8>
80406d14:	00000000 	nop
80406d18:	8fc20064 	lw	v0,100(s8)
80406d1c:	8c430000 	lw	v1,0(v0)
80406d20:	8fc2004c 	lw	v0,76(s8)
80406d24:	8c420000 	lw	v0,0(v0)
80406d28:	00021040 	sll	v0,v0,0x1
80406d2c:	00621823 	subu	v1,v1,v0
80406d30:	8fc20064 	lw	v0,100(s8)
80406d34:	ac430000 	sw	v1,0(v0)
80406d38:	08101b8e 	j	80406e38 <PongOfDeath+0x14a8>
80406d3c:	00000000 	nop
80406d40:	8fc20050 	lw	v0,80(s8)
80406d44:	8c430000 	lw	v1,0(v0)
80406d48:	24020001 	li	v0,1
80406d4c:	10620006 	beq	v1,v0,80406d68 <PongOfDeath+0x13d8>
80406d50:	00000000 	nop
80406d54:	8fc20050 	lw	v0,80(s8)
80406d58:	8c430000 	lw	v1,0(v0)
80406d5c:	24020003 	li	v0,3
80406d60:	14620035 	bne	v1,v0,80406e38 <PongOfDeath+0x14a8>
80406d64:	00000000 	nop
80406d68:	8fc20064 	lw	v0,100(s8)
80406d6c:	8c420000 	lw	v0,0(v0)
80406d70:	2c42000b 	sltiu	v0,v0,11
80406d74:	14400008 	bnez	v0,80406d98 <PongOfDeath+0x1408>
80406d78:	00000000 	nop
80406d7c:	8fc20064 	lw	v0,100(s8)
80406d80:	8c430000 	lw	v1,0(v0)
80406d84:	8fc2004c 	lw	v0,76(s8)
80406d88:	8c420000 	lw	v0,0(v0)
80406d8c:	00621823 	subu	v1,v1,v0
80406d90:	8fc20064 	lw	v0,100(s8)
80406d94:	ac430000 	sw	v1,0(v0)
80406d98:	8fc2005c 	lw	v0,92(s8)
80406d9c:	8c430000 	lw	v1,0(v0)
80406da0:	8fc20040 	lw	v0,64(s8)
80406da4:	90420000 	lbu	v0,0(v0)
80406da8:	00021040 	sll	v0,v0,0x1
80406dac:	00021023 	negu	v0,v0
80406db0:	244200d7 	addiu	v0,v0,215
80406db4:	0043102b 	sltu	v0,v0,v1
80406db8:	1040001f 	beqz	v0,80406e38 <PongOfDeath+0x14a8>
80406dbc:	00000000 	nop
80406dc0:	8fc20064 	lw	v0,100(s8)
80406dc4:	8c430000 	lw	v1,0(v0)
80406dc8:	8fc20058 	lw	v0,88(s8)
80406dcc:	8c420000 	lw	v0,0(v0)
80406dd0:	0062102b 	sltu	v0,v1,v0
80406dd4:	10400018 	beqz	v0,80406e38 <PongOfDeath+0x14a8>
80406dd8:	00000000 	nop
80406ddc:	8fc20064 	lw	v0,100(s8)
80406de0:	8c420000 	lw	v0,0(v0)
80406de4:	2c4200c8 	sltiu	v0,v0,200
80406de8:	10400013 	beqz	v0,80406e38 <PongOfDeath+0x14a8>
80406dec:	00000000 	nop
80406df0:	8fc20054 	lw	v0,84(s8)
80406df4:	8c430000 	lw	v1,0(v0)
80406df8:	24020001 	li	v0,1
80406dfc:	1062000e 	beq	v1,v0,80406e38 <PongOfDeath+0x14a8>
80406e00:	00000000 	nop
80406e04:	8fc20054 	lw	v0,84(s8)
80406e08:	8c430000 	lw	v1,0(v0)
80406e0c:	24020003 	li	v0,3
80406e10:	10620009 	beq	v1,v0,80406e38 <PongOfDeath+0x14a8>
80406e14:	00000000 	nop
80406e18:	8fc20064 	lw	v0,100(s8)
80406e1c:	8c430000 	lw	v1,0(v0)
80406e20:	8fc2004c 	lw	v0,76(s8)
80406e24:	8c420000 	lw	v0,0(v0)
80406e28:	00021040 	sll	v0,v0,0x1
80406e2c:	00621821 	addu	v1,v1,v0
80406e30:	8fc20064 	lw	v0,100(s8)
80406e34:	ac430000 	sw	v1,0(v0)
80406e38:	8fc20064 	lw	v0,100(s8)
80406e3c:	8c420000 	lw	v0,0(v0)
80406e40:	2c42000a 	sltiu	v0,v0,10
80406e44:	10400004 	beqz	v0,80406e58 <PongOfDeath+0x14c8>
80406e48:	00000000 	nop
80406e4c:	8fc30064 	lw	v1,100(s8)
80406e50:	2402000b 	li	v0,11
80406e54:	ac620000 	sw	v0,0(v1)
80406e58:	8fc20064 	lw	v0,100(s8)
80406e5c:	8c420000 	lw	v0,0(v0)
80406e60:	2c4200c9 	sltiu	v0,v0,201
80406e64:	1440004c 	bnez	v0,80406f98 <PongOfDeath+0x1608>
80406e68:	00000000 	nop
80406e6c:	8fc30064 	lw	v1,100(s8)
80406e70:	240200c7 	li	v0,199
80406e74:	ac620000 	sw	v0,0(v1)
80406e78:	08101be6 	j	80406f98 <PongOfDeath+0x1608>
80406e7c:	00000000 	nop
80406e80:	8fc20044 	lw	v0,68(s8)
80406e84:	90430000 	lbu	v1,0(v0)
80406e88:	24020001 	li	v0,1
80406e8c:	14620042 	bne	v1,v0,80406f98 <PongOfDeath+0x1608>
80406e90:	00000000 	nop
80406e94:	8fc20030 	lw	v0,48(s8)
80406e98:	8c420000 	lw	v0,0(v0)
80406e9c:	24430001 	addiu	v1,v0,1
80406ea0:	8fc20030 	lw	v0,48(s8)
80406ea4:	ac430000 	sw	v1,0(v0)
80406ea8:	8fc20030 	lw	v0,48(s8)
80406eac:	8c420000 	lw	v0,0(v0)
80406eb0:	3042ffff 	andi	v0,v0,0xffff
80406eb4:	24420032 	addiu	v0,v0,50
80406eb8:	3042ffff 	andi	v0,v0,0xffff
80406ebc:	24040096 	li	a0,150
80406ec0:	00402821 	move	a1,v0
80406ec4:	3c028040 	lui	v0,0x8040
80406ec8:	244677e0 	addiu	a2,v0,30688
80406ecc:	0c0b59b0 	jal	802d66c0 <PrintXY>
80406ed0:	00000000 	nop
80406ed4:	8fc20030 	lw	v0,48(s8)
80406ed8:	8c420000 	lw	v0,0(v0)
80406edc:	3042ffff 	andi	v0,v0,0xffff
80406ee0:	2442001e 	addiu	v0,v0,30
80406ee4:	3042ffff 	andi	v0,v0,0xffff
80406ee8:	24040096 	li	a0,150
80406eec:	00402821 	move	a1,v0
80406ef0:	3c028040 	lui	v0,0x8040
80406ef4:	244677f0 	addiu	a2,v0,30704
80406ef8:	0c0b59b0 	jal	802d66c0 <PrintXY>
80406efc:	00000000 	nop
80406f00:	8fc20030 	lw	v0,48(s8)
80406f04:	8c420000 	lw	v0,0(v0)
80406f08:	3042ffff 	andi	v0,v0,0xffff
80406f0c:	2442000a 	addiu	v0,v0,10
80406f10:	3042ffff 	andi	v0,v0,0xffff
80406f14:	24040096 	li	a0,150
80406f18:	00402821 	move	a1,v0
80406f1c:	3c028040 	lui	v0,0x8040
80406f20:	24467800 	addiu	a2,v0,30720
80406f24:	0c0b59b0 	jal	802d66c0 <PrintXY>
80406f28:	00000000 	nop
80406f2c:	8fc20030 	lw	v0,48(s8)
80406f30:	8c420000 	lw	v0,0(v0)
80406f34:	3042ffff 	andi	v0,v0,0xffff
80406f38:	2442000a 	addiu	v0,v0,10
80406f3c:	3042ffff 	andi	v0,v0,0xffff
80406f40:	00402821 	move	a1,v0
80406f44:	8fc20040 	lw	v0,64(s8)
80406f48:	90420000 	lbu	v0,0(v0)
80406f4c:	24420001 	addiu	v0,v0,1
80406f50:	00401821 	move	v1,v0
80406f54:	24040096 	li	a0,150
80406f58:	3c028040 	lui	v0,0x8040
80406f5c:	24467810 	addiu	a2,v0,30736
80406f60:	00603821 	move	a3,v1
80406f64:	0c0b58b6 	jal	802d62d8 <PrintInt>
80406f68:	00000000 	nop
80406f6c:	8fc20030 	lw	v0,48(s8)
80406f70:	8c420000 	lw	v0,0(v0)
80406f74:	2c420097 	sltiu	v0,v0,151
80406f78:	14400007 	bnez	v0,80406f98 <PongOfDeath+0x1608>
80406f7c:	00000000 	nop
80406f80:	8fc20044 	lw	v0,68(s8)
80406f84:	a0400000 	sb	zero,0(v0)
80406f88:	8fc20048 	lw	v0,72(s8)
80406f8c:	a0400000 	sb	zero,0(v0)
80406f90:	8fc20060 	lw	v0,96(s8)
80406f94:	ac400000 	sw	zero,0(v0)
80406f98:	03c0e821 	move	sp,s8
80406f9c:	8fbf00bc 	lw	ra,188(sp)
80406fa0:	8fbe00b8 	lw	s8,184(sp)
80406fa4:	27bd00c0 	addiu	sp,sp,192
80406fa8:	03e00008 	jr	ra
80406fac:	00000000 	nop

80406fb0 <bubble_srt>:
80406fb0:	27bdffe8 	addiu	sp,sp,-24
80406fb4:	afbe0014 	sw	s8,20(sp)
80406fb8:	03a0f021 	move	s8,sp
80406fbc:	afc40018 	sw	a0,24(s8)
80406fc0:	afc5001c 	sw	a1,28(s8)
80406fc4:	afc00008 	sw	zero,8(s8)
80406fc8:	08101c31 	j	804070c4 <bubble_srt+0x114>
80406fcc:	00000000 	nop
80406fd0:	24020001 	li	v0,1
80406fd4:	afc20004 	sw	v0,4(s8)
80406fd8:	08101c27 	j	8040709c <bubble_srt+0xec>
80406fdc:	00000000 	nop
80406fe0:	8fc30004 	lw	v1,4(s8)
80406fe4:	24020001 	li	v0,1
80406fe8:	00431023 	subu	v0,v0,v1
80406fec:	00021080 	sll	v0,v0,0x2
80406ff0:	00021823 	negu	v1,v0
80406ff4:	8fc20018 	lw	v0,24(s8)
80406ff8:	00431021 	addu	v0,v0,v1
80406ffc:	8c440000 	lw	a0,0(v0)
80407000:	8fc20004 	lw	v0,4(s8)
80407004:	00021880 	sll	v1,v0,0x2
80407008:	8fc20018 	lw	v0,24(s8)
8040700c:	00431021 	addu	v0,v0,v1
80407010:	8c420000 	lw	v0,0(v0)
80407014:	0044102a 	slt	v0,v0,a0
80407018:	1040001d 	beqz	v0,80407090 <bubble_srt+0xe0>
8040701c:	00000000 	nop
80407020:	8fc30004 	lw	v1,4(s8)
80407024:	24020001 	li	v0,1
80407028:	00431023 	subu	v0,v0,v1
8040702c:	00021080 	sll	v0,v0,0x2
80407030:	00021823 	negu	v1,v0
80407034:	8fc20018 	lw	v0,24(s8)
80407038:	00431021 	addu	v0,v0,v1
8040703c:	8c420000 	lw	v0,0(v0)
80407040:	afc20000 	sw	v0,0(s8)
80407044:	8fc30004 	lw	v1,4(s8)
80407048:	24020001 	li	v0,1
8040704c:	00431023 	subu	v0,v0,v1
80407050:	00021080 	sll	v0,v0,0x2
80407054:	00021823 	negu	v1,v0
80407058:	8fc20018 	lw	v0,24(s8)
8040705c:	00432021 	addu	a0,v0,v1
80407060:	8fc20004 	lw	v0,4(s8)
80407064:	00021880 	sll	v1,v0,0x2
80407068:	8fc20018 	lw	v0,24(s8)
8040706c:	00431021 	addu	v0,v0,v1
80407070:	8c420000 	lw	v0,0(v0)
80407074:	ac820000 	sw	v0,0(a0)
80407078:	8fc20004 	lw	v0,4(s8)
8040707c:	00021880 	sll	v1,v0,0x2
80407080:	8fc20018 	lw	v0,24(s8)
80407084:	00431821 	addu	v1,v0,v1
80407088:	8fc20000 	lw	v0,0(s8)
8040708c:	ac620000 	sw	v0,0(v1)
80407090:	8fc20004 	lw	v0,4(s8)
80407094:	24420001 	addiu	v0,v0,1
80407098:	afc20004 	sw	v0,4(s8)
8040709c:	8fc3001c 	lw	v1,28(s8)
804070a0:	8fc20008 	lw	v0,8(s8)
804070a4:	00621823 	subu	v1,v1,v0
804070a8:	8fc20004 	lw	v0,4(s8)
804070ac:	0043102a 	slt	v0,v0,v1
804070b0:	1440ffcb 	bnez	v0,80406fe0 <bubble_srt+0x30>
804070b4:	00000000 	nop
804070b8:	8fc20008 	lw	v0,8(s8)
804070bc:	24420001 	addiu	v0,v0,1
804070c0:	afc20008 	sw	v0,8(s8)
804070c4:	8fc20008 	lw	v0,8(s8)
804070c8:	8fc3001c 	lw	v1,28(s8)
804070cc:	0043102a 	slt	v0,v0,v1
804070d0:	1440ffbf 	bnez	v0,80406fd0 <bubble_srt+0x20>
804070d4:	00000000 	nop
804070d8:	03c0e821 	move	sp,s8
804070dc:	8fbe0014 	lw	s8,20(sp)
804070e0:	27bd0018 	addiu	sp,sp,24
804070e4:	03e00008 	jr	ra
804070e8:	00000000 	nop

804070ec <ProcessSelection>:
804070ec:	27bdfff8 	addiu	sp,sp,-8
804070f0:	afbe0004 	sw	s8,4(sp)
804070f4:	03a0f021 	move	s8,sp
804070f8:	afc40008 	sw	a0,8(s8)
804070fc:	afc5000c 	sw	a1,12(s8)
80407100:	afc60010 	sw	a2,16(s8)
80407104:	8f820004 	lw	v0,4(gp)
80407108:	8c42009c 	lw	v0,156(v0)
8040710c:	94420010 	lhu	v0,16(v0)
80407110:	30420800 	andi	v0,v0,0x800
80407114:	1040002b 	beqz	v0,804071c4 <ProcessSelection+0xd8>
80407118:	00000000 	nop
8040711c:	8f820018 	lw	v0,24(gp)
80407120:	8c420000 	lw	v0,0(v0)
80407124:	28420004 	slti	v0,v0,4
80407128:	14400026 	bnez	v0,804071c4 <ProcessSelection+0xd8>
8040712c:	00000000 	nop
80407130:	8fc20010 	lw	v0,16(s8)
80407134:	10400011 	beqz	v0,8040717c <ProcessSelection+0x90>
80407138:	00000000 	nop
8040713c:	8f83001c 	lw	v1,28(gp)
80407140:	8f82001c 	lw	v0,28(gp)
80407144:	8c420000 	lw	v0,0(v0)
80407148:	2442ffff 	addiu	v0,v0,-1
8040714c:	ac620000 	sw	v0,0(v1)
80407150:	8f82001c 	lw	v0,28(gp)
80407154:	8c430000 	lw	v1,0(v0)
80407158:	8fc20008 	lw	v0,8(s8)
8040715c:	0062102a 	slt	v0,v1,v0
80407160:	10400014 	beqz	v0,804071b4 <ProcessSelection+0xc8>
80407164:	00000000 	nop
80407168:	8f83001c 	lw	v1,28(gp)
8040716c:	8fc20008 	lw	v0,8(s8)
80407170:	ac620000 	sw	v0,0(v1)
80407174:	08101c6d 	j	804071b4 <ProcessSelection+0xc8>
80407178:	00000000 	nop
8040717c:	8f83001c 	lw	v1,28(gp)
80407180:	8f82001c 	lw	v0,28(gp)
80407184:	8c420000 	lw	v0,0(v0)
80407188:	24420001 	addiu	v0,v0,1
8040718c:	ac620000 	sw	v0,0(v1)
80407190:	8f82001c 	lw	v0,28(gp)
80407194:	8c430000 	lw	v1,0(v0)
80407198:	8fc2000c 	lw	v0,12(s8)
8040719c:	0043102a 	slt	v0,v0,v1
804071a0:	10400004 	beqz	v0,804071b4 <ProcessSelection+0xc8>
804071a4:	00000000 	nop
804071a8:	8f83001c 	lw	v1,28(gp)
804071ac:	8fc2000c 	lw	v0,12(s8)
804071b0:	ac620000 	sw	v0,0(v1)
804071b4:	8f820018 	lw	v0,24(gp)
804071b8:	ac400000 	sw	zero,0(v0)
804071bc:	08101c9f 	j	8040727c <ProcessSelection+0x190>
804071c0:	00000000 	nop
804071c4:	8f820004 	lw	v0,4(gp)
804071c8:	8c42009c 	lw	v0,156(v0)
804071cc:	94420010 	lhu	v0,16(v0)
804071d0:	30420400 	andi	v0,v0,0x400
804071d4:	10400029 	beqz	v0,8040727c <ProcessSelection+0x190>
804071d8:	00000000 	nop
804071dc:	8f820018 	lw	v0,24(gp)
804071e0:	8c420000 	lw	v0,0(v0)
804071e4:	28420004 	slti	v0,v0,4
804071e8:	14400024 	bnez	v0,8040727c <ProcessSelection+0x190>
804071ec:	00000000 	nop
804071f0:	8fc20010 	lw	v0,16(s8)
804071f4:	10400011 	beqz	v0,8040723c <ProcessSelection+0x150>
804071f8:	00000000 	nop
804071fc:	8f83001c 	lw	v1,28(gp)
80407200:	8f82001c 	lw	v0,28(gp)
80407204:	8c420000 	lw	v0,0(v0)
80407208:	24420001 	addiu	v0,v0,1
8040720c:	ac620000 	sw	v0,0(v1)
80407210:	8f82001c 	lw	v0,28(gp)
80407214:	8c430000 	lw	v1,0(v0)
80407218:	8fc2000c 	lw	v0,12(s8)
8040721c:	0043102a 	slt	v0,v0,v1
80407220:	10400014 	beqz	v0,80407274 <ProcessSelection+0x188>
80407224:	00000000 	nop
80407228:	8f83001c 	lw	v1,28(gp)
8040722c:	8fc2000c 	lw	v0,12(s8)
80407230:	ac620000 	sw	v0,0(v1)
80407234:	08101c9d 	j	80407274 <ProcessSelection+0x188>
80407238:	00000000 	nop
8040723c:	8f83001c 	lw	v1,28(gp)
80407240:	8f82001c 	lw	v0,28(gp)
80407244:	8c420000 	lw	v0,0(v0)
80407248:	2442ffff 	addiu	v0,v0,-1
8040724c:	ac620000 	sw	v0,0(v1)
80407250:	8f82001c 	lw	v0,28(gp)
80407254:	8c430000 	lw	v1,0(v0)
80407258:	8fc20008 	lw	v0,8(s8)
8040725c:	0062102a 	slt	v0,v1,v0
80407260:	10400004 	beqz	v0,80407274 <ProcessSelection+0x188>
80407264:	00000000 	nop
80407268:	8f83001c 	lw	v1,28(gp)
8040726c:	8fc20008 	lw	v0,8(s8)
80407270:	ac620000 	sw	v0,0(v1)
80407274:	8f820018 	lw	v0,24(gp)
80407278:	ac400000 	sw	zero,0(v0)
8040727c:	03c0e821 	move	sp,s8
80407280:	8fbe0004 	lw	s8,4(sp)
80407284:	27bd0008 	addiu	sp,sp,8
80407288:	03e00008 	jr	ra
8040728c:	00000000 	nop
80407290:	736d3634 	0x736d3634
80407294:	20737570 	addi	s3,v1,30064
80407298:	65722064 	daddiu	s2,t3,8292
8040729c:	65627567 	daddiu	v0,t3,30055
804072a0:	20000000 	addi	zero,zero,0
804072a4:	62792066 	daddi	t9,s3,8294
804072a8:	72617562 	0x72617562
804072ac:	65722061 	daddiu	s2,t3,8289
804072b0:	6b61206d 	ldl	at,8301(k1)
804072b4:	65737369 	daddiu	s3,t3,29545
804072b8:	61656e00 	daddi	a1,t3,28160
804072bc:	736d3634 	0x736d3634
804072c0:	20737570 	addi	s3,v1,30064
804072c4:	65722064 	daddiu	s2,t3,8292
804072c8:	65627567 	daddiu	v0,t3,30055
804072cc:	00000000 	nop
804072d0:	2a000000 	slti	zero,s0,0
804072d4:	506c6179 	beql	v1,t4,8041f8bc <__bss_end+0x1753c>
804072d8:	20536f75 	addi	s3,v0,28533
804072dc:	6e642025 	ldr	a0,8229(s3)
804072e0:	78000000 	0x78000000
804072e4:	54656d70 	bnel	v1,a1,804228a8 <__bss_end+0x1a528>
804072e8:	6f202564 	ldr	zero,9572(t9)
804072ec:	2042504d 	addi	v0,v0,20557
804072f0:	00000000 	nop
804072f4:	4e496e73 	c3	0x496e73
804072f8:	74202578 	jalx	808095e0 <__bss_end+0x401260>
804072fc:	00000000 	nop
80407300:	506c6179 	beql	v1,t4,8041f8e8 <__bss_end+0x17568>
80407304:	00000000 	nop
80407308:	4d757369 	0x4d757369
8040730c:	63202578 	daddi	zero,t9,9592
80407310:	00000000 	nop
80407314:	80400924 	lb	zero,2340(v0)
80407318:	80400924 	lb	zero,2340(v0)
8040731c:	80400570 	lb	zero,1392(v0)
80407320:	8040062c 	lb	zero,1580(v0)
80407324:	804006a0 	lb	zero,1696(v0)
80407328:	80400760 	lb	zero,1888(v0)
8040732c:	80400820 	lb	zero,2080(v0)
80407330:	43482025 	c0	0x1482025
80407334:	30326400 	andi	s2,at,0x6400
80407338:	4f464600 	c3	0x1464600
8040733c:	4f4e0000 	c3	0x14e0000
80407340:	25640000 	addiu	a0,t3,0
80407344:	4c562054 	0x4c562054
80407348:	45525241 	0x45525241
8040734c:	494e2025 	0x494e2025
80407350:	78000000 	0x78000000
80407354:	54595045 	bnel	v0,t9,8041b46c <__bss_end+0x130ec>
80407358:	20257800 	addi	a1,at,30720
8040735c:	56312025 	bnel	s1,s1,8040f3f4 <__bss_end+0x7074>
80407360:	64000000 	daddiu	zero,zero,0
80407364:	56322025 	bnel	s1,s2,8040f3fc <__bss_end+0x707c>
80407368:	64000000 	daddiu	zero,zero,0
8040736c:	56332025 	bnel	s1,s3,8040f404 <__bss_end+0x7084>
80407370:	64000000 	daddiu	zero,zero,0
80407374:	47524f55 	c1	0x1524f55
80407378:	4e442059 	c3	0x442059
8040737c:	20256400 	addi	a1,at,25600
80407380:	426f624f 	c0	0x6f624f
80407384:	6d620000 	ldr	v0,0(t3)
80407388:	4b6f6f70 	c2	0x16f6f70
8040738c:	61000000 	daddi	zero,t0,0
80407390:	43686169 	c0	0x1686169
80407394:	6e43686f 	ldr	v1,26735(s2)
80407398:	6d700000 	ldr	s0,0(t3)
8040739c:	426f7773 	c0	0x6f7773
804073a0:	65720000 	daddiu	s2,t3,0
804073a4:	446f6f72 	0x446f6f72
804073a8:	00000000 	nop
804073ac:	476f6f6d 	c1	0x16f6f6d
804073b0:	62610000 	daddi	at,s3,0
804073b4:	43687563 	c0	0x1687563
804073b8:	6b796100 	ldl	t9,24832(k1)
804073bc:	48656176 	0x48656176
804073c0:	652d686f 	daddiu	t5,t1,26735
804073c4:	00000000 	nop
804073c8:	50656e67 	beql	v1,a1,80422d68 <__bss_end+0x1a9e8>
804073cc:	75696e00 	jalx	85a5b800 <__bss_end+0x5653480>
804073d0:	50656163 	beql	v1,a1,8041f960 <__bss_end+0x175e0>
804073d4:	68000000 	ldl	zero,0(zero)
804073d8:	5370696e 	beql	k1,s0,80421994 <__bss_end+0x19614>
804073dc:	44726966 	0x44726966
804073e0:	74000000 	jalx	80000000 <SetMarioAction-0x252cf4>
804073e4:	4c616b69 	0x4c616b69
804073e8:	74750000 	jalx	81d40000 <__bss_end+0x1937c80>
804073ec:	4576696c 	0x4576696c
804073f0:	204c616b 	addi	t4,v0,24939
804073f4:	69747500 	ldl	s4,29952(t3)
804073f8:	546f6164 	bnel	v1,t7,8041f98c <__bss_end+0x1760c>
804073fc:	00000000 	nop
80407400:	50697261 	beql	v1,t1,80423d88 <__bss_end+0x1ba08>
80407404:	6e686100 	ldr	t0,24832(s3)
80407408:	57686f6d 	bnel	k1,t0,804231c0 <__bss_end+0x1ae40>
8040740c:	70000000 	0x70000000
80407410:	416d7000 	0x416d7000
80407414:	42757474 	c0	0x757474
80407418:	6572666c 	daddiu	s2,t3,26220
8040741c:	79000000 	0x79000000
80407420:	4f776c00 	c3	0x1776c00
80407424:	42756c6c 	c0	0x756c6c
80407428:	79000000 	0x79000000
8040742c:	4d495053 	0x4d495053
80407430:	00000000 	nop
80407434:	596f7368 	0x596f7368
80407438:	69000000 	ldl	zero,0(t0)
8040743c:	42617400 	c0	0x617400
80407440:	466c7920 	c1	0x6c7920
80407444:	67757900 	daddiu	s5,k1,30976
80407448:	57696767 	bnel	k1,t1,804211e8 <__bss_end+0x18e68>
8040744c:	6c657200 	ldr	a1,29184(v1)
80407450:	4d6f6e74 	0x4d6f6e74
80407454:	79204d6f 	0x79204d6f
80407458:	6c650000 	ldr	a1,0(v1)
8040745c:	6d722062 	ldr	s2,8290(t3)
80407460:	6c697a7a 	ldr	t1,31354(v1)
80407464:	61726400 	daddi	s2,t3,25600
80407468:	446f7272 	0x446f7272
8040746c:	69650000 	ldl	a1,0(t3)
80407470:	4861756e 	0x4861756e
80407474:	74656420 	jalx	81959080 <__bss_end+0x1550d00>
80407478:	43686169 	c0	0x1686169
8040747c:	72000000 	0x72000000
80407480:	4d616420 	0x4d616420
80407484:	5069616e 	beql	v1,t1,8041fa40 <__bss_end+0x176c0>
80407488:	6f000000 	ldr	zero,0(t8)
8040748c:	466c7969 	c1	0x6c7969
80407490:	6e672042 	ldr	a3,8258(s3)
80407494:	6f6f6b45 	ldr	t7,27461(k1)
80407498:	6e640000 	ldr	a0,0(s3)
8040749c:	4b6c6570 	c2	0x16c6570
804074a0:	746f0000 	jalx	81bc0000 <__bss_end+0x17b7c80>
804074a4:	42697264 	c0	0x697264
804074a8:	00000000 	nop
804074ac:	436c616d 	c0	0x16c616d
804074b0:	20736865 	addi	s3,v1,26725
804074b4:	6c6c0000 	ldr	t4,0(v1)
804074b8:	536b6565 	beql	k1,t3,80420a50 <__bss_end+0x186d0>
804074bc:	74657200 	jalx	8195c800 <__bss_end+0x1554480>
804074c0:	414e494d 	0x414e494d
804074c4:	204f424a 	addi	t7,v0,16970
804074c8:	00000000 	nop
804074cc:	534f4c49 	beql	k0,t7,8041a5f4 <__bss_end+0x12274>
804074d0:	44204f42 	0x44204f42
804074d4:	4a000000 	c2	0x0
804074d8:	62687620 	daddi	t0,s3,30240
804074dc:	25780000 	addiu	t8,t3,0
804074e0:	414e4d20 	0x414e4d20
804074e4:	38302578 	xori	s0,at,0x2578
804074e8:	00000000 	nop
804074ec:	44495354 	0x44495354
804074f0:	20256400 	addi	a1,at,25600
804074f4:	41435420 	0x41435420
804074f8:	25640000 	addiu	a0,t3,0
804074fc:	4652414d 	c1	0x52414d
80407500:	45202564 	0x45202564
80407504:	00000000 	nop
80407508:	38302578 	xori	s0,at,0x2578
8040750c:	00000000 	nop
80407510:	414e4720 	0x414e4720
80407514:	25640000 	addiu	a0,t3,0
80407518:	44310000 	dmfc1	s1,$f0
8040751c:	44320000 	dmfc1	s2,$f0
80407520:	44330000 	dmfc1	s3,$f0
80407524:	44340000 	dmfc1	s4,$f0
80407528:	43616d65 	c0	0x1616d65
8040752c:	72610000 	0x72610000
80407530:	32500000 	andi	s0,s2,0x0
80407534:	4d617269 	0x4d617269
80407538:	6f000000 	ldr	zero,0(t8)
8040753c:	4c20616e 	0x4c20616e
80407540:	64204420 	daddiu	zero,at,17440
80407544:	55502074 	bnel	t2,s0,8040f718 <__bss_end+0x7398>
80407548:	6f206174 	ldr	zero,24948(t9)
8040754c:	74616368 	jalx	81858da0 <__bss_end+0x1450a20>
80407550:	00000000 	nop
80407554:	80402b34 	lb	zero,11060(v0)
80407558:	80402ba0 	lb	zero,11168(v0)
8040755c:	80402c38 	lb	zero,11320(v0)
80407560:	80402ce8 	lb	zero,11496(v0)
80407564:	80402d98 	lb	zero,11672(v0)
80407568:	80402e48 	lb	zero,11848(v0)
8040756c:	80402ef8 	lb	zero,12024(v0)
80407570:	80402fa8 	lb	zero,12200(v0)
80407574:	80403058 	lb	zero,12376(v0)
80407578:	80403188 	lb	zero,12680(v0)
8040757c:	80403248 	lb	zero,12872(v0)
80407580:	80403308 	lb	zero,13064(v0)
80407584:	804033c8 	lb	zero,13256(v0)
80407588:	80403518 	lb	zero,13592(v0)
8040758c:	804035e8 	lb	zero,13800(v0)
80407590:	7761726e 	jalx	8d85c9b8 <__bss_end+0xd454638>
80407594:	696e673a 	ldl	t6,26426(t3)
80407598:	20746f6f 	addi	s4,v1,28527
8040759c:	206d616e 	addi	t5,v1,24942
804075a0:	79206f62 	0x79206f62
804075a4:	6a730000 	ldl	s3,0(s3)
804075a8:	42205041 	c0	0x205041
804075ac:	52414d31 	beql	s2,at,8041aa74 <__bss_end+0x126f4>
804075b0:	20256400 	addi	a1,at,25600
804075b4:	42205041 	c0	0x205041
804075b8:	52414d32 	beql	s2,at,8041aa84 <__bss_end+0x12704>
804075bc:	20256400 	addi	a1,at,25600
804075c0:	42485620 	c0	0x485620
804075c4:	25780000 	addiu	t8,t3,0
804075c8:	47465820 	c1	0x1465820
804075cc:	25780000 	addiu	t8,t3,0
804075d0:	53504157 	beql	k0,s0,80417b30 <__bss_end+0xf7b0>
804075d4:	4e000000 	c3	0x0
804075d8:	804048bc 	lb	zero,18620(v0)
804075dc:	804048bc 	lb	zero,18620(v0)
804075e0:	8040431c 	lb	zero,17180(v0)
804075e4:	80404458 	lb	zero,17496(v0)
804075e8:	804045fc 	lb	zero,17916(v0)
804075ec:	804046cc 	lb	zero,18124(v0)
804075f0:	8040477c 	lb	zero,18300(v0)
804075f4:	8040482c 	lb	zero,18476(v0)
804075f8:	39382025 	xori	t8,t1,0x2025
804075fc:	64000000 	daddiu	zero,zero,0
80407600:	39632025 	xori	v1,t3,0x2025
80407604:	64000000 	daddiu	zero,zero,0
80407608:	61302025 	daddi	s0,t1,8229
8040760c:	64000000 	daddiu	zero,zero,0
80407610:	61342025 	daddi	s4,t1,8229
80407614:	64000000 	daddiu	zero,zero,0
80407618:	61382025 	daddi	t8,t1,8229
8040761c:	64000000 	daddiu	zero,zero,0
80407620:	61632025 	daddi	v1,t3,8229
80407624:	64000000 	daddiu	zero,zero,0
80407628:	46524545 	c1	0x524545
8040762c:	5a450000 	0x5a450000
80407630:	554e4652 	bnel	t2,t6,80418f7c <__bss_end+0x10bfc>
80407634:	45455a45 	0x45455a45
80407638:	00000000 	nop
8040763c:	53455420 	beql	k0,a1,8041c6c0 <__bss_end+0x14340>
80407640:	50524553 	beql	v0,s2,80418b90 <__bss_end+0x10810>
80407644:	45542025 	0x45542025
80407648:	64000000 	daddiu	zero,zero,0
8040764c:	524f5420 	beql	s2,t7,8041c6d0 <__bss_end+0x14350>
80407650:	25640000 	addiu	a0,t3,0
80407654:	58202564 	blezl	at,80410be8 <__bss_end+0x8868>
80407658:	00000000 	nop
8040765c:	59202564 	blezl	t1,80410bf0 <__bss_end+0x8870>
80407660:	00000000 	nop
80407664:	5a202564 	blezl	s1,80410bf8 <__bss_end+0x8878>
80407668:	00000000 	nop
8040766c:	80405204 	lb	zero,20996(v0)
80407670:	80404dc0 	lb	zero,19904(v0)
80407674:	80404e60 	lb	zero,20064(v0)
80407678:	80404f00 	lb	zero,20224(v0)
8040767c:	80405204 	lb	zero,20996(v0)
80407680:	80404fa0 	lb	zero,20384(v0)
80407684:	80405098 	lb	zero,20632(v0)
80407688:	8040515c 	lb	zero,20828(v0)
8040768c:	436f6e74 	c0	0x16f6e74
80407690:	726f6c6c 	0x726f6c6c
80407694:	65723220 	daddiu	s2,t3,12832
80407698:	73746174 	0x73746174
8040769c:	75730000 	jalx	85cc0000 <__bss_end+0x58b7c80>
804076a0:	414e474c 	0x414e474c
804076a4:	45202564 	0x45202564
804076a8:	00000000 	nop
804076ac:	6f6c6420 	ldr	t4,25632(k1)
804076b0:	25640000 	addiu	a0,t3,0
804076b4:	62757420 	daddi	s5,s3,29728
804076b8:	25640000 	addiu	a0,t3,0
804076bc:	7a202564 	0x7a202564
804076c0:	00000000 	nop
804076c4:	79202564 	0x79202564
804076c8:	00000000 	nop
804076cc:	78202564 	0x78202564
804076d0:	00000000 	nop
804076d4:	73746963 	0x73746963
804076d8:	6b5f7920 	ldl	ra,31008(k0)
804076dc:	25780000 	addiu	t8,t3,0
804076e0:	73746963 	0x73746963
804076e4:	6b5f7820 	ldl	ra,30752(k0)
804076e8:	25780000 	addiu	t8,t3,0
804076ec:	53312025 	beql	t9,s1,8040f784 <__bss_end+0x7404>
804076f0:	30367800 	andi	s6,at,0x7800
804076f4:	53322025 	beql	t9,s2,8040f78c <__bss_end+0x740c>
804076f8:	30367800 	andi	s6,at,0x7800
804076fc:	53332025 	beql	t9,s3,8040f794 <__bss_end+0x7414>
80407700:	30367800 	andi	s6,at,0x7800
80407704:	53342025 	beql	t9,s4,8040f79c <__bss_end+0x741c>
80407708:	30367800 	andi	s6,at,0x7800
8040770c:	53352025 	beql	t9,s5,8040f7a4 <__bss_end+0x7424>
80407710:	30367800 	andi	s6,at,0x7800
80407714:	53362025 	beql	t9,s6,8040f7ac <__bss_end+0x742c>
80407718:	30367800 	andi	s6,at,0x7800
8040771c:	53372025 	beql	t9,s7,8040f7b4 <__bss_end+0x7434>
80407720:	30367800 	andi	s6,at,0x7800
80407724:	53382025 	beql	t9,t8,8040f7bc <__bss_end+0x743c>
80407728:	30367800 	andi	s6,at,0x7800
8040772c:	53392025 	beql	t9,t9,8040f7c4 <__bss_end+0x7444>
80407730:	30367800 	andi	s6,at,0x7800
80407734:	53412025 	beql	k0,at,8040f7cc <__bss_end+0x744c>
80407738:	30367800 	andi	s6,at,0x7800
8040773c:	53422025 	beql	k0,v0,8040f7d4 <__bss_end+0x7454>
80407740:	30367800 	andi	s6,at,0x7800
80407744:	53674320 	beql	k1,a3,804183c8 <__bss_end+0x10048>
80407748:	25303678 	addiu	s0,t1,13944
8040774c:	00000000 	nop
80407750:	53674420 	beql	k1,a3,804187d4 <__bss_end+0x10454>
80407754:	25303678 	addiu	s0,t1,13944
80407758:	00000000 	nop
8040775c:	53674520 	beql	k1,a3,80418be0 <__bss_end+0x10860>
80407760:	25303678 	addiu	s0,t1,13944
80407764:	00000000 	nop
80407768:	53674620 	beql	k1,a3,80418fec <__bss_end+0x10c6c>
8040776c:	25303678 	addiu	s0,t1,13944
80407770:	00000000 	nop
80407774:	53313020 	beql	t9,s1,804137f8 <__bss_end+0xb478>
80407778:	25303678 	addiu	s0,t1,13944
8040777c:	00000000 	nop
80407780:	53313120 	beql	t9,s1,80413c04 <__bss_end+0xb884>
80407784:	25303678 	addiu	s0,t1,13944
80407788:	00000000 	nop
8040778c:	53313220 	beql	t9,s1,80414010 <__bss_end+0xbc90>
80407790:	25303678 	addiu	s0,t1,13944
80407794:	00000000 	nop
80407798:	53313320 	beql	t9,s1,8041441c <__bss_end+0xc09c>
8040779c:	25303678 	addiu	s0,t1,13944
804077a0:	00000000 	nop
804077a4:	53313420 	beql	t9,s1,80414828 <__bss_end+0xc4a8>
804077a8:	25303678 	addiu	s0,t1,13944
804077ac:	00000000 	nop
804077b0:	53313520 	beql	t9,s1,80414c34 <__bss_end+0xc8b4>
804077b4:	25303678 	addiu	s0,t1,13944
804077b8:	00000000 	nop
804077bc:	53313620 	beql	t9,s1,80415040 <__bss_end+0xccc0>
804077c0:	25303678 	addiu	s0,t1,13944
804077c4:	00000000 	nop
804077c8:	49000000 	bc2f	804077cc <ProcessSelection+0x6e0>
804077cc:	2b000000 	slti	zero,t8,0
804077d0:	4f4d4647 	c3	0x14d4647
804077d4:	20535550 	addi	s3,v0,21840
804077d8:	45525348 	0x45525348
804077dc:	4f540000 	c3	0x1540000
804077e0:	47455420 	c1	0x1455420
804077e4:	52454144 	beql	s2,a1,80417cf8 <__bss_end+0xf978>
804077e8:	5920464f 	blezl	t1,80419128 <__bss_end+0x10da8>
804077ec:	52000000 	beqzl	s0,804077f0 <ProcessSelection+0x704>
804077f0:	504f4e47 	beql	v0,t7,8041b110 <__bss_end+0x12d90>
804077f4:	204f4620 	addi	t7,v0,17952
804077f8:	44454154 	0x44454154
804077fc:	48000000 	mfc2	zero,$0
80407800:	20205354 	addi	zero,at,21332
80407804:	41474520 	0x41474520
80407808:	20202020 	addi	zero,at,8224
8040780c:	20000000 	addi	zero,zero,0
80407810:	20202564 	addi	zero,at,9572
80407814:	20200000 	addi	zero,at,0
