
mario64.elf:     file format elf32-bigmips

Disassembly of section .text:

80400000 <_start>:
80400000:	27bdff88 	addiu	sp,sp,-120
80400004:	afbf0074 	sw	ra,116(sp)
80400008:	afbe0070 	sw	s8,112(sp)
8040000c:	03a0f021 	move	s8,sp
80400010:	3c1c8040 	lui	gp,0x8040
80400014:	279c1650 	addiu	gp,gp,5712
80400018:	8f830014 	lw	v1,20(gp)
8040001c:	8f820014 	lw	v0,20(gp)
80400020:	8c420000 	lw	v0,0(v0)
80400024:	24420001 	addiu	v0,v0,1
80400028:	ac620000 	sw	v0,0(v1)
8040002c:	3c028038 	lui	v0,0x8038
80400030:	34425c2c 	ori	v0,v0,0x5c2c
80400034:	afc20060 	sw	v0,96(s8)
80400038:	8fc30060 	lw	v1,96(s8)
8040003c:	3c023c05 	lui	v0,0x3c05
80400040:	34428060 	ori	v0,v0,0x8060
80400044:	ac620000 	sw	v0,0(v1)
80400048:	8fc20060 	lw	v0,96(s8)
8040004c:	24420004 	addiu	v0,v0,4
80400050:	afc20060 	sw	v0,96(s8)
80400054:	8fc30060 	lw	v1,96(s8)
80400058:	3c028ca5 	lui	v0,0x8ca5
8040005c:	34420070 	ori	v0,v0,0x70
80400060:	ac620000 	sw	v0,0(v1)
80400064:	3c028036 	lui	v0,0x8036
80400068:	34421158 	ori	v0,v0,0x1158
8040006c:	afc2005c 	sw	v0,92(s8)
80400070:	8f830040 	lw	v1,64(gp)
80400074:	8fc2005c 	lw	v0,92(s8)
80400078:	8c420000 	lw	v0,0(v0)
8040007c:	ac620000 	sw	v0,0(v1)
80400080:	3c021300 	lui	v0,0x1300
80400084:	0c09dfd4 	jal	80277f50 <SegmentedToVirtual>
80400088:	344411a8 	ori	a0,v0,0x11a8
8040008c:	afc20058 	sw	v0,88(s8)
80400090:	3c02802a 	lui	v0,0x802a
80400094:	3442f4da 	ori	v0,v0,0xf4da
80400098:	afc20054 	sw	v0,84(s8)
8040009c:	3c02802a 	lui	v0,0x802a
804000a0:	3442f564 	ori	v0,v0,0xf564
804000a4:	afc20050 	sw	v0,80(s8)
804000a8:	8fc30054 	lw	v1,84(s8)
804000ac:	24023f80 	li	v0,16256
804000b0:	a4620000 	sh	v0,0(v1)
804000b4:	8fc20050 	lw	v0,80(s8)
804000b8:	ac400000 	sw	zero,0(v0)
804000bc:	8fc30058 	lw	v1,88(s8)
804000c0:	3c02001e 	lui	v0,0x1e
804000c4:	3442fd30 	ori	v0,v0,0xfd30
804000c8:	ac620000 	sw	v0,0(v1)
804000cc:	8fc20058 	lw	v0,88(s8)
804000d0:	24420004 	addiu	v0,v0,4
804000d4:	afc20058 	sw	v0,88(s8)
804000d8:	8fc30058 	lw	v1,88(s8)
804000dc:	3c02ff9a 	lui	v0,0xff9a
804000e0:	344203e8 	ori	v0,v0,0x3e8
804000e4:	ac620000 	sw	v0,0(v1)
804000e8:	8fc20058 	lw	v0,88(s8)
804000ec:	24420004 	addiu	v0,v0,4
804000f0:	afc20058 	sw	v0,88(s8)
804000f4:	8fc30058 	lw	v1,88(s8)
804000f8:	3c0203e8 	lui	v0,0x3e8
804000fc:	344200c8 	ori	v0,v0,0xc8
80400100:	ac620000 	sw	v0,0(v1)
80400104:	3c028025 	lui	v0,0x8025
80400108:	34424318 	ori	v0,v0,0x4318
8040010c:	afc2004c 	sw	v0,76(s8)
80400110:	8fc2004c 	lw	v0,76(s8)
80400114:	ac400000 	sw	zero,0(v0)
80400118:	8f820048 	lw	v0,72(gp)
8040011c:	8c420000 	lw	v0,0(v0)
80400120:	1440005c 	bnez	v0,80400294 <_start+0x294>
80400124:	00000000 	nop
80400128:	3c028075 	lui	v0,0x8075
8040012c:	afc2002c 	sw	v0,44(s8)
80400130:	8fc3002c 	lw	v1,44(s8)
80400134:	24025000 	li	v0,20480
80400138:	ac620000 	sw	v0,0(v1)
8040013c:	8fc2002c 	lw	v0,44(s8)
80400140:	24420004 	addiu	v0,v0,4
80400144:	afc2002c 	sw	v0,44(s8)
80400148:	8fc2002c 	lw	v0,44(s8)
8040014c:	24420004 	addiu	v0,v0,4
80400150:	afc2002c 	sw	v0,44(s8)
80400154:	8fc3002c 	lw	v1,44(s8)
80400158:	3c028075 	lui	v0,0x8075
8040015c:	34420010 	ori	v0,v0,0x10
80400160:	ac620000 	sw	v0,0(v1)
80400164:	8fc2002c 	lw	v0,44(s8)
80400168:	24420004 	addiu	v0,v0,4
8040016c:	afc2002c 	sw	v0,44(s8)
80400170:	8fc3002c 	lw	v1,44(s8)
80400174:	3c028075 	lui	v0,0x8075
80400178:	34420010 	ori	v0,v0,0x10
8040017c:	ac620000 	sw	v0,0(v1)
80400180:	3c048070 	lui	a0,0x8070
80400184:	3c050170 	lui	a1,0x170
80400188:	3c020172 	lui	v0,0x172
8040018c:	0c09e141 	jal	80278504 <DmaCopy>
80400190:	34464200 	ori	a2,v0,0x4200
80400194:	3c048073 	lui	a0,0x8073
80400198:	3c050173 	lui	a1,0x173
8040019c:	0c09e141 	jal	80278504 <DmaCopy>
804001a0:	3c060174 	lui	a2,0x174
804001a4:	8f820008 	lw	v0,8(gp)
804001a8:	8c420000 	lw	v0,0(v0)
804001ac:	00402021 	move	a0,v0
804001b0:	24050001 	li	a1,1
804001b4:	3c028073 	lui	v0,0x8073
804001b8:	0c0a7b73 	jal	8029edcc <SpawnObj>
804001bc:	34460700 	ori	a2,v0,0x700
804001c0:	afc20028 	sw	v0,40(s8)
804001c4:	8fc30028 	lw	v1,40(s8)
804001c8:	3c028072 	lui	v0,0x8072
804001cc:	344241e8 	ori	v0,v0,0x41e8
804001d0:	ac620120 	sw	v0,288(v1)
804001d4:	3c048075 	lui	a0,0x8075
804001d8:	3c028073 	lui	v0,0x8073
804001dc:	0c0df82d 	jal	8037e0b4 <ProcessGeoLayout>
804001e0:	34450468 	ori	a1,v0,0x468
804001e4:	00401821 	move	v1,v0
804001e8:	8fc20028 	lw	v0,40(s8)
804001ec:	ac430014 	sw	v1,20(v0)
804001f0:	8fc20028 	lw	v0,40(s8)
804001f4:	c44200a0 	lwc1	$f2,160(v0)
804001f8:	c780005c 	lwc1	$f0,92(gp)
804001fc:	46001000 	add.s	$f0,$f2,$f0
80400200:	8fc20028 	lw	v0,40(s8)
80400204:	e44000a0 	swc1	$f0,160(v0)
80400208:	8f82000c 	lw	v0,12(gp)
8040020c:	8c420000 	lw	v0,0(v0)
80400210:	afc20024 	sw	v0,36(s8)
80400214:	8f83000c 	lw	v1,12(gp)
80400218:	8fc20028 	lw	v0,40(s8)
8040021c:	ac620000 	sw	v0,0(v1)
80400220:	0c0a7d19 	jal	8029f464 <SetObjAnimation>
80400224:	24040001 	li	a0,1
80400228:	8f83000c 	lw	v1,12(gp)
8040022c:	8fc20024 	lw	v0,36(s8)
80400230:	ac620000 	sw	v0,0(v1)
80400234:	8fc20028 	lw	v0,40(s8)
80400238:	af8200f0 	sw	v0,240(gp)
8040023c:	8f8200f0 	lw	v0,240(gp)
80400240:	c7800060 	lwc1	$f0,96(gp)
80400244:	e44001f8 	swc1	$f0,504(v0)
80400248:	8f8200f0 	lw	v0,240(gp)
8040024c:	c7800064 	lwc1	$f0,100(gp)
80400250:	e44001fc 	swc1	$f0,508(v0)
80400254:	8f8200f0 	lw	v0,240(gp)
80400258:	c7800068 	lwc1	$f0,104(gp)
8040025c:	e44000e4 	swc1	$f0,228(v0)
80400260:	0c09dfd4 	jal	80277f50 <SegmentedToVirtual>
80400264:	3c040700 	lui	a0,0x700
80400268:	00401821 	move	v1,v0
8040026c:	3c0200ff 	lui	v0,0xff
80400270:	3442ffff 	ori	v0,v0,0xffff
80400274:	00621024 	and	v0,v1,v0
80400278:	afc20020 	sw	v0,32(s8)
8040027c:	8f830034 	lw	v1,52(gp)
80400280:	8fc20020 	lw	v0,32(s8)
80400284:	ac620000 	sw	v0,0(v1)
80400288:	8f830048 	lw	v1,72(gp)
8040028c:	24020001 	li	v0,1
80400290:	ac620000 	sw	v0,0(v1)
80400294:	0c09dfd4 	jal	80277f50 <SegmentedToVirtual>
80400298:	3c040700 	lui	a0,0x700
8040029c:	00401821 	move	v1,v0
804002a0:	3c0200ff 	lui	v0,0xff
804002a4:	3442ffff 	ori	v0,v0,0xffff
804002a8:	00621024 	and	v0,v1,v0
804002ac:	afc20048 	sw	v0,72(s8)
804002b0:	8f820034 	lw	v0,52(gp)
804002b4:	8c430000 	lw	v1,0(v0)
804002b8:	8fc20048 	lw	v0,72(s8)
804002bc:	10620003 	beq	v1,v0,804002cc <_start+0x2cc>
804002c0:	00000000 	nop
804002c4:	8f820048 	lw	v0,72(gp)
804002c8:	ac400000 	sw	zero,0(v0)
804002cc:	8f830034 	lw	v1,52(gp)
804002d0:	8fc20048 	lw	v0,72(s8)
804002d4:	ac620000 	sw	v0,0(v1)
804002d8:	8f8200f0 	lw	v0,240(gp)
804002dc:	0c1003fb 	jal	80400fec <ControlYoshi>
804002e0:	ac40009c 	sw	zero,156(v0)
804002e4:	8f82000c 	lw	v0,12(gp)
804002e8:	8c420000 	lw	v0,0(v0)
804002ec:	afc20044 	sw	v0,68(s8)
804002f0:	8f83000c 	lw	v1,12(gp)
804002f4:	8f8200f0 	lw	v0,240(gp)
804002f8:	ac620000 	sw	v0,0(v1)
804002fc:	3c02802e 	lui	v0,0x802e
80400300:	34424e90 	ori	v0,v0,0x4e90
80400304:	afc20040 	sw	v0,64(s8)
80400308:	8fc20040 	lw	v0,64(s8)
8040030c:	0040f809 	jalr	v0
80400310:	00000000 	nop
80400314:	8f83000c 	lw	v1,12(gp)
80400318:	8fc20044 	lw	v0,68(s8)
8040031c:	ac620000 	sw	v0,0(v1)
80400320:	8f820004 	lw	v0,4(gp)
80400324:	8c420094 	lw	v0,148(v0)
80400328:	afc2003c 	sw	v0,60(s8)
8040032c:	8f820004 	lw	v0,4(gp)
80400330:	c440003c 	lwc1	$f0,60(v0)
80400334:	8fc2003c 	lw	v0,60(s8)
80400338:	e4400004 	swc1	$f0,4(v0)
8040033c:	8f820004 	lw	v0,4(gp)
80400340:	c4400040 	lwc1	$f0,64(v0)
80400344:	8fc2003c 	lw	v0,60(s8)
80400348:	e4400008 	swc1	$f0,8(v0)
8040034c:	8f820004 	lw	v0,4(gp)
80400350:	c4400044 	lwc1	$f0,68(v0)
80400354:	8fc2003c 	lw	v0,60(s8)
80400358:	e440000c 	swc1	$f0,12(v0)
8040035c:	8f8200f0 	lw	v0,240(gp)
80400360:	00401821 	move	v1,v0
80400364:	3c0200ff 	lui	v0,0xff
80400368:	3442ffff 	ori	v0,v0,0xffff
8040036c:	00621824 	and	v1,v1,v0
80400370:	24040014 	li	a0,20
80400374:	24050028 	li	a1,40
80400378:	3c028040 	lui	v0,0x8040
8040037c:	24461604 	addiu	a2,v0,5636
80400380:	0c0b58b6 	jal	802d62d8 <PrintInt>
80400384:	00603821 	move	a3,v1
80400388:	8f8200f0 	lw	v0,240(gp)
8040038c:	ac40015c 	sw	zero,348(v0)
80400390:	8f8200f0 	lw	v0,240(gp)
80400394:	c780006c 	lwc1	$f0,108(gp)
80400398:	e4400194 	swc1	$f0,404(v0)
8040039c:	8f8200f0 	lw	v0,240(gp)
804003a0:	c780006c 	lwc1	$f0,108(gp)
804003a4:	e440019c 	swc1	$f0,412(v0)
804003a8:	3c028033 	lui	v0,0x8033
804003ac:	3442afac 	ori	v0,v0,0xafac
804003b0:	afc20038 	sw	v0,56(s8)
804003b4:	8f830038 	lw	v1,56(gp)
804003b8:	8f820038 	lw	v0,56(gp)
804003bc:	8c420000 	lw	v0,0(v0)
804003c0:	24420001 	addiu	v0,v0,1
804003c4:	ac620000 	sw	v0,0(v1)
804003c8:	8fc20038 	lw	v0,56(s8)
804003cc:	94420010 	lhu	v0,16(v0)
804003d0:	30424000 	andi	v0,v0,0x4000
804003d4:	10400028 	beqz	v0,80400478 <_start+0x478>
804003d8:	00000000 	nop
804003dc:	8f820038 	lw	v0,56(gp)
804003e0:	8c420000 	lw	v0,0(v0)
804003e4:	28420029 	slti	v0,v0,41
804003e8:	14400023 	bnez	v0,80400478 <_start+0x478>
804003ec:	00000000 	nop
804003f0:	8f82000c 	lw	v0,12(gp)
804003f4:	8c420000 	lw	v0,0(v0)
804003f8:	afc20044 	sw	v0,68(s8)
804003fc:	8f83000c 	lw	v1,12(gp)
80400400:	8f8200f0 	lw	v0,240(gp)
80400404:	ac620000 	sw	v0,0(v1)
80400408:	8f820008 	lw	v0,8(gp)
8040040c:	8c420000 	lw	v0,0(v0)
80400410:	00402021 	move	a0,v0
80400414:	24050090 	li	a1,144
80400418:	3c021300 	lui	v0,0x1300
8040041c:	0c0a7b73 	jal	8029edcc <SpawnObj>
80400420:	34461184 	ori	a2,v0,0x1184
80400424:	afc2001c 	sw	v0,28(s8)
80400428:	8fc2001c 	lw	v0,28(s8)
8040042c:	c7800070 	lwc1	$f0,112(gp)
80400430:	e440002c 	swc1	$f0,44(v0)
80400434:	8fc2001c 	lw	v0,28(s8)
80400438:	c7800070 	lwc1	$f0,112(gp)
8040043c:	e4400030 	swc1	$f0,48(v0)
80400440:	8fc2001c 	lw	v0,28(s8)
80400444:	c7800070 	lwc1	$f0,112(gp)
80400448:	e4400034 	swc1	$f0,52(v0)
8040044c:	8fc2001c 	lw	v0,28(s8)
80400450:	c7800074 	lwc1	$f0,116(gp)
80400454:	e44000b8 	swc1	$f0,184(v0)
80400458:	3c026008 	lui	v0,0x6008
8040045c:	0c0b2864 	jal	802ca190 <PlaySound>
80400460:	34446001 	ori	a0,v0,0x6001
80400464:	8f83000c 	lw	v1,12(gp)
80400468:	8fc20044 	lw	v0,68(s8)
8040046c:	ac620000 	sw	v0,0(v1)
80400470:	8f820038 	lw	v0,56(gp)
80400474:	ac400000 	sw	zero,0(v0)
80400478:	8f8200f0 	lw	v0,240(gp)
8040047c:	0c10033c 	jal	80400cf0 <CheckFireCollision>
80400480:	00402021 	move	a0,v0
80400484:	8fc20038 	lw	v0,56(s8)
80400488:	94420010 	lhu	v0,16(v0)
8040048c:	30422000 	andi	v0,v0,0x2000
80400490:	10400020 	beqz	v0,80400514 <_start+0x514>
80400494:	00000000 	nop
80400498:	8f820014 	lw	v0,20(gp)
8040049c:	8c420000 	lw	v0,0(v0)
804004a0:	28420010 	slti	v0,v0,16
804004a4:	1440001b 	bnez	v0,80400514 <_start+0x514>
804004a8:	00000000 	nop
804004ac:	8f82003c 	lw	v0,60(gp)
804004b0:	8c420000 	lw	v0,0(v0)
804004b4:	14400005 	bnez	v0,804004cc <_start+0x4cc>
804004b8:	00000000 	nop
804004bc:	8f83003c 	lw	v1,60(gp)
804004c0:	24020001 	li	v0,1
804004c4:	08100143 	j	8040050c <_start+0x50c>
804004c8:	ac620000 	sw	v0,0(v1)
804004cc:	8f82003c 	lw	v0,60(gp)
804004d0:	8c430000 	lw	v1,0(v0)
804004d4:	24020001 	li	v0,1
804004d8:	14620005 	bne	v1,v0,804004f0 <_start+0x4f0>
804004dc:	00000000 	nop
804004e0:	8f83003c 	lw	v1,60(gp)
804004e4:	24020002 	li	v0,2
804004e8:	08100143 	j	8040050c <_start+0x50c>
804004ec:	ac620000 	sw	v0,0(v1)
804004f0:	8f82003c 	lw	v0,60(gp)
804004f4:	8c430000 	lw	v1,0(v0)
804004f8:	24020002 	li	v0,2
804004fc:	14620003 	bne	v1,v0,8040050c <_start+0x50c>
80400500:	00000000 	nop
80400504:	8f82003c 	lw	v0,60(gp)
80400508:	ac400000 	sw	zero,0(v0)
8040050c:	8f820014 	lw	v0,20(gp)
80400510:	ac400000 	sw	zero,0(v0)
80400514:	24040014 	li	a0,20
80400518:	24050014 	li	a1,20
8040051c:	3c028040 	lui	v0,0x8040
80400520:	24461610 	addiu	a2,v0,5648
80400524:	0c0b58b6 	jal	802d62d8 <PrintInt>
80400528:	00003821 	move	a3,zero
8040052c:	8f82003c 	lw	v0,60(gp)
80400530:	8c430000 	lw	v1,0(v0)
80400534:	24020001 	li	v0,1
80400538:	1462001b 	bne	v1,v0,804005a8 <_start+0x5a8>
8040053c:	00000000 	nop
80400540:	8f830040 	lw	v1,64(gp)
80400544:	8f8200f0 	lw	v0,240(gp)
80400548:	ac620000 	sw	v0,0(v1)
8040054c:	8f820004 	lw	v0,4(gp)
80400550:	8c420094 	lw	v0,148(v0)
80400554:	afc20018 	sw	v0,24(s8)
80400558:	8f8200f0 	lw	v0,240(gp)
8040055c:	c44000a0 	lwc1	$f0,160(v0)
80400560:	8fc20018 	lw	v0,24(s8)
80400564:	e4400004 	swc1	$f0,4(v0)
80400568:	8f8200f0 	lw	v0,240(gp)
8040056c:	c44000a4 	lwc1	$f0,164(v0)
80400570:	8fc20018 	lw	v0,24(s8)
80400574:	e4400008 	swc1	$f0,8(v0)
80400578:	8f8200f0 	lw	v0,240(gp)
8040057c:	c44000a8 	lwc1	$f0,168(v0)
80400580:	8fc20018 	lw	v0,24(s8)
80400584:	e440000c 	swc1	$f0,12(v0)
80400588:	2404006e 	li	a0,110
8040058c:	24050014 	li	a1,20
80400590:	3c028040 	lui	v0,0x8040
80400594:	24461618 	addiu	a2,v0,5656
80400598:	0c0b58b6 	jal	802d62d8 <PrintInt>
8040059c:	00003821 	move	a3,zero
804005a0:	0810019e 	j	80400678 <_start+0x678>
804005a4:	00000000 	nop
804005a8:	8f82003c 	lw	v0,60(gp)
804005ac:	8c430000 	lw	v1,0(v0)
804005b0:	24020001 	li	v0,1
804005b4:	1462002a 	bne	v1,v0,80400660 <_start+0x660>
804005b8:	00000000 	nop
804005bc:	8f830040 	lw	v1,64(gp)
804005c0:	8f8200f0 	lw	v0,240(gp)
804005c4:	ac620000 	sw	v0,0(v1)
804005c8:	8f820004 	lw	v0,4(gp)
804005cc:	8c420094 	lw	v0,148(v0)
804005d0:	afc20014 	sw	v0,20(s8)
804005d4:	8f8200f0 	lw	v0,240(gp)
804005d8:	c44200a0 	lwc1	$f2,160(v0)
804005dc:	8f820004 	lw	v0,4(gp)
804005e0:	c440003c 	lwc1	$f0,60(v0)
804005e4:	46001080 	add.s	$f2,$f2,$f0
804005e8:	c7800068 	lwc1	$f0,104(gp)
804005ec:	46001003 	div.s	$f0,$f2,$f0
804005f0:	8fc20014 	lw	v0,20(s8)
804005f4:	e4400004 	swc1	$f0,4(v0)
804005f8:	8f8200f0 	lw	v0,240(gp)
804005fc:	c44200a4 	lwc1	$f2,164(v0)
80400600:	8f820004 	lw	v0,4(gp)
80400604:	c4400040 	lwc1	$f0,64(v0)
80400608:	46001080 	add.s	$f2,$f2,$f0
8040060c:	c7800068 	lwc1	$f0,104(gp)
80400610:	46001003 	div.s	$f0,$f2,$f0
80400614:	8fc20014 	lw	v0,20(s8)
80400618:	e4400008 	swc1	$f0,8(v0)
8040061c:	8f8200f0 	lw	v0,240(gp)
80400620:	c44200a8 	lwc1	$f2,168(v0)
80400624:	8f820004 	lw	v0,4(gp)
80400628:	c4400044 	lwc1	$f0,68(v0)
8040062c:	46001080 	add.s	$f2,$f2,$f0
80400630:	c7800068 	lwc1	$f0,104(gp)
80400634:	46001003 	div.s	$f0,$f2,$f0
80400638:	8fc20014 	lw	v0,20(s8)
8040063c:	e440000c 	swc1	$f0,12(v0)
80400640:	2404006e 	li	a0,110
80400644:	24050014 	li	a1,20
80400648:	3c028040 	lui	v0,0x8040
8040064c:	24461620 	addiu	a2,v0,5664
80400650:	0c0b58b6 	jal	802d62d8 <PrintInt>
80400654:	00003821 	move	a3,zero
80400658:	0810019e 	j	80400678 <_start+0x678>
8040065c:	00000000 	nop
80400660:	2404006e 	li	a0,110
80400664:	24050014 	li	a1,20
80400668:	3c028040 	lui	v0,0x8040
8040066c:	24461628 	addiu	a2,v0,5672
80400670:	0c0b58b6 	jal	802d62d8 <PrintInt>
80400674:	00003821 	move	a3,zero
80400678:	8f8200f0 	lw	v0,240(gp)
8040067c:	00401821 	move	v1,v0
80400680:	8f820004 	lw	v0,4(gp)
80400684:	8c420088 	lw	v0,136(v0)
80400688:	00602021 	move	a0,v1
8040068c:	0c0a789f 	jal	8029e27c <DistanceFromObject>
80400690:	00402821 	move	a1,v0
80400694:	e7c00034 	swc1	$f0,52(s8)
80400698:	c7c00034 	lwc1	$f0,52(s8)
8040069c:	4600000d 	trunc.w.s	$f0,$f0
804006a0:	44030000 	mfc1	v1,$f0
804006a4:	24040014 	li	a0,20
804006a8:	24050050 	li	a1,80
804006ac:	3c028040 	lui	v0,0x8040
804006b0:	24461630 	addiu	a2,v0,5680
804006b4:	0c0b58b6 	jal	802d62d8 <PrintInt>
804006b8:	00603821 	move	a3,v1
804006bc:	8f820024 	lw	v0,36(gp)
804006c0:	c4400000 	lwc1	$f0,0(v0)
804006c4:	4600000d 	trunc.w.s	$f0,$f0
804006c8:	44030000 	mfc1	v1,$f0
804006cc:	24040014 	li	a0,20
804006d0:	2405003c 	li	a1,60
804006d4:	3c028040 	lui	v0,0x8040
804006d8:	24461638 	addiu	a2,v0,5688
804006dc:	0c0b58b6 	jal	802d62d8 <PrintInt>
804006e0:	00603821 	move	a3,v1
804006e4:	c7c20034 	lwc1	$f2,52(s8)
804006e8:	c7800078 	lwc1	$f0,120(gp)
804006ec:	4602003c 	c.lt.s	$f0,$f2
804006f0:	45000010 	bc1f	80400734 <_start+0x734>
804006f4:	00000000 	nop
804006f8:	8f820024 	lw	v0,36(gp)
804006fc:	c4420000 	lwc1	$f2,0(v0)
80400700:	c780007c 	lwc1	$f0,124(gp)
80400704:	4600103c 	c.lt.s	$f2,$f0
80400708:	45000072 	bc1f	804008d4 <_start+0x8d4>
8040070c:	00000000 	nop
80400710:	8f830024 	lw	v1,36(gp)
80400714:	8f820024 	lw	v0,36(gp)
80400718:	c4400000 	lwc1	$f0,0(v0)
8040071c:	460000a1 	cvt.d.s	$f2,$f0
80400720:	d7800080 	ldc1	$f0,128(gp)
80400724:	46201000 	add.d	$f0,$f2,$f0
80400728:	46200020 	cvt.s.d	$f0,$f0
8040072c:	08100235 	j	804008d4 <_start+0x8d4>
80400730:	e4600000 	swc1	$f0,0(v1)
80400734:	24020001 	li	v0,1
80400738:	a3c20068 	sb	v0,104(s8)
8040073c:	c7c20034 	lwc1	$f2,52(s8)
80400740:	c7800088 	lwc1	$f0,136(gp)
80400744:	4602003c 	c.lt.s	$f0,$f2
80400748:	45010002 	bc1t	80400754 <_start+0x754>
8040074c:	00000000 	nop
80400750:	a3c00068 	sb	zero,104(s8)
80400754:	93c20068 	lbu	v0,104(s8)
80400758:	38420001 	xori	v0,v0,0x1
8040075c:	304200ff 	andi	v0,v0,0xff
80400760:	1440001b 	bnez	v0,804007d0 <_start+0x7d0>
80400764:	00000000 	nop
80400768:	24020001 	li	v0,1
8040076c:	a3c20069 	sb	v0,105(s8)
80400770:	c7c20034 	lwc1	$f2,52(s8)
80400774:	c7800078 	lwc1	$f0,120(gp)
80400778:	4600103e 	c.le.s	$f2,$f0
8040077c:	45010002 	bc1t	80400788 <_start+0x788>
80400780:	00000000 	nop
80400784:	a3c00069 	sb	zero,105(s8)
80400788:	93c20069 	lbu	v0,105(s8)
8040078c:	38420001 	xori	v0,v0,0x1
80400790:	304200ff 	andi	v0,v0,0xff
80400794:	1440000e 	bnez	v0,804007d0 <_start+0x7d0>
80400798:	00000000 	nop
8040079c:	8f820024 	lw	v0,36(gp)
804007a0:	c4420000 	lwc1	$f2,0(v0)
804007a4:	c780008c 	lwc1	$f0,140(gp)
804007a8:	4600103c 	c.lt.s	$f2,$f0
804007ac:	45000049 	bc1f	804008d4 <_start+0x8d4>
804007b0:	00000000 	nop
804007b4:	8f830024 	lw	v1,36(gp)
804007b8:	8f820024 	lw	v0,36(gp)
804007bc:	c4420000 	lwc1	$f2,0(v0)
804007c0:	c7800090 	lwc1	$f0,144(gp)
804007c4:	46001000 	add.s	$f0,$f2,$f0
804007c8:	08100235 	j	804008d4 <_start+0x8d4>
804007cc:	e4600000 	swc1	$f0,0(v1)
804007d0:	24020001 	li	v0,1
804007d4:	a3c2006a 	sb	v0,106(s8)
804007d8:	c7c20034 	lwc1	$f2,52(s8)
804007dc:	c7800094 	lwc1	$f0,148(gp)
804007e0:	4602003c 	c.lt.s	$f0,$f2
804007e4:	45010002 	bc1t	804007f0 <_start+0x7f0>
804007e8:	00000000 	nop
804007ec:	a3c0006a 	sb	zero,106(s8)
804007f0:	93c2006a 	lbu	v0,106(s8)
804007f4:	38420001 	xori	v0,v0,0x1
804007f8:	304200ff 	andi	v0,v0,0xff
804007fc:	1440001d 	bnez	v0,80400874 <_start+0x874>
80400800:	00000000 	nop
80400804:	24020001 	li	v0,1
80400808:	a3c2006b 	sb	v0,107(s8)
8040080c:	c7c20034 	lwc1	$f2,52(s8)
80400810:	c7800088 	lwc1	$f0,136(gp)
80400814:	4600103e 	c.le.s	$f2,$f0
80400818:	45010002 	bc1t	80400824 <_start+0x824>
8040081c:	00000000 	nop
80400820:	a3c0006b 	sb	zero,107(s8)
80400824:	93c2006b 	lbu	v0,107(s8)
80400828:	38420001 	xori	v0,v0,0x1
8040082c:	304200ff 	andi	v0,v0,0xff
80400830:	14400010 	bnez	v0,80400874 <_start+0x874>
80400834:	00000000 	nop
80400838:	8f820024 	lw	v0,36(gp)
8040083c:	c4420000 	lwc1	$f2,0(v0)
80400840:	c7800098 	lwc1	$f0,152(gp)
80400844:	4600103c 	c.lt.s	$f2,$f0
80400848:	45000022 	bc1f	804008d4 <_start+0x8d4>
8040084c:	00000000 	nop
80400850:	8f830024 	lw	v1,36(gp)
80400854:	8f820024 	lw	v0,36(gp)
80400858:	c4400000 	lwc1	$f0,0(v0)
8040085c:	460000a1 	cvt.d.s	$f2,$f0
80400860:	d78000a0 	ldc1	$f0,160(gp)
80400864:	46201000 	add.d	$f0,$f2,$f0
80400868:	46200020 	cvt.s.d	$f0,$f0
8040086c:	08100235 	j	804008d4 <_start+0x8d4>
80400870:	e4600000 	swc1	$f0,0(v1)
80400874:	c7c20034 	lwc1	$f2,52(s8)
80400878:	44800000 	mtc1	zero,$f0
8040087c:	4602003c 	c.lt.s	$f0,$f2
80400880:	45000014 	bc1f	804008d4 <_start+0x8d4>
80400884:	00000000 	nop
80400888:	c7c20034 	lwc1	$f2,52(s8)
8040088c:	c7800094 	lwc1	$f0,148(gp)
80400890:	4600103e 	c.le.s	$f2,$f0
80400894:	4500000f 	bc1f	804008d4 <_start+0x8d4>
80400898:	00000000 	nop
8040089c:	8f820024 	lw	v0,36(gp)
804008a0:	c4420000 	lwc1	$f2,0(v0)
804008a4:	c78000a8 	lwc1	$f0,168(gp)
804008a8:	4600103c 	c.lt.s	$f2,$f0
804008ac:	45000009 	bc1f	804008d4 <_start+0x8d4>
804008b0:	00000000 	nop
804008b4:	8f830024 	lw	v1,36(gp)
804008b8:	8f820024 	lw	v0,36(gp)
804008bc:	c4400000 	lwc1	$f0,0(v0)
804008c0:	460000a1 	cvt.d.s	$f2,$f0
804008c4:	d78000b0 	ldc1	$f0,176(gp)
804008c8:	46201000 	add.d	$f0,$f2,$f0
804008cc:	46200020 	cvt.s.d	$f0,$f0
804008d0:	e4600000 	swc1	$f0,0(v1)
804008d4:	2402007d 	li	v0,125
804008d8:	afc20030 	sw	v0,48(s8)
804008dc:	8f820004 	lw	v0,4(gp)
804008e0:	c444003c 	lwc1	$f4,60(v0)
804008e4:	8f8200f0 	lw	v0,240(gp)
804008e8:	c44200a0 	lwc1	$f2,160(v0)
804008ec:	c7c00030 	lwc1	$f0,48(s8)
804008f0:	46800020 	cvt.s.w	$f0,$f0
804008f4:	46001001 	sub.s	$f0,$f2,$f0
804008f8:	4604003c 	c.lt.s	$f0,$f4
804008fc:	4500007c 	bc1f	80400af0 <_start+0xaf0>
80400900:	00000000 	nop
80400904:	8f820004 	lw	v0,4(gp)
80400908:	c444003c 	lwc1	$f4,60(v0)
8040090c:	8f8200f0 	lw	v0,240(gp)
80400910:	c44200a0 	lwc1	$f2,160(v0)
80400914:	c7c00030 	lwc1	$f0,48(s8)
80400918:	46800020 	cvt.s.w	$f0,$f0
8040091c:	46001000 	add.s	$f0,$f2,$f0
80400920:	4600203c 	c.lt.s	$f4,$f0
80400924:	45000072 	bc1f	80400af0 <_start+0xaf0>
80400928:	00000000 	nop
8040092c:	8f820004 	lw	v0,4(gp)
80400930:	c4440040 	lwc1	$f4,64(v0)
80400934:	8f8200f0 	lw	v0,240(gp)
80400938:	c44200a4 	lwc1	$f2,164(v0)
8040093c:	c7c00030 	lwc1	$f0,48(s8)
80400940:	46800020 	cvt.s.w	$f0,$f0
80400944:	46001001 	sub.s	$f0,$f2,$f0
80400948:	4604003c 	c.lt.s	$f0,$f4
8040094c:	45000068 	bc1f	80400af0 <_start+0xaf0>
80400950:	00000000 	nop
80400954:	8f820004 	lw	v0,4(gp)
80400958:	c4440040 	lwc1	$f4,64(v0)
8040095c:	8f8200f0 	lw	v0,240(gp)
80400960:	c44200a4 	lwc1	$f2,164(v0)
80400964:	c7c00030 	lwc1	$f0,48(s8)
80400968:	46800020 	cvt.s.w	$f0,$f0
8040096c:	46001000 	add.s	$f0,$f2,$f0
80400970:	4600203c 	c.lt.s	$f4,$f0
80400974:	4500005e 	bc1f	80400af0 <_start+0xaf0>
80400978:	00000000 	nop
8040097c:	8f820004 	lw	v0,4(gp)
80400980:	c4440044 	lwc1	$f4,68(v0)
80400984:	8f8200f0 	lw	v0,240(gp)
80400988:	c44200a8 	lwc1	$f2,168(v0)
8040098c:	c7c00030 	lwc1	$f0,48(s8)
80400990:	46800020 	cvt.s.w	$f0,$f0
80400994:	46001001 	sub.s	$f0,$f2,$f0
80400998:	4604003c 	c.lt.s	$f0,$f4
8040099c:	45000054 	bc1f	80400af0 <_start+0xaf0>
804009a0:	00000000 	nop
804009a4:	8f820004 	lw	v0,4(gp)
804009a8:	c4440044 	lwc1	$f4,68(v0)
804009ac:	8f8200f0 	lw	v0,240(gp)
804009b0:	c44200a8 	lwc1	$f2,168(v0)
804009b4:	c7c00030 	lwc1	$f0,48(s8)
804009b8:	46800020 	cvt.s.w	$f0,$f0
804009bc:	46001000 	add.s	$f0,$f2,$f0
804009c0:	4600203c 	c.lt.s	$f4,$f0
804009c4:	4500004a 	bc1f	80400af0 <_start+0xaf0>
804009c8:	00000000 	nop
804009cc:	8f820004 	lw	v0,4(gp)
804009d0:	c4440040 	lwc1	$f4,64(v0)
804009d4:	8f820004 	lw	v0,4(gp)
804009d8:	c4420070 	lwc1	$f2,112(v0)
804009dc:	c7800074 	lwc1	$f0,116(gp)
804009e0:	46001000 	add.s	$f0,$f2,$f0
804009e4:	4604003c 	c.lt.s	$f0,$f4
804009e8:	45000041 	bc1f	80400af0 <_start+0xaf0>
804009ec:	00000000 	nop
804009f0:	8f820054 	lw	v0,84(gp)
804009f4:	8c420000 	lw	v0,0(v0)
804009f8:	1440000b 	bnez	v0,80400a28 <_start+0xa28>
804009fc:	00000000 	nop
80400a00:	8f820004 	lw	v0,4(gp)
80400a04:	8c43000c 	lw	v1,12(v0)
80400a08:	3c020300 	lui	v0,0x300
80400a0c:	34420881 	ori	v0,v0,0x881
80400a10:	14620005 	bne	v1,v0,80400a28 <_start+0xa28>
80400a14:	00000000 	nop
80400a18:	8f830054 	lw	v1,84(gp)
80400a1c:	24020001 	li	v0,1
80400a20:	081002bc 	j	80400af0 <_start+0xaf0>
80400a24:	ac620000 	sw	v0,0(v1)
80400a28:	8f820004 	lw	v0,4(gp)
80400a2c:	8c43000c 	lw	v1,12(v0)
80400a30:	3c020080 	lui	v0,0x80
80400a34:	344208a9 	ori	v0,v0,0x8a9
80400a38:	1462002d 	bne	v1,v0,80400af0 <_start+0xaf0>
80400a3c:	00000000 	nop
80400a40:	8f820038 	lw	v0,56(gp)
80400a44:	2c420029 	sltiu	v0,v0,41
80400a48:	14400029 	bnez	v0,80400af0 <_start+0xaf0>
80400a4c:	00000000 	nop
80400a50:	8f82000c 	lw	v0,12(gp)
80400a54:	8c420000 	lw	v0,0(v0)
80400a58:	afc20044 	sw	v0,68(s8)
80400a5c:	8f83000c 	lw	v1,12(gp)
80400a60:	8f8200f0 	lw	v0,240(gp)
80400a64:	ac620000 	sw	v0,0(v1)
80400a68:	8f820008 	lw	v0,8(gp)
80400a6c:	8c420000 	lw	v0,0(v0)
80400a70:	00402021 	move	a0,v0
80400a74:	24050090 	li	a1,144
80400a78:	3c021300 	lui	v0,0x1300
80400a7c:	0c0a7b73 	jal	8029edcc <SpawnObj>
80400a80:	34461184 	ori	a2,v0,0x1184
80400a84:	afc20010 	sw	v0,16(s8)
80400a88:	8fc20010 	lw	v0,16(s8)
80400a8c:	c78000b8 	lwc1	$f0,184(gp)
80400a90:	e440002c 	swc1	$f0,44(v0)
80400a94:	8fc20010 	lw	v0,16(s8)
80400a98:	c78000b8 	lwc1	$f0,184(gp)
80400a9c:	e4400030 	swc1	$f0,48(v0)
80400aa0:	8fc20010 	lw	v0,16(s8)
80400aa4:	c78000b8 	lwc1	$f0,184(gp)
80400aa8:	e4400034 	swc1	$f0,52(v0)
80400aac:	8fc20010 	lw	v0,16(s8)
80400ab0:	c44200a4 	lwc1	$f2,164(v0)
80400ab4:	c78000bc 	lwc1	$f0,188(gp)
80400ab8:	46001000 	add.s	$f0,$f2,$f0
80400abc:	8fc20010 	lw	v0,16(s8)
80400ac0:	e44000a4 	swc1	$f0,164(v0)
80400ac4:	8fc20010 	lw	v0,16(s8)
80400ac8:	c780007c 	lwc1	$f0,124(gp)
80400acc:	e44000b8 	swc1	$f0,184(v0)
80400ad0:	3c026008 	lui	v0,0x6008
80400ad4:	0c0b2864 	jal	802ca190 <PlaySound>
80400ad8:	34446001 	ori	a0,v0,0x6001
80400adc:	8f83000c 	lw	v1,12(gp)
80400ae0:	8fc20044 	lw	v0,68(s8)
80400ae4:	ac620000 	sw	v0,0(v1)
80400ae8:	8f820038 	lw	v0,56(gp)
80400aec:	ac400000 	sw	zero,0(v0)
80400af0:	8f820004 	lw	v0,4(gp)
80400af4:	c444003c 	lwc1	$f4,60(v0)
80400af8:	8f8200f0 	lw	v0,240(gp)
80400afc:	c44200a0 	lwc1	$f2,160(v0)
80400b00:	c7800064 	lwc1	$f0,100(gp)
80400b04:	46001001 	sub.s	$f0,$f2,$f0
80400b08:	4604003c 	c.lt.s	$f0,$f4
80400b0c:	45000047 	bc1f	80400c2c <_start+0xc2c>
80400b10:	00000000 	nop
80400b14:	8f820004 	lw	v0,4(gp)
80400b18:	c444003c 	lwc1	$f4,60(v0)
80400b1c:	8f8200f0 	lw	v0,240(gp)
80400b20:	c44200a0 	lwc1	$f2,160(v0)
80400b24:	c7800064 	lwc1	$f0,100(gp)
80400b28:	46001000 	add.s	$f0,$f2,$f0
80400b2c:	4600203c 	c.lt.s	$f4,$f0
80400b30:	4500003e 	bc1f	80400c2c <_start+0xc2c>
80400b34:	00000000 	nop
80400b38:	8f820004 	lw	v0,4(gp)
80400b3c:	c4440040 	lwc1	$f4,64(v0)
80400b40:	8f8200f0 	lw	v0,240(gp)
80400b44:	c44200a4 	lwc1	$f2,164(v0)
80400b48:	c7800064 	lwc1	$f0,100(gp)
80400b4c:	46001001 	sub.s	$f0,$f2,$f0
80400b50:	4604003c 	c.lt.s	$f0,$f4
80400b54:	45000035 	bc1f	80400c2c <_start+0xc2c>
80400b58:	00000000 	nop
80400b5c:	8f820004 	lw	v0,4(gp)
80400b60:	c4440040 	lwc1	$f4,64(v0)
80400b64:	8f8200f0 	lw	v0,240(gp)
80400b68:	c44200a4 	lwc1	$f2,164(v0)
80400b6c:	c7800064 	lwc1	$f0,100(gp)
80400b70:	46001000 	add.s	$f0,$f2,$f0
80400b74:	4600203c 	c.lt.s	$f4,$f0
80400b78:	4500002c 	bc1f	80400c2c <_start+0xc2c>
80400b7c:	00000000 	nop
80400b80:	8f820004 	lw	v0,4(gp)
80400b84:	c4440044 	lwc1	$f4,68(v0)
80400b88:	8f8200f0 	lw	v0,240(gp)
80400b8c:	c44200a8 	lwc1	$f2,168(v0)
80400b90:	c7800064 	lwc1	$f0,100(gp)
80400b94:	46001001 	sub.s	$f0,$f2,$f0
80400b98:	4604003c 	c.lt.s	$f0,$f4
80400b9c:	45000023 	bc1f	80400c2c <_start+0xc2c>
80400ba0:	00000000 	nop
80400ba4:	8f820004 	lw	v0,4(gp)
80400ba8:	c4440044 	lwc1	$f4,68(v0)
80400bac:	8f8200f0 	lw	v0,240(gp)
80400bb0:	c44200a8 	lwc1	$f2,168(v0)
80400bb4:	c7800064 	lwc1	$f0,100(gp)
80400bb8:	46001000 	add.s	$f0,$f2,$f0
80400bbc:	4600203c 	c.lt.s	$f4,$f0
80400bc0:	4500001a 	bc1f	80400c2c <_start+0xc2c>
80400bc4:	00000000 	nop
80400bc8:	8f820004 	lw	v0,4(gp)
80400bcc:	8c43000c 	lw	v1,12(v0)
80400bd0:	3c020080 	lui	v0,0x80
80400bd4:	34420380 	ori	v0,v0,0x380
80400bd8:	10620007 	beq	v1,v0,80400bf8 <_start+0xbf8>
80400bdc:	00000000 	nop
80400be0:	8f820004 	lw	v0,4(gp)
80400be4:	8c43000c 	lw	v1,12(v0)
80400be8:	3c020080 	lui	v0,0x80
80400bec:	34420457 	ori	v0,v0,0x457
80400bf0:	1462000e 	bne	v1,v0,80400c2c <_start+0xc2c>
80400bf4:	00000000 	nop
80400bf8:	8f830004 	lw	v1,4(gp)
80400bfc:	3c020002 	lui	v0,0x2
80400c00:	34420338 	ori	v0,v0,0x338
80400c04:	ac62000c 	sw	v0,12(v1)
80400c08:	8f830004 	lw	v1,4(gp)
80400c0c:	8f820004 	lw	v0,4(gp)
80400c10:	844200ae 	lh	v0,174(v0)
80400c14:	3042ffff 	andi	v0,v0,0xffff
80400c18:	2442ffff 	addiu	v0,v0,-1
80400c1c:	3042ffff 	andi	v0,v0,0xffff
80400c20:	00021400 	sll	v0,v0,0x10
80400c24:	00021403 	sra	v0,v0,0x10
80400c28:	a46200ae 	sh	v0,174(v1)
80400c2c:	8f820054 	lw	v0,84(gp)
80400c30:	8c430000 	lw	v1,0(v0)
80400c34:	24020001 	li	v0,1
80400c38:	14620028 	bne	v1,v0,80400cdc <_start+0xcdc>
80400c3c:	00000000 	nop
80400c40:	8f830058 	lw	v1,88(gp)
80400c44:	8f820058 	lw	v0,88(gp)
80400c48:	8c420000 	lw	v0,0(v0)
80400c4c:	24420001 	addiu	v0,v0,1
80400c50:	ac620000 	sw	v0,0(v1)
80400c54:	8f820058 	lw	v0,88(gp)
80400c58:	8c430000 	lw	v1,0(v0)
80400c5c:	24020001 	li	v0,1
80400c60:	14620008 	bne	v1,v0,80400c84 <_start+0xc84>
80400c64:	00000000 	nop
80400c68:	8f830004 	lw	v1,4(gp)
80400c6c:	8f820004 	lw	v0,4(gp)
80400c70:	c4420040 	lwc1	$f2,64(v0)
80400c74:	c78000c0 	lwc1	$f0,192(gp)
80400c78:	46001000 	add.s	$f0,$f2,$f0
80400c7c:	08100327 	j	80400c9c <_start+0xc9c>
80400c80:	e4600040 	swc1	$f0,64(v1)
80400c84:	8f830004 	lw	v1,4(gp)
80400c88:	8f820004 	lw	v0,4(gp)
80400c8c:	c4420040 	lwc1	$f2,64(v0)
80400c90:	c78000bc 	lwc1	$f0,188(gp)
80400c94:	46001000 	add.s	$f0,$f2,$f0
80400c98:	e4600040 	swc1	$f0,64(v1)
80400c9c:	8f820004 	lw	v0,4(gp)
80400ca0:	c78000c4 	lwc1	$f0,196(gp)
80400ca4:	e440004c 	swc1	$f0,76(v0)
80400ca8:	8f820058 	lw	v0,88(gp)
80400cac:	8c420000 	lw	v0,0(v0)
80400cb0:	28420008 	slti	v0,v0,8
80400cb4:	14400009 	bnez	v0,80400cdc <_start+0xcdc>
80400cb8:	00000000 	nop
80400cbc:	8f830004 	lw	v1,4(gp)
80400cc0:	3c021080 	lui	v0,0x1080
80400cc4:	344208a4 	ori	v0,v0,0x8a4
80400cc8:	ac62000c 	sw	v0,12(v1)
80400ccc:	8f820054 	lw	v0,84(gp)
80400cd0:	ac400000 	sw	zero,0(v0)
80400cd4:	8f820058 	lw	v0,88(gp)
80400cd8:	ac400000 	sw	zero,0(v0)
80400cdc:	03c0e821 	move	sp,s8
80400ce0:	8fbf0074 	lw	ra,116(sp)
80400ce4:	8fbe0070 	lw	s8,112(sp)
80400ce8:	03e00008 	jr	ra
80400cec:	27bd0078 	addiu	sp,sp,120

80400cf0 <CheckFireCollision>:
80400cf0:	27bdffc8 	addiu	sp,sp,-56
80400cf4:	afbf0034 	sw	ra,52(sp)
80400cf8:	afbe0030 	sw	s8,48(sp)
80400cfc:	03a0f021 	move	s8,sp
80400d00:	afc40038 	sw	a0,56(s8)
80400d04:	8fc20038 	lw	v0,56(s8)
80400d08:	afc20028 	sw	v0,40(s8)
80400d0c:	8f82000c 	lw	v0,12(gp)
80400d10:	8c420000 	lw	v0,0(v0)
80400d14:	afc20024 	sw	v0,36(s8)
80400d18:	8f83000c 	lw	v1,12(gp)
80400d1c:	3c028033 	lui	v0,0x8033
80400d20:	3442d488 	ori	v0,v0,0xd488
80400d24:	ac620000 	sw	v0,0(v1)
80400d28:	3c021300 	lui	v0,0x1300
80400d2c:	34441184 	ori	a0,v0,0x1184
80400d30:	0c09dfd4 	jal	80277f50 <SegmentedToVirtual>
80400d34:	00000000 	nop
80400d38:	afc20010 	sw	v0,16(s8)
80400d3c:	afc0001c 	sw	zero,28(s8)
80400d40:	081003ee 	j	80400fb8 <CheckFireCollision+0x2c8>
80400d44:	00000000 	nop
80400d48:	8f820008 	lw	v0,8(gp)
80400d4c:	8c420000 	lw	v0,0(v0)
80400d50:	8c43020c 	lw	v1,524(v0)
80400d54:	8fc20010 	lw	v0,16(s8)
80400d58:	1462008f 	bne	v1,v0,80400f98 <CheckFireCollision+0x2a8>
80400d5c:	00000000 	nop
80400d60:	8f82000c 	lw	v0,12(gp)
80400d64:	8c420000 	lw	v0,0(v0)
80400d68:	afc20020 	sw	v0,32(s8)
80400d6c:	8f82000c 	lw	v0,12(gp)
80400d70:	8c420000 	lw	v0,0(v0)
80400d74:	af8200f4 	sw	v0,244(gp)
80400d78:	8f83000c 	lw	v1,12(gp)
80400d7c:	3c028033 	lui	v0,0x8033
80400d80:	3442d488 	ori	v0,v0,0xd488
80400d84:	ac620000 	sw	v0,0(v1)
80400d88:	afc00014 	sw	zero,20(s8)
80400d8c:	081003df 	j	80400f7c <CheckFireCollision+0x28c>
80400d90:	00000000 	nop
80400d94:	8f820008 	lw	v0,8(gp)
80400d98:	8c420000 	lw	v0,0(v0)
80400d9c:	8c42003c 	lw	v0,60(v0)
80400da0:	14400006 	bnez	v0,80400dbc <CheckFireCollision+0xcc>
80400da4:	00000000 	nop
80400da8:	8f820008 	lw	v0,8(gp)
80400dac:	8c420000 	lw	v0,0(v0)
80400db0:	8c420218 	lw	v0,536(v0)
80400db4:	10400069 	beqz	v0,80400f5c <CheckFireCollision+0x26c>
80400db8:	00000000 	nop
80400dbc:	8f820008 	lw	v0,8(gp)
80400dc0:	8c420000 	lw	v0,0(v0)
80400dc4:	8c43003c 	lw	v1,60(v0)
80400dc8:	3c028006 	lui	v0,0x8006
80400dcc:	34420030 	ori	v0,v0,0x30
80400dd0:	10620062 	beq	v1,v0,80400f5c <CheckFireCollision+0x26c>
80400dd4:	00000000 	nop
80400dd8:	8f820008 	lw	v0,8(gp)
80400ddc:	8c420000 	lw	v0,0(v0)
80400de0:	c44200a0 	lwc1	$f2,160(v0)
80400de4:	8fc20038 	lw	v0,56(s8)
80400de8:	c44000a0 	lwc1	$f0,160(v0)
80400dec:	46001032 	c.eq.s	$f2,$f0
80400df0:	00000000 	nop
80400df4:	45010059 	bc1t	80400f5c <CheckFireCollision+0x26c>
80400df8:	00000000 	nop
80400dfc:	8f820008 	lw	v0,8(gp)
80400e00:	8c420000 	lw	v0,0(v0)
80400e04:	c44400a0 	lwc1	$f4,160(v0)
80400e08:	8f8200f4 	lw	v0,244(gp)
80400e0c:	c44200a0 	lwc1	$f2,160(v0)
80400e10:	c78000c8 	lwc1	$f0,200(gp)
80400e14:	46001001 	sub.s	$f0,$f2,$f0
80400e18:	4604003c 	c.lt.s	$f0,$f4
80400e1c:	00000000 	nop
80400e20:	4500004e 	bc1f	80400f5c <CheckFireCollision+0x26c>
80400e24:	00000000 	nop
80400e28:	8f820008 	lw	v0,8(gp)
80400e2c:	8c420000 	lw	v0,0(v0)
80400e30:	c44400a0 	lwc1	$f4,160(v0)
80400e34:	8f8200f4 	lw	v0,244(gp)
80400e38:	c44200a0 	lwc1	$f2,160(v0)
80400e3c:	c78000c8 	lwc1	$f0,200(gp)
80400e40:	46001000 	add.s	$f0,$f2,$f0
80400e44:	4600203c 	c.lt.s	$f4,$f0
80400e48:	00000000 	nop
80400e4c:	45000043 	bc1f	80400f5c <CheckFireCollision+0x26c>
80400e50:	00000000 	nop
80400e54:	8f820008 	lw	v0,8(gp)
80400e58:	8c420000 	lw	v0,0(v0)
80400e5c:	c44400a4 	lwc1	$f4,164(v0)
80400e60:	8f8200f4 	lw	v0,244(gp)
80400e64:	c44200a4 	lwc1	$f2,164(v0)
80400e68:	c78000c8 	lwc1	$f0,200(gp)
80400e6c:	46001001 	sub.s	$f0,$f2,$f0
80400e70:	4604003c 	c.lt.s	$f0,$f4
80400e74:	00000000 	nop
80400e78:	45000038 	bc1f	80400f5c <CheckFireCollision+0x26c>
80400e7c:	00000000 	nop
80400e80:	8f820008 	lw	v0,8(gp)
80400e84:	8c420000 	lw	v0,0(v0)
80400e88:	c44400a4 	lwc1	$f4,164(v0)
80400e8c:	8f8200f4 	lw	v0,244(gp)
80400e90:	c44200a4 	lwc1	$f2,164(v0)
80400e94:	c78000c8 	lwc1	$f0,200(gp)
80400e98:	46001000 	add.s	$f0,$f2,$f0
80400e9c:	4600203c 	c.lt.s	$f4,$f0
80400ea0:	00000000 	nop
80400ea4:	4500002d 	bc1f	80400f5c <CheckFireCollision+0x26c>
80400ea8:	00000000 	nop
80400eac:	8f820008 	lw	v0,8(gp)
80400eb0:	8c420000 	lw	v0,0(v0)
80400eb4:	c44400a8 	lwc1	$f4,168(v0)
80400eb8:	8f8200f4 	lw	v0,244(gp)
80400ebc:	c44200a8 	lwc1	$f2,168(v0)
80400ec0:	c78000c8 	lwc1	$f0,200(gp)
80400ec4:	46001001 	sub.s	$f0,$f2,$f0
80400ec8:	4604003c 	c.lt.s	$f0,$f4
80400ecc:	00000000 	nop
80400ed0:	45000022 	bc1f	80400f5c <CheckFireCollision+0x26c>
80400ed4:	00000000 	nop
80400ed8:	8f820008 	lw	v0,8(gp)
80400edc:	8c420000 	lw	v0,0(v0)
80400ee0:	c44400a8 	lwc1	$f4,168(v0)
80400ee4:	8f8200f4 	lw	v0,244(gp)
80400ee8:	c44200a8 	lwc1	$f2,168(v0)
80400eec:	c78000c8 	lwc1	$f0,200(gp)
80400ef0:	46001000 	add.s	$f0,$f2,$f0
80400ef4:	4600203c 	c.lt.s	$f4,$f0
80400ef8:	00000000 	nop
80400efc:	45000017 	bc1f	80400f5c <CheckFireCollision+0x26c>
80400f00:	00000000 	nop
80400f04:	8f820008 	lw	v0,8(gp)
80400f08:	8c420000 	lw	v0,0(v0)
80400f0c:	8c430014 	lw	v1,20(v0)
80400f10:	3c02800f 	lui	v0,0x800f
80400f14:	34420860 	ori	v0,v0,0x860
80400f18:	10620010 	beq	v1,v0,80400f5c <CheckFireCollision+0x26c>
80400f1c:	00000000 	nop
80400f20:	8f820008 	lw	v0,8(gp)
80400f24:	8c420000 	lw	v0,0(v0)
80400f28:	00402021 	move	a0,v0
80400f2c:	240500cd 	li	a1,205
80400f30:	3c021300 	lui	v0,0x1300
80400f34:	34463510 	ori	a2,v0,0x3510
80400f38:	0c0a7b73 	jal	8029edcc <SpawnObj>
80400f3c:	00000000 	nop
80400f40:	8f820008 	lw	v0,8(gp)
80400f44:	8c420000 	lw	v0,0(v0)
80400f48:	a4400074 	sh	zero,116(v0)
80400f4c:	8f8200f4 	lw	v0,244(gp)
80400f50:	a4400074 	sh	zero,116(v0)
80400f54:	081003e3 	j	80400f8c <CheckFireCollision+0x29c>
80400f58:	00000000 	nop
80400f5c:	8f83000c 	lw	v1,12(gp)
80400f60:	8f820008 	lw	v0,8(gp)
80400f64:	8c420000 	lw	v0,0(v0)
80400f68:	8c420008 	lw	v0,8(v0)
80400f6c:	ac620000 	sw	v0,0(v1)
80400f70:	8fc20014 	lw	v0,20(s8)
80400f74:	24420001 	addiu	v0,v0,1
80400f78:	afc20014 	sw	v0,20(s8)
80400f7c:	8fc20014 	lw	v0,20(s8)
80400f80:	284200f0 	slti	v0,v0,240
80400f84:	1440ff83 	bnez	v0,80400d94 <CheckFireCollision+0xa4>
80400f88:	00000000 	nop
80400f8c:	8f83000c 	lw	v1,12(gp)
80400f90:	8fc20020 	lw	v0,32(s8)
80400f94:	ac620000 	sw	v0,0(v1)
80400f98:	8f83000c 	lw	v1,12(gp)
80400f9c:	8f820008 	lw	v0,8(gp)
80400fa0:	8c420000 	lw	v0,0(v0)
80400fa4:	8c420008 	lw	v0,8(v0)
80400fa8:	ac620000 	sw	v0,0(v1)
80400fac:	8fc2001c 	lw	v0,28(s8)
80400fb0:	24420001 	addiu	v0,v0,1
80400fb4:	afc2001c 	sw	v0,28(s8)
80400fb8:	8fc2001c 	lw	v0,28(s8)
80400fbc:	284200f0 	slti	v0,v0,240
80400fc0:	1440ff61 	bnez	v0,80400d48 <CheckFireCollision+0x58>
80400fc4:	00000000 	nop
80400fc8:	8f83000c 	lw	v1,12(gp)
80400fcc:	8fc20024 	lw	v0,36(s8)
80400fd0:	ac620000 	sw	v0,0(v1)
80400fd4:	03c0e821 	move	sp,s8
80400fd8:	8fbf0034 	lw	ra,52(sp)
80400fdc:	8fbe0030 	lw	s8,48(sp)
80400fe0:	27bd0038 	addiu	sp,sp,56
80400fe4:	03e00008 	jr	ra
80400fe8:	00000000 	nop

80400fec <ControlYoshi>:
80400fec:	27bdffb8 	addiu	sp,sp,-72
80400ff0:	afbf0034 	sw	ra,52(sp)
80400ff4:	afbe0030 	sw	s8,48(sp)
80400ff8:	afb0002c 	sw	s0,44(sp)
80400ffc:	f7b60040 	sdc1	$f22,64(sp)
80401000:	f7b40038 	sdc1	$f20,56(sp)
80401004:	03a0f021 	move	s8,sp
80401008:	3c028033 	lui	v0,0x8033
8040100c:	3442afac 	ori	v0,v0,0xafac
80401010:	afc2001c 	sw	v0,28(s8)
80401014:	8f8200f0 	lw	v0,240(gp)
80401018:	8c4200c8 	lw	v0,200(v0)
8040101c:	00401821 	move	v1,v0
80401020:	3c02b60b 	lui	v0,0xb60b
80401024:	344260b7 	ori	v0,v0,0x60b7
80401028:	00620018 	mult	v1,v0
8040102c:	00001010 	mfhi	v0
80401030:	00431021 	addu	v0,v0,v1
80401034:	000221c3 	sra	a0,v0,0x7
80401038:	000317c3 	sra	v0,v1,0x1f
8040103c:	00821023 	subu	v0,a0,v0
80401040:	244200b4 	addiu	v0,v0,180
80401044:	afc20018 	sw	v0,24(s8)
80401048:	afc00014 	sw	zero,20(s8)
8040104c:	8fc20018 	lw	v0,24(s8)
80401050:	04410002 	bgez	v0,8040105c <ControlYoshi+0x70>
80401054:	00000000 	nop
80401058:	afc00018 	sw	zero,24(s8)
8040105c:	8fc20018 	lw	v0,24(s8)
80401060:	28420169 	slti	v0,v0,361
80401064:	14400003 	bnez	v0,80401074 <ControlYoshi+0x88>
80401068:	00000000 	nop
8040106c:	24020168 	li	v0,360
80401070:	afc20018 	sw	v0,24(s8)
80401074:	8fc20018 	lw	v0,24(s8)
80401078:	04400009 	bltz	v0,804010a0 <ControlYoshi+0xb4>
8040107c:	00000000 	nop
80401080:	8fc20018 	lw	v0,24(s8)
80401084:	2842005a 	slti	v0,v0,90
80401088:	10400005 	beqz	v0,804010a0 <ControlYoshi+0xb4>
8040108c:	00000000 	nop
80401090:	24020001 	li	v0,1
80401094:	afc20014 	sw	v0,20(s8)
80401098:	0810044a 	j	80401128 <ControlYoshi+0x13c>
8040109c:	00000000 	nop
804010a0:	8fc20018 	lw	v0,24(s8)
804010a4:	2842005a 	slti	v0,v0,90
804010a8:	14400009 	bnez	v0,804010d0 <ControlYoshi+0xe4>
804010ac:	00000000 	nop
804010b0:	8fc20018 	lw	v0,24(s8)
804010b4:	284200b4 	slti	v0,v0,180
804010b8:	10400005 	beqz	v0,804010d0 <ControlYoshi+0xe4>
804010bc:	00000000 	nop
804010c0:	24020002 	li	v0,2
804010c4:	afc20014 	sw	v0,20(s8)
804010c8:	0810044a 	j	80401128 <ControlYoshi+0x13c>
804010cc:	00000000 	nop
804010d0:	8fc20018 	lw	v0,24(s8)
804010d4:	284200b4 	slti	v0,v0,180
804010d8:	14400009 	bnez	v0,80401100 <ControlYoshi+0x114>
804010dc:	00000000 	nop
804010e0:	8fc20018 	lw	v0,24(s8)
804010e4:	2842010e 	slti	v0,v0,270
804010e8:	10400005 	beqz	v0,80401100 <ControlYoshi+0x114>
804010ec:	00000000 	nop
804010f0:	24020003 	li	v0,3
804010f4:	afc20014 	sw	v0,20(s8)
804010f8:	0810044a 	j	80401128 <ControlYoshi+0x13c>
804010fc:	00000000 	nop
80401100:	8fc20018 	lw	v0,24(s8)
80401104:	2842010e 	slti	v0,v0,270
80401108:	14400007 	bnez	v0,80401128 <ControlYoshi+0x13c>
8040110c:	00000000 	nop
80401110:	8fc20018 	lw	v0,24(s8)
80401114:	28420169 	slti	v0,v0,361
80401118:	10400003 	beqz	v0,80401128 <ControlYoshi+0x13c>
8040111c:	00000000 	nop
80401120:	24020004 	li	v0,4
80401124:	afc20014 	sw	v0,20(s8)
80401128:	8fc2001c 	lw	v0,28(s8)
8040112c:	c4420004 	lwc1	$f2,4(v0)
80401130:	44800000 	mtc1	zero,$f0
80401134:	00000000 	nop
80401138:	46001032 	c.eq.s	$f2,$f0
8040113c:	00000000 	nop
80401140:	45000009 	bc1f	80401168 <ControlYoshi+0x17c>
80401144:	00000000 	nop
80401148:	8fc2001c 	lw	v0,28(s8)
8040114c:	c4420008 	lwc1	$f2,8(v0)
80401150:	44800000 	mtc1	zero,$f0
80401154:	00000000 	nop
80401158:	46001032 	c.eq.s	$f2,$f0
8040115c:	00000000 	nop
80401160:	45010019 	bc1t	804011c8 <ControlYoshi+0x1dc>
80401164:	00000000 	nop
80401168:	8f9000f0 	lw	s0,240(gp)
8040116c:	8fc2001c 	lw	v0,28(s8)
80401170:	8c430008 	lw	v1,8(v0)
80401174:	3c028000 	lui	v0,0x8000
80401178:	00621826 	xor	v1,v1,v0
8040117c:	8fc2001c 	lw	v0,28(s8)
80401180:	c4400004 	lwc1	$f0,4(v0)
80401184:	44836000 	mtc1	v1,$f12
80401188:	46000386 	mov.s	$f14,$f0
8040118c:	0c0dea6a 	jal	8037a9a8 <_8037a9a8>
80401190:	00000000 	nop
80401194:	ae0200c8 	sw	v0,200(s0)
80401198:	8f9000f0 	lw	s0,240(gp)
8040119c:	8fc2001c 	lw	v0,28(s8)
804011a0:	8c430008 	lw	v1,8(v0)
804011a4:	3c028000 	lui	v0,0x8000
804011a8:	00621826 	xor	v1,v1,v0
804011ac:	8fc2001c 	lw	v0,28(s8)
804011b0:	c4400004 	lwc1	$f0,4(v0)
804011b4:	44836000 	mtc1	v1,$f12
804011b8:	46000386 	mov.s	$f14,$f0
804011bc:	0c0dea6a 	jal	8037a9a8 <_8037a9a8>
804011c0:	00000000 	nop
804011c4:	ae0200d4 	sw	v0,212(s0)
804011c8:	8f8200f0 	lw	v0,240(gp)
804011cc:	00401821 	move	v1,v0
804011d0:	8f820004 	lw	v0,4(gp)
804011d4:	8c420088 	lw	v0,136(v0)
804011d8:	00602021 	move	a0,v1
804011dc:	00402821 	move	a1,v0
804011e0:	0c0a789f 	jal	8029e27c <DistanceFromObject>
804011e4:	00000000 	nop
804011e8:	e7c00010 	swc1	$f0,16(s8)
804011ec:	8fc20014 	lw	v0,20(s8)
804011f0:	afc20020 	sw	v0,32(s8)
804011f4:	24020002 	li	v0,2
804011f8:	8fc30020 	lw	v1,32(s8)
804011fc:	10620043 	beq	v1,v0,8040130c <ControlYoshi+0x320>
80401200:	00000000 	nop
80401204:	8fc30020 	lw	v1,32(s8)
80401208:	28620003 	slti	v0,v1,3
8040120c:	10400007 	beqz	v0,8040122c <ControlYoshi+0x240>
80401210:	00000000 	nop
80401214:	24020001 	li	v0,1
80401218:	8fc30020 	lw	v1,32(s8)
8040121c:	1062000d 	beq	v1,v0,80401254 <ControlYoshi+0x268>
80401220:	00000000 	nop
80401224:	0810054b 	j	8040152c <ControlYoshi+0x540>
80401228:	00000000 	nop
8040122c:	24020003 	li	v0,3
80401230:	8fc30020 	lw	v1,32(s8)
80401234:	10620063 	beq	v1,v0,804013c4 <ControlYoshi+0x3d8>
80401238:	00000000 	nop
8040123c:	24020004 	li	v0,4
80401240:	8fc30020 	lw	v1,32(s8)
80401244:	1062008d 	beq	v1,v0,8040147c <ControlYoshi+0x490>
80401248:	00000000 	nop
8040124c:	0810054b 	j	8040152c <ControlYoshi+0x540>
80401250:	00000000 	nop
80401254:	8f9000f0 	lw	s0,240(gp)
80401258:	8f8200f0 	lw	v0,240(gp)
8040125c:	c45400a8 	lwc1	$f20,168(v0)
80401260:	8fc2001c 	lw	v0,28(s8)
80401264:	c4400008 	lwc1	$f0,8(v0)
80401268:	4600000d 	trunc.w.s	$f0,$f0
8040126c:	468000a0 	cvt.s.w	$f2,$f0
80401270:	c78000cc 	lwc1	$f0,204(gp)
80401274:	46001582 	mul.s	$f22,$f2,$f0
80401278:	c7c00018 	lwc1	$f0,24(s8)
8040127c:	468000a1 	cvt.d.w	$f2,$f0
80401280:	d78000d0 	ldc1	$f0,208(gp)
80401284:	46201082 	mul.d	$f2,$f2,$f0
80401288:	d78000d8 	ldc1	$f0,216(gp)
8040128c:	46201003 	div.d	$f0,$f2,$f0
80401290:	46200020 	cvt.s.d	$f0,$f0
80401294:	46000306 	mov.s	$f12,$f0
80401298:	0c0c94c4 	jal	80325310 <cosf>
8040129c:	00000000 	nop
804012a0:	4600b002 	mul.s	$f0,$f22,$f0
804012a4:	4600a000 	add.s	$f0,$f20,$f0
804012a8:	e60000a8 	swc1	$f0,168(s0)
804012ac:	8f9000f0 	lw	s0,240(gp)
804012b0:	8f8200f0 	lw	v0,240(gp)
804012b4:	c45400a0 	lwc1	$f20,160(v0)
804012b8:	8fc2001c 	lw	v0,28(s8)
804012bc:	c4400008 	lwc1	$f0,8(v0)
804012c0:	4600000d 	trunc.w.s	$f0,$f0
804012c4:	468000a0 	cvt.s.w	$f2,$f0
804012c8:	c78000cc 	lwc1	$f0,204(gp)
804012cc:	46001582 	mul.s	$f22,$f2,$f0
804012d0:	c7c00018 	lwc1	$f0,24(s8)
804012d4:	468000a1 	cvt.d.w	$f2,$f0
804012d8:	d78000d0 	ldc1	$f0,208(gp)
804012dc:	46201082 	mul.d	$f2,$f2,$f0
804012e0:	d78000d8 	ldc1	$f0,216(gp)
804012e4:	46201003 	div.d	$f0,$f2,$f0
804012e8:	46200020 	cvt.s.d	$f0,$f0
804012ec:	46000306 	mov.s	$f12,$f0
804012f0:	0c0c9520 	jal	80325480 <sinf>
804012f4:	00000000 	nop
804012f8:	4600b002 	mul.s	$f0,$f22,$f0
804012fc:	4600a000 	add.s	$f0,$f20,$f0
80401300:	e60000a0 	swc1	$f0,160(s0)
80401304:	0810054b 	j	8040152c <ControlYoshi+0x540>
80401308:	00000000 	nop
8040130c:	8f9000f0 	lw	s0,240(gp)
80401310:	8f8200f0 	lw	v0,240(gp)
80401314:	c45400a8 	lwc1	$f20,168(v0)
80401318:	8fc2001c 	lw	v0,28(s8)
8040131c:	c4400004 	lwc1	$f0,4(v0)
80401320:	4600000d 	trunc.w.s	$f0,$f0
80401324:	468000a0 	cvt.s.w	$f2,$f0
80401328:	c78000e0 	lwc1	$f0,224(gp)
8040132c:	46001582 	mul.s	$f22,$f2,$f0
80401330:	c7c00018 	lwc1	$f0,24(s8)
80401334:	468000a1 	cvt.d.w	$f2,$f0
80401338:	d78000d0 	ldc1	$f0,208(gp)
8040133c:	46201082 	mul.d	$f2,$f2,$f0
80401340:	d78000d8 	ldc1	$f0,216(gp)
80401344:	46201003 	div.d	$f0,$f2,$f0
80401348:	46200020 	cvt.s.d	$f0,$f0
8040134c:	46000306 	mov.s	$f12,$f0
80401350:	0c0c94c4 	jal	80325310 <cosf>
80401354:	00000000 	nop
80401358:	4600b002 	mul.s	$f0,$f22,$f0
8040135c:	4600a000 	add.s	$f0,$f20,$f0
80401360:	e60000a8 	swc1	$f0,168(s0)
80401364:	8f9000f0 	lw	s0,240(gp)
80401368:	8f8200f0 	lw	v0,240(gp)
8040136c:	c45400a0 	lwc1	$f20,160(v0)
80401370:	8fc2001c 	lw	v0,28(s8)
80401374:	c4400004 	lwc1	$f0,4(v0)
80401378:	4600000d 	trunc.w.s	$f0,$f0
8040137c:	468000a0 	cvt.s.w	$f2,$f0
80401380:	c78000e0 	lwc1	$f0,224(gp)
80401384:	46001582 	mul.s	$f22,$f2,$f0
80401388:	c7c00018 	lwc1	$f0,24(s8)
8040138c:	468000a1 	cvt.d.w	$f2,$f0
80401390:	d78000d0 	ldc1	$f0,208(gp)
80401394:	46201082 	mul.d	$f2,$f2,$f0
80401398:	d78000d8 	ldc1	$f0,216(gp)
8040139c:	46201003 	div.d	$f0,$f2,$f0
804013a0:	46200020 	cvt.s.d	$f0,$f0
804013a4:	46000306 	mov.s	$f12,$f0
804013a8:	0c0c9520 	jal	80325480 <sinf>
804013ac:	00000000 	nop
804013b0:	4600b002 	mul.s	$f0,$f22,$f0
804013b4:	4600a000 	add.s	$f0,$f20,$f0
804013b8:	e60000a0 	swc1	$f0,160(s0)
804013bc:	0810054b 	j	8040152c <ControlYoshi+0x540>
804013c0:	00000000 	nop
804013c4:	8f9000f0 	lw	s0,240(gp)
804013c8:	8f8200f0 	lw	v0,240(gp)
804013cc:	c45400a8 	lwc1	$f20,168(v0)
804013d0:	8fc2001c 	lw	v0,28(s8)
804013d4:	c4400008 	lwc1	$f0,8(v0)
804013d8:	4600000d 	trunc.w.s	$f0,$f0
804013dc:	468000a0 	cvt.s.w	$f2,$f0
804013e0:	c78000e0 	lwc1	$f0,224(gp)
804013e4:	46001582 	mul.s	$f22,$f2,$f0
804013e8:	c7c00018 	lwc1	$f0,24(s8)
804013ec:	468000a1 	cvt.d.w	$f2,$f0
804013f0:	d78000d0 	ldc1	$f0,208(gp)
804013f4:	46201082 	mul.d	$f2,$f2,$f0
804013f8:	d78000d8 	ldc1	$f0,216(gp)
804013fc:	46201003 	div.d	$f0,$f2,$f0
80401400:	46200020 	cvt.s.d	$f0,$f0
80401404:	46000306 	mov.s	$f12,$f0
80401408:	0c0c94c4 	jal	80325310 <cosf>
8040140c:	00000000 	nop
80401410:	4600b002 	mul.s	$f0,$f22,$f0
80401414:	4600a000 	add.s	$f0,$f20,$f0
80401418:	e60000a8 	swc1	$f0,168(s0)
8040141c:	8f9000f0 	lw	s0,240(gp)
80401420:	8f8200f0 	lw	v0,240(gp)
80401424:	c45400a0 	lwc1	$f20,160(v0)
80401428:	8fc2001c 	lw	v0,28(s8)
8040142c:	c4400008 	lwc1	$f0,8(v0)
80401430:	4600000d 	trunc.w.s	$f0,$f0
80401434:	468000a0 	cvt.s.w	$f2,$f0
80401438:	c78000e0 	lwc1	$f0,224(gp)
8040143c:	46001582 	mul.s	$f22,$f2,$f0
80401440:	c7c00018 	lwc1	$f0,24(s8)
80401444:	468000a1 	cvt.d.w	$f2,$f0
80401448:	d78000d0 	ldc1	$f0,208(gp)
8040144c:	46201082 	mul.d	$f2,$f2,$f0
80401450:	d78000d8 	ldc1	$f0,216(gp)
80401454:	46201003 	div.d	$f0,$f2,$f0
80401458:	46200020 	cvt.s.d	$f0,$f0
8040145c:	46000306 	mov.s	$f12,$f0
80401460:	0c0c9520 	jal	80325480 <sinf>
80401464:	00000000 	nop
80401468:	4600b002 	mul.s	$f0,$f22,$f0
8040146c:	4600a000 	add.s	$f0,$f20,$f0
80401470:	e60000a0 	swc1	$f0,160(s0)
80401474:	0810054b 	j	8040152c <ControlYoshi+0x540>
80401478:	00000000 	nop
8040147c:	8f9000f0 	lw	s0,240(gp)
80401480:	8f8200f0 	lw	v0,240(gp)
80401484:	c45400a8 	lwc1	$f20,168(v0)
80401488:	8fc2001c 	lw	v0,28(s8)
8040148c:	c4400004 	lwc1	$f0,4(v0)
80401490:	4600000d 	trunc.w.s	$f0,$f0
80401494:	468000a0 	cvt.s.w	$f2,$f0
80401498:	c78000cc 	lwc1	$f0,204(gp)
8040149c:	46001582 	mul.s	$f22,$f2,$f0
804014a0:	c7c00018 	lwc1	$f0,24(s8)
804014a4:	468000a1 	cvt.d.w	$f2,$f0
804014a8:	d78000d0 	ldc1	$f0,208(gp)
804014ac:	46201082 	mul.d	$f2,$f2,$f0
804014b0:	d78000d8 	ldc1	$f0,216(gp)
804014b4:	46201003 	div.d	$f0,$f2,$f0
804014b8:	46200020 	cvt.s.d	$f0,$f0
804014bc:	46000306 	mov.s	$f12,$f0
804014c0:	0c0c94c4 	jal	80325310 <cosf>
804014c4:	00000000 	nop
804014c8:	4600b002 	mul.s	$f0,$f22,$f0
804014cc:	4600a000 	add.s	$f0,$f20,$f0
804014d0:	e60000a8 	swc1	$f0,168(s0)
804014d4:	8f9000f0 	lw	s0,240(gp)
804014d8:	8f8200f0 	lw	v0,240(gp)
804014dc:	c45400a0 	lwc1	$f20,160(v0)
804014e0:	8fc2001c 	lw	v0,28(s8)
804014e4:	c4400004 	lwc1	$f0,4(v0)
804014e8:	4600000d 	trunc.w.s	$f0,$f0
804014ec:	468000a0 	cvt.s.w	$f2,$f0
804014f0:	c78000cc 	lwc1	$f0,204(gp)
804014f4:	46001582 	mul.s	$f22,$f2,$f0
804014f8:	c7c00018 	lwc1	$f0,24(s8)
804014fc:	468000a1 	cvt.d.w	$f2,$f0
80401500:	d78000d0 	ldc1	$f0,208(gp)
80401504:	46201082 	mul.d	$f2,$f2,$f0
80401508:	d78000d8 	ldc1	$f0,216(gp)
8040150c:	46201003 	div.d	$f0,$f2,$f0
80401510:	46200020 	cvt.s.d	$f0,$f0
80401514:	46000306 	mov.s	$f12,$f0
80401518:	0c0c9520 	jal	80325480 <sinf>
8040151c:	00000000 	nop
80401520:	4600b002 	mul.s	$f0,$f22,$f0
80401524:	4600a000 	add.s	$f0,$f20,$f0
80401528:	e60000a0 	swc1	$f0,160(s0)
8040152c:	8fc2001c 	lw	v0,28(s8)
80401530:	94420010 	lhu	v0,16(v0)
80401534:	00021400 	sll	v0,v0,0x10
80401538:	00021403 	sra	v0,v0,0x10
8040153c:	04410015 	bgez	v0,80401594 <ControlYoshi+0x5a8>
80401540:	00000000 	nop
80401544:	8f82004c 	lw	v0,76(gp)
80401548:	8c420000 	lw	v0,0(v0)
8040154c:	14400011 	bnez	v0,80401594 <ControlYoshi+0x5a8>
80401550:	00000000 	nop
80401554:	8f8300f0 	lw	v1,240(gp)
80401558:	8f8200f0 	lw	v0,240(gp)
8040155c:	c44200b0 	lwc1	$f2,176(v0)
80401560:	c78000e4 	lwc1	$f0,228(gp)
80401564:	46001000 	add.s	$f0,$f2,$f0
80401568:	e46000b0 	swc1	$f0,176(v1)
8040156c:	8f8200f0 	lw	v0,240(gp)
80401570:	c44200b0 	lwc1	$f2,176(v0)
80401574:	c78000e8 	lwc1	$f0,232(gp)
80401578:	4602003c 	c.lt.s	$f0,$f2
8040157c:	00000000 	nop
80401580:	45000004 	bc1f	80401594 <ControlYoshi+0x5a8>
80401584:	00000000 	nop
80401588:	8f83004c 	lw	v1,76(gp)
8040158c:	24020001 	li	v0,1
80401590:	ac620000 	sw	v0,0(v1)
80401594:	8f82004c 	lw	v0,76(gp)
80401598:	8c430000 	lw	v1,0(v0)
8040159c:	24020001 	li	v0,1
804015a0:	1462000f 	bne	v1,v0,804015e0 <ControlYoshi+0x5f4>
804015a4:	00000000 	nop
804015a8:	8f830050 	lw	v1,80(gp)
804015ac:	8f820050 	lw	v0,80(gp)
804015b0:	8c420000 	lw	v0,0(v0)
804015b4:	24420001 	addiu	v0,v0,1
804015b8:	ac620000 	sw	v0,0(v1)
804015bc:	8f820050 	lw	v0,80(gp)
804015c0:	8c420000 	lw	v0,0(v0)
804015c4:	2842001f 	slti	v0,v0,31
804015c8:	14400005 	bnez	v0,804015e0 <ControlYoshi+0x5f4>
804015cc:	00000000 	nop
804015d0:	8f820050 	lw	v0,80(gp)
804015d4:	ac400000 	sw	zero,0(v0)
804015d8:	8f82004c 	lw	v0,76(gp)
804015dc:	ac400000 	sw	zero,0(v0)
804015e0:	03c0e821 	move	sp,s8
804015e4:	8fbf0034 	lw	ra,52(sp)
804015e8:	8fbe0030 	lw	s8,48(sp)
804015ec:	8fb0002c 	lw	s0,44(sp)
804015f0:	d7b60040 	ldc1	$f22,64(sp)
804015f4:	d7b40038 	ldc1	$f20,56(sp)
804015f8:	27bd0048 	addiu	sp,sp,72
804015fc:	03e00008 	jr	ra
80401600:	00000000 	nop
80401604:	796f7368 	0x796f7368
80401608:	69203830 	ldl	zero,14384(t1)
8040160c:	25780000 	addiu	t8,t3,0
80401610:	43616d65 	c0	0x1616d65
80401614:	72610000 	0x72610000
80401618:	596f7368 	0x596f7368
8040161c:	69000000 	ldl	zero,0(t0)
80401620:	6d696464 	ldr	t1,25700(t3)
80401624:	6c650000 	ldr	a1,0(v1)
80401628:	4d617269 	0x4d617269
8040162c:	6f000000 	ldr	zero,0(t8)
80401630:	64697374 	daddiu	t1,v1,29556
80401634:	20256400 	addi	a1,at,25600
80401638:	63646973 	daddi	a0,k1,26995
8040163c:	74202564 	jalx	80809590 <__bss_end+0x407dac>
80401640:	00000000 	nop
